
Cammand_ROS.elf:     file format elf32-littlearm

Sections:
Idx Name          Size      VMA       LMA       File off  Algn
  0 .isr_vector   000001d8  08000000  08000000  00001000  2**0
                  CONTENTS, ALLOC, LOAD, READONLY, DATA
  1 .text         0000d3f0  080001d8  080001d8  000011d8  2**3
                  CONTENTS, ALLOC, LOAD, READONLY, CODE
  2 .rodata       00000278  0800d5c8  0800d5c8  0000e5c8  2**3
                  CONTENTS, ALLOC, LOAD, READONLY, DATA
  3 .ARM.extab    00000000  0800d840  0800d840  0000f1b4  2**0
                  CONTENTS, READONLY
  4 .ARM          00000008  0800d840  0800d840  0000e840  2**2
                  CONTENTS, ALLOC, LOAD, READONLY, DATA
  5 .preinit_array 00000000  0800d848  0800d848  0000f1b4  2**0
                  CONTENTS, ALLOC, LOAD, DATA
  6 .init_array   00000004  0800d848  0800d848  0000e848  2**2
                  CONTENTS, ALLOC, LOAD, READONLY, DATA
  7 .fini_array   00000004  0800d84c  0800d84c  0000e84c  2**2
                  CONTENTS, ALLOC, LOAD, READONLY, DATA
  8 .data         000001b4  20000000  0800d850  0000f000  2**3
                  CONTENTS, ALLOC, LOAD, DATA
  9 .bss          00001d68  200001b4  0800da04  0000f1b4  2**2
                  ALLOC
 10 ._user_heap_stack 00000604  20001f1c  0800da04  0000ff1c  2**0
                  ALLOC
 11 .ARM.attributes 00000030  00000000  00000000  0000f1b4  2**0
                  CONTENTS, READONLY
 12 .debug_info   0001b1a9  00000000  00000000  0000f1e4  2**0
                  CONTENTS, READONLY, DEBUGGING, OCTETS
 13 .debug_abbrev 000041da  00000000  00000000  0002a38d  2**0
                  CONTENTS, READONLY, DEBUGGING, OCTETS
 14 .debug_aranges 00001388  00000000  00000000  0002e568  2**3
                  CONTENTS, READONLY, DEBUGGING, OCTETS
 15 .debug_rnglists 00000eba  00000000  00000000  0002f8f0  2**0
                  CONTENTS, READONLY, DEBUGGING, OCTETS
 16 .debug_macro  00027bdf  00000000  00000000  000307aa  2**0
                  CONTENTS, READONLY, DEBUGGING, OCTETS
 17 .debug_line   00019464  00000000  00000000  00058389  2**0
                  CONTENTS, READONLY, DEBUGGING, OCTETS
 18 .debug_str    000f4437  00000000  00000000  000717ed  2**0
                  CONTENTS, READONLY, DEBUGGING, OCTETS
 19 .comment      00000043  00000000  00000000  00165c24  2**0
                  CONTENTS, READONLY
 20 .debug_frame  00005330  00000000  00000000  00165c68  2**2
                  CONTENTS, READONLY, DEBUGGING, OCTETS
 21 .debug_line_str 00000063  00000000  00000000  0016af98  2**0
                  CONTENTS, READONLY, DEBUGGING, OCTETS

Disassembly of section .text:

080001d8 <__do_global_dtors_aux>:
 80001d8:	b510      	push	{r4, lr}
 80001da:	4c05      	ldr	r4, [pc, #20]	@ (80001f0 <__do_global_dtors_aux+0x18>)
 80001dc:	7823      	ldrb	r3, [r4, #0]
 80001de:	b933      	cbnz	r3, 80001ee <__do_global_dtors_aux+0x16>
 80001e0:	4b04      	ldr	r3, [pc, #16]	@ (80001f4 <__do_global_dtors_aux+0x1c>)
 80001e2:	b113      	cbz	r3, 80001ea <__do_global_dtors_aux+0x12>
 80001e4:	4804      	ldr	r0, [pc, #16]	@ (80001f8 <__do_global_dtors_aux+0x20>)
 80001e6:	f3af 8000 	nop.w
 80001ea:	2301      	movs	r3, #1
 80001ec:	7023      	strb	r3, [r4, #0]
 80001ee:	bd10      	pop	{r4, pc}
 80001f0:	200001b4 	.word	0x200001b4
 80001f4:	00000000 	.word	0x00000000
 80001f8:	0800d5b0 	.word	0x0800d5b0

080001fc <frame_dummy>:
 80001fc:	b508      	push	{r3, lr}
 80001fe:	4b03      	ldr	r3, [pc, #12]	@ (800020c <frame_dummy+0x10>)
 8000200:	b11b      	cbz	r3, 800020a <frame_dummy+0xe>
 8000202:	4903      	ldr	r1, [pc, #12]	@ (8000210 <frame_dummy+0x14>)
 8000204:	4803      	ldr	r0, [pc, #12]	@ (8000214 <frame_dummy+0x18>)
 8000206:	f3af 8000 	nop.w
 800020a:	bd08      	pop	{r3, pc}
 800020c:	00000000 	.word	0x00000000
 8000210:	200001b8 	.word	0x200001b8
 8000214:	0800d5b0 	.word	0x0800d5b0

08000218 <__aeabi_drsub>:
 8000218:	f081 4100 	eor.w	r1, r1, #2147483648	@ 0x80000000
 800021c:	e002      	b.n	8000224 <__adddf3>
 800021e:	bf00      	nop

08000220 <__aeabi_dsub>:
 8000220:	f083 4300 	eor.w	r3, r3, #2147483648	@ 0x80000000

08000224 <__adddf3>:
 8000224:	b530      	push	{r4, r5, lr}
 8000226:	ea4f 0441 	mov.w	r4, r1, lsl #1
 800022a:	ea4f 0543 	mov.w	r5, r3, lsl #1
 800022e:	ea94 0f05 	teq	r4, r5
 8000232:	bf08      	it	eq
 8000234:	ea90 0f02 	teqeq	r0, r2
 8000238:	bf1f      	itttt	ne
 800023a:	ea54 0c00 	orrsne.w	ip, r4, r0
 800023e:	ea55 0c02 	orrsne.w	ip, r5, r2
 8000242:	ea7f 5c64 	mvnsne.w	ip, r4, asr #21
 8000246:	ea7f 5c65 	mvnsne.w	ip, r5, asr #21
 800024a:	f000 80e2 	beq.w	8000412 <__adddf3+0x1ee>
 800024e:	ea4f 5454 	mov.w	r4, r4, lsr #21
 8000252:	ebd4 5555 	rsbs	r5, r4, r5, lsr #21
 8000256:	bfb8      	it	lt
 8000258:	426d      	neglt	r5, r5
 800025a:	dd0c      	ble.n	8000276 <__adddf3+0x52>
 800025c:	442c      	add	r4, r5
 800025e:	ea80 0202 	eor.w	r2, r0, r2
 8000262:	ea81 0303 	eor.w	r3, r1, r3
 8000266:	ea82 0000 	eor.w	r0, r2, r0
 800026a:	ea83 0101 	eor.w	r1, r3, r1
 800026e:	ea80 0202 	eor.w	r2, r0, r2
 8000272:	ea81 0303 	eor.w	r3, r1, r3
 8000276:	2d36      	cmp	r5, #54	@ 0x36
 8000278:	bf88      	it	hi
 800027a:	bd30      	pophi	{r4, r5, pc}
 800027c:	f011 4f00 	tst.w	r1, #2147483648	@ 0x80000000
 8000280:	ea4f 3101 	mov.w	r1, r1, lsl #12
 8000284:	f44f 1c80 	mov.w	ip, #1048576	@ 0x100000
 8000288:	ea4c 3111 	orr.w	r1, ip, r1, lsr #12
 800028c:	d002      	beq.n	8000294 <__adddf3+0x70>
 800028e:	4240      	negs	r0, r0
 8000290:	eb61 0141 	sbc.w	r1, r1, r1, lsl #1
 8000294:	f013 4f00 	tst.w	r3, #2147483648	@ 0x80000000
 8000298:	ea4f 3303 	mov.w	r3, r3, lsl #12
 800029c:	ea4c 3313 	orr.w	r3, ip, r3, lsr #12
 80002a0:	d002      	beq.n	80002a8 <__adddf3+0x84>
 80002a2:	4252      	negs	r2, r2
 80002a4:	eb63 0343 	sbc.w	r3, r3, r3, lsl #1
 80002a8:	ea94 0f05 	teq	r4, r5
 80002ac:	f000 80a7 	beq.w	80003fe <__adddf3+0x1da>
 80002b0:	f1a4 0401 	sub.w	r4, r4, #1
 80002b4:	f1d5 0e20 	rsbs	lr, r5, #32
 80002b8:	db0d      	blt.n	80002d6 <__adddf3+0xb2>
 80002ba:	fa02 fc0e 	lsl.w	ip, r2, lr
 80002be:	fa22 f205 	lsr.w	r2, r2, r5
 80002c2:	1880      	adds	r0, r0, r2
 80002c4:	f141 0100 	adc.w	r1, r1, #0
 80002c8:	fa03 f20e 	lsl.w	r2, r3, lr
 80002cc:	1880      	adds	r0, r0, r2
 80002ce:	fa43 f305 	asr.w	r3, r3, r5
 80002d2:	4159      	adcs	r1, r3
 80002d4:	e00e      	b.n	80002f4 <__adddf3+0xd0>
 80002d6:	f1a5 0520 	sub.w	r5, r5, #32
 80002da:	f10e 0e20 	add.w	lr, lr, #32
 80002de:	2a01      	cmp	r2, #1
 80002e0:	fa03 fc0e 	lsl.w	ip, r3, lr
 80002e4:	bf28      	it	cs
 80002e6:	f04c 0c02 	orrcs.w	ip, ip, #2
 80002ea:	fa43 f305 	asr.w	r3, r3, r5
 80002ee:	18c0      	adds	r0, r0, r3
 80002f0:	eb51 71e3 	adcs.w	r1, r1, r3, asr #31
 80002f4:	f001 4500 	and.w	r5, r1, #2147483648	@ 0x80000000
 80002f8:	d507      	bpl.n	800030a <__adddf3+0xe6>
 80002fa:	f04f 0e00 	mov.w	lr, #0
 80002fe:	f1dc 0c00 	rsbs	ip, ip, #0
 8000302:	eb7e 0000 	sbcs.w	r0, lr, r0
 8000306:	eb6e 0101 	sbc.w	r1, lr, r1
 800030a:	f5b1 1f80 	cmp.w	r1, #1048576	@ 0x100000
 800030e:	d31b      	bcc.n	8000348 <__adddf3+0x124>
 8000310:	f5b1 1f00 	cmp.w	r1, #2097152	@ 0x200000
 8000314:	d30c      	bcc.n	8000330 <__adddf3+0x10c>
 8000316:	0849      	lsrs	r1, r1, #1
 8000318:	ea5f 0030 	movs.w	r0, r0, rrx
 800031c:	ea4f 0c3c 	mov.w	ip, ip, rrx
 8000320:	f104 0401 	add.w	r4, r4, #1
 8000324:	ea4f 5244 	mov.w	r2, r4, lsl #21
 8000328:	f512 0f80 	cmn.w	r2, #4194304	@ 0x400000
 800032c:	f080 809a 	bcs.w	8000464 <__adddf3+0x240>
 8000330:	f1bc 4f00 	cmp.w	ip, #2147483648	@ 0x80000000
 8000334:	bf08      	it	eq
 8000336:	ea5f 0c50 	movseq.w	ip, r0, lsr #1
 800033a:	f150 0000 	adcs.w	r0, r0, #0
 800033e:	eb41 5104 	adc.w	r1, r1, r4, lsl #20
 8000342:	ea41 0105 	orr.w	r1, r1, r5
 8000346:	bd30      	pop	{r4, r5, pc}
 8000348:	ea5f 0c4c 	movs.w	ip, ip, lsl #1
 800034c:	4140      	adcs	r0, r0
 800034e:	eb41 0101 	adc.w	r1, r1, r1
 8000352:	3c01      	subs	r4, #1
 8000354:	bf28      	it	cs
 8000356:	f5b1 1f80 	cmpcs.w	r1, #1048576	@ 0x100000
 800035a:	d2e9      	bcs.n	8000330 <__adddf3+0x10c>
 800035c:	f091 0f00 	teq	r1, #0
 8000360:	bf04      	itt	eq
 8000362:	4601      	moveq	r1, r0
 8000364:	2000      	moveq	r0, #0
 8000366:	fab1 f381 	clz	r3, r1
 800036a:	bf08      	it	eq
 800036c:	3320      	addeq	r3, #32
 800036e:	f1a3 030b 	sub.w	r3, r3, #11
 8000372:	f1b3 0220 	subs.w	r2, r3, #32
 8000376:	da0c      	bge.n	8000392 <__adddf3+0x16e>
 8000378:	320c      	adds	r2, #12
 800037a:	dd08      	ble.n	800038e <__adddf3+0x16a>
 800037c:	f102 0c14 	add.w	ip, r2, #20
 8000380:	f1c2 020c 	rsb	r2, r2, #12
 8000384:	fa01 f00c 	lsl.w	r0, r1, ip
 8000388:	fa21 f102 	lsr.w	r1, r1, r2
 800038c:	e00c      	b.n	80003a8 <__adddf3+0x184>
 800038e:	f102 0214 	add.w	r2, r2, #20
 8000392:	bfd8      	it	le
 8000394:	f1c2 0c20 	rsble	ip, r2, #32
 8000398:	fa01 f102 	lsl.w	r1, r1, r2
 800039c:	fa20 fc0c 	lsr.w	ip, r0, ip
 80003a0:	bfdc      	itt	le
 80003a2:	ea41 010c 	orrle.w	r1, r1, ip
 80003a6:	4090      	lslle	r0, r2
 80003a8:	1ae4      	subs	r4, r4, r3
 80003aa:	bfa2      	ittt	ge
 80003ac:	eb01 5104 	addge.w	r1, r1, r4, lsl #20
 80003b0:	4329      	orrge	r1, r5
 80003b2:	bd30      	popge	{r4, r5, pc}
 80003b4:	ea6f 0404 	mvn.w	r4, r4
 80003b8:	3c1f      	subs	r4, #31
 80003ba:	da1c      	bge.n	80003f6 <__adddf3+0x1d2>
 80003bc:	340c      	adds	r4, #12
 80003be:	dc0e      	bgt.n	80003de <__adddf3+0x1ba>
 80003c0:	f104 0414 	add.w	r4, r4, #20
 80003c4:	f1c4 0220 	rsb	r2, r4, #32
 80003c8:	fa20 f004 	lsr.w	r0, r0, r4
 80003cc:	fa01 f302 	lsl.w	r3, r1, r2
 80003d0:	ea40 0003 	orr.w	r0, r0, r3
 80003d4:	fa21 f304 	lsr.w	r3, r1, r4
 80003d8:	ea45 0103 	orr.w	r1, r5, r3
 80003dc:	bd30      	pop	{r4, r5, pc}
 80003de:	f1c4 040c 	rsb	r4, r4, #12
 80003e2:	f1c4 0220 	rsb	r2, r4, #32
 80003e6:	fa20 f002 	lsr.w	r0, r0, r2
 80003ea:	fa01 f304 	lsl.w	r3, r1, r4
 80003ee:	ea40 0003 	orr.w	r0, r0, r3
 80003f2:	4629      	mov	r1, r5
 80003f4:	bd30      	pop	{r4, r5, pc}
 80003f6:	fa21 f004 	lsr.w	r0, r1, r4
 80003fa:	4629      	mov	r1, r5
 80003fc:	bd30      	pop	{r4, r5, pc}
 80003fe:	f094 0f00 	teq	r4, #0
 8000402:	f483 1380 	eor.w	r3, r3, #1048576	@ 0x100000
 8000406:	bf06      	itte	eq
 8000408:	f481 1180 	eoreq.w	r1, r1, #1048576	@ 0x100000
 800040c:	3401      	addeq	r4, #1
 800040e:	3d01      	subne	r5, #1
 8000410:	e74e      	b.n	80002b0 <__adddf3+0x8c>
 8000412:	ea7f 5c64 	mvns.w	ip, r4, asr #21
 8000416:	bf18      	it	ne
 8000418:	ea7f 5c65 	mvnsne.w	ip, r5, asr #21
 800041c:	d029      	beq.n	8000472 <__adddf3+0x24e>
 800041e:	ea94 0f05 	teq	r4, r5
 8000422:	bf08      	it	eq
 8000424:	ea90 0f02 	teqeq	r0, r2
 8000428:	d005      	beq.n	8000436 <__adddf3+0x212>
 800042a:	ea54 0c00 	orrs.w	ip, r4, r0
 800042e:	bf04      	itt	eq
 8000430:	4619      	moveq	r1, r3
 8000432:	4610      	moveq	r0, r2
 8000434:	bd30      	pop	{r4, r5, pc}
 8000436:	ea91 0f03 	teq	r1, r3
 800043a:	bf1e      	ittt	ne
 800043c:	2100      	movne	r1, #0
 800043e:	2000      	movne	r0, #0
 8000440:	bd30      	popne	{r4, r5, pc}
 8000442:	ea5f 5c54 	movs.w	ip, r4, lsr #21
 8000446:	d105      	bne.n	8000454 <__adddf3+0x230>
 8000448:	0040      	lsls	r0, r0, #1
 800044a:	4149      	adcs	r1, r1
 800044c:	bf28      	it	cs
 800044e:	f041 4100 	orrcs.w	r1, r1, #2147483648	@ 0x80000000
 8000452:	bd30      	pop	{r4, r5, pc}
 8000454:	f514 0480 	adds.w	r4, r4, #4194304	@ 0x400000
 8000458:	bf3c      	itt	cc
 800045a:	f501 1180 	addcc.w	r1, r1, #1048576	@ 0x100000
 800045e:	bd30      	popcc	{r4, r5, pc}
 8000460:	f001 4500 	and.w	r5, r1, #2147483648	@ 0x80000000
 8000464:	f045 41fe 	orr.w	r1, r5, #2130706432	@ 0x7f000000
 8000468:	f441 0170 	orr.w	r1, r1, #15728640	@ 0xf00000
 800046c:	f04f 0000 	mov.w	r0, #0
 8000470:	bd30      	pop	{r4, r5, pc}
 8000472:	ea7f 5c64 	mvns.w	ip, r4, asr #21
 8000476:	bf1a      	itte	ne
 8000478:	4619      	movne	r1, r3
 800047a:	4610      	movne	r0, r2
 800047c:	ea7f 5c65 	mvnseq.w	ip, r5, asr #21
 8000480:	bf1c      	itt	ne
 8000482:	460b      	movne	r3, r1
 8000484:	4602      	movne	r2, r0
 8000486:	ea50 3401 	orrs.w	r4, r0, r1, lsl #12
 800048a:	bf06      	itte	eq
 800048c:	ea52 3503 	orrseq.w	r5, r2, r3, lsl #12
 8000490:	ea91 0f03 	teqeq	r1, r3
 8000494:	f441 2100 	orrne.w	r1, r1, #524288	@ 0x80000
 8000498:	bd30      	pop	{r4, r5, pc}
 800049a:	bf00      	nop

0800049c <__aeabi_ui2d>:
 800049c:	f090 0f00 	teq	r0, #0
 80004a0:	bf04      	itt	eq
 80004a2:	2100      	moveq	r1, #0
 80004a4:	4770      	bxeq	lr
 80004a6:	b530      	push	{r4, r5, lr}
 80004a8:	f44f 6480 	mov.w	r4, #1024	@ 0x400
 80004ac:	f104 0432 	add.w	r4, r4, #50	@ 0x32
 80004b0:	f04f 0500 	mov.w	r5, #0
 80004b4:	f04f 0100 	mov.w	r1, #0
 80004b8:	e750      	b.n	800035c <__adddf3+0x138>
 80004ba:	bf00      	nop

080004bc <__aeabi_i2d>:
 80004bc:	f090 0f00 	teq	r0, #0
 80004c0:	bf04      	itt	eq
 80004c2:	2100      	moveq	r1, #0
 80004c4:	4770      	bxeq	lr
 80004c6:	b530      	push	{r4, r5, lr}
 80004c8:	f44f 6480 	mov.w	r4, #1024	@ 0x400
 80004cc:	f104 0432 	add.w	r4, r4, #50	@ 0x32
 80004d0:	f010 4500 	ands.w	r5, r0, #2147483648	@ 0x80000000
 80004d4:	bf48      	it	mi
 80004d6:	4240      	negmi	r0, r0
 80004d8:	f04f 0100 	mov.w	r1, #0
 80004dc:	e73e      	b.n	800035c <__adddf3+0x138>
 80004de:	bf00      	nop

080004e0 <__aeabi_f2d>:
 80004e0:	0042      	lsls	r2, r0, #1
 80004e2:	ea4f 01e2 	mov.w	r1, r2, asr #3
 80004e6:	ea4f 0131 	mov.w	r1, r1, rrx
 80004ea:	ea4f 7002 	mov.w	r0, r2, lsl #28
 80004ee:	bf1f      	itttt	ne
 80004f0:	f012 437f 	andsne.w	r3, r2, #4278190080	@ 0xff000000
 80004f4:	f093 4f7f 	teqne	r3, #4278190080	@ 0xff000000
 80004f8:	f081 5160 	eorne.w	r1, r1, #939524096	@ 0x38000000
 80004fc:	4770      	bxne	lr
 80004fe:	f032 427f 	bics.w	r2, r2, #4278190080	@ 0xff000000
 8000502:	bf08      	it	eq
 8000504:	4770      	bxeq	lr
 8000506:	f093 4f7f 	teq	r3, #4278190080	@ 0xff000000
 800050a:	bf04      	itt	eq
 800050c:	f441 2100 	orreq.w	r1, r1, #524288	@ 0x80000
 8000510:	4770      	bxeq	lr
 8000512:	b530      	push	{r4, r5, lr}
 8000514:	f44f 7460 	mov.w	r4, #896	@ 0x380
 8000518:	f001 4500 	and.w	r5, r1, #2147483648	@ 0x80000000
 800051c:	f021 4100 	bic.w	r1, r1, #2147483648	@ 0x80000000
 8000520:	e71c      	b.n	800035c <__adddf3+0x138>
 8000522:	bf00      	nop

08000524 <__aeabi_ul2d>:
 8000524:	ea50 0201 	orrs.w	r2, r0, r1
 8000528:	bf08      	it	eq
 800052a:	4770      	bxeq	lr
 800052c:	b530      	push	{r4, r5, lr}
 800052e:	f04f 0500 	mov.w	r5, #0
 8000532:	e00a      	b.n	800054a <__aeabi_l2d+0x16>

08000534 <__aeabi_l2d>:
 8000534:	ea50 0201 	orrs.w	r2, r0, r1
 8000538:	bf08      	it	eq
 800053a:	4770      	bxeq	lr
 800053c:	b530      	push	{r4, r5, lr}
 800053e:	f011 4500 	ands.w	r5, r1, #2147483648	@ 0x80000000
 8000542:	d502      	bpl.n	800054a <__aeabi_l2d+0x16>
 8000544:	4240      	negs	r0, r0
 8000546:	eb61 0141 	sbc.w	r1, r1, r1, lsl #1
 800054a:	f44f 6480 	mov.w	r4, #1024	@ 0x400
 800054e:	f104 0432 	add.w	r4, r4, #50	@ 0x32
 8000552:	ea5f 5c91 	movs.w	ip, r1, lsr #22
 8000556:	f43f aed8 	beq.w	800030a <__adddf3+0xe6>
 800055a:	f04f 0203 	mov.w	r2, #3
 800055e:	ea5f 0cdc 	movs.w	ip, ip, lsr #3
 8000562:	bf18      	it	ne
 8000564:	3203      	addne	r2, #3
 8000566:	ea5f 0cdc 	movs.w	ip, ip, lsr #3
 800056a:	bf18      	it	ne
 800056c:	3203      	addne	r2, #3
 800056e:	eb02 02dc 	add.w	r2, r2, ip, lsr #3
 8000572:	f1c2 0320 	rsb	r3, r2, #32
 8000576:	fa00 fc03 	lsl.w	ip, r0, r3
 800057a:	fa20 f002 	lsr.w	r0, r0, r2
 800057e:	fa01 fe03 	lsl.w	lr, r1, r3
 8000582:	ea40 000e 	orr.w	r0, r0, lr
 8000586:	fa21 f102 	lsr.w	r1, r1, r2
 800058a:	4414      	add	r4, r2
 800058c:	e6bd      	b.n	800030a <__adddf3+0xe6>
 800058e:	bf00      	nop

08000590 <__aeabi_dmul>:
 8000590:	b570      	push	{r4, r5, r6, lr}
 8000592:	f04f 0cff 	mov.w	ip, #255	@ 0xff
 8000596:	f44c 6ce0 	orr.w	ip, ip, #1792	@ 0x700
 800059a:	ea1c 5411 	ands.w	r4, ip, r1, lsr #20
 800059e:	bf1d      	ittte	ne
 80005a0:	ea1c 5513 	andsne.w	r5, ip, r3, lsr #20
 80005a4:	ea94 0f0c 	teqne	r4, ip
 80005a8:	ea95 0f0c 	teqne	r5, ip
 80005ac:	f000 f8de 	bleq	800076c <__aeabi_dmul+0x1dc>
 80005b0:	442c      	add	r4, r5
 80005b2:	ea81 0603 	eor.w	r6, r1, r3
 80005b6:	ea21 514c 	bic.w	r1, r1, ip, lsl #21
 80005ba:	ea23 534c 	bic.w	r3, r3, ip, lsl #21
 80005be:	ea50 3501 	orrs.w	r5, r0, r1, lsl #12
 80005c2:	bf18      	it	ne
 80005c4:	ea52 3503 	orrsne.w	r5, r2, r3, lsl #12
 80005c8:	f441 1180 	orr.w	r1, r1, #1048576	@ 0x100000
 80005cc:	f443 1380 	orr.w	r3, r3, #1048576	@ 0x100000
 80005d0:	d038      	beq.n	8000644 <__aeabi_dmul+0xb4>
 80005d2:	fba0 ce02 	umull	ip, lr, r0, r2
 80005d6:	f04f 0500 	mov.w	r5, #0
 80005da:	fbe1 e502 	umlal	lr, r5, r1, r2
 80005de:	f006 4200 	and.w	r2, r6, #2147483648	@ 0x80000000
 80005e2:	fbe0 e503 	umlal	lr, r5, r0, r3
 80005e6:	f04f 0600 	mov.w	r6, #0
 80005ea:	fbe1 5603 	umlal	r5, r6, r1, r3
 80005ee:	f09c 0f00 	teq	ip, #0
 80005f2:	bf18      	it	ne
 80005f4:	f04e 0e01 	orrne.w	lr, lr, #1
 80005f8:	f1a4 04ff 	sub.w	r4, r4, #255	@ 0xff
 80005fc:	f5b6 7f00 	cmp.w	r6, #512	@ 0x200
 8000600:	f564 7440 	sbc.w	r4, r4, #768	@ 0x300
 8000604:	d204      	bcs.n	8000610 <__aeabi_dmul+0x80>
 8000606:	ea5f 0e4e 	movs.w	lr, lr, lsl #1
 800060a:	416d      	adcs	r5, r5
 800060c:	eb46 0606 	adc.w	r6, r6, r6
 8000610:	ea42 21c6 	orr.w	r1, r2, r6, lsl #11
 8000614:	ea41 5155 	orr.w	r1, r1, r5, lsr #21
 8000618:	ea4f 20c5 	mov.w	r0, r5, lsl #11
 800061c:	ea40 505e 	orr.w	r0, r0, lr, lsr #21
 8000620:	ea4f 2ece 	mov.w	lr, lr, lsl #11
 8000624:	f1b4 0cfd 	subs.w	ip, r4, #253	@ 0xfd
 8000628:	bf88      	it	hi
 800062a:	f5bc 6fe0 	cmphi.w	ip, #1792	@ 0x700
 800062e:	d81e      	bhi.n	800066e <__aeabi_dmul+0xde>
 8000630:	f1be 4f00 	cmp.w	lr, #2147483648	@ 0x80000000
 8000634:	bf08      	it	eq
 8000636:	ea5f 0e50 	movseq.w	lr, r0, lsr #1
 800063a:	f150 0000 	adcs.w	r0, r0, #0
 800063e:	eb41 5104 	adc.w	r1, r1, r4, lsl #20
 8000642:	bd70      	pop	{r4, r5, r6, pc}
 8000644:	f006 4600 	and.w	r6, r6, #2147483648	@ 0x80000000
 8000648:	ea46 0101 	orr.w	r1, r6, r1
 800064c:	ea40 0002 	orr.w	r0, r0, r2
 8000650:	ea81 0103 	eor.w	r1, r1, r3
 8000654:	ebb4 045c 	subs.w	r4, r4, ip, lsr #1
 8000658:	bfc2      	ittt	gt
 800065a:	ebd4 050c 	rsbsgt	r5, r4, ip
 800065e:	ea41 5104 	orrgt.w	r1, r1, r4, lsl #20
 8000662:	bd70      	popgt	{r4, r5, r6, pc}
 8000664:	f441 1180 	orr.w	r1, r1, #1048576	@ 0x100000
 8000668:	f04f 0e00 	mov.w	lr, #0
 800066c:	3c01      	subs	r4, #1
 800066e:	f300 80ab 	bgt.w	80007c8 <__aeabi_dmul+0x238>
 8000672:	f114 0f36 	cmn.w	r4, #54	@ 0x36
 8000676:	bfde      	ittt	le
 8000678:	2000      	movle	r0, #0
 800067a:	f001 4100 	andle.w	r1, r1, #2147483648	@ 0x80000000
 800067e:	bd70      	pople	{r4, r5, r6, pc}
 8000680:	f1c4 0400 	rsb	r4, r4, #0
 8000684:	3c20      	subs	r4, #32
 8000686:	da35      	bge.n	80006f4 <__aeabi_dmul+0x164>
 8000688:	340c      	adds	r4, #12
 800068a:	dc1b      	bgt.n	80006c4 <__aeabi_dmul+0x134>
 800068c:	f104 0414 	add.w	r4, r4, #20
 8000690:	f1c4 0520 	rsb	r5, r4, #32
 8000694:	fa00 f305 	lsl.w	r3, r0, r5
 8000698:	fa20 f004 	lsr.w	r0, r0, r4
 800069c:	fa01 f205 	lsl.w	r2, r1, r5
 80006a0:	ea40 0002 	orr.w	r0, r0, r2
 80006a4:	f001 4200 	and.w	r2, r1, #2147483648	@ 0x80000000
 80006a8:	f021 4100 	bic.w	r1, r1, #2147483648	@ 0x80000000
 80006ac:	eb10 70d3 	adds.w	r0, r0, r3, lsr #31
 80006b0:	fa21 f604 	lsr.w	r6, r1, r4
 80006b4:	eb42 0106 	adc.w	r1, r2, r6
 80006b8:	ea5e 0e43 	orrs.w	lr, lr, r3, lsl #1
 80006bc:	bf08      	it	eq
 80006be:	ea20 70d3 	biceq.w	r0, r0, r3, lsr #31
 80006c2:	bd70      	pop	{r4, r5, r6, pc}
 80006c4:	f1c4 040c 	rsb	r4, r4, #12
 80006c8:	f1c4 0520 	rsb	r5, r4, #32
 80006cc:	fa00 f304 	lsl.w	r3, r0, r4
 80006d0:	fa20 f005 	lsr.w	r0, r0, r5
 80006d4:	fa01 f204 	lsl.w	r2, r1, r4
 80006d8:	ea40 0002 	orr.w	r0, r0, r2
 80006dc:	f001 4100 	and.w	r1, r1, #2147483648	@ 0x80000000
 80006e0:	eb10 70d3 	adds.w	r0, r0, r3, lsr #31
 80006e4:	f141 0100 	adc.w	r1, r1, #0
 80006e8:	ea5e 0e43 	orrs.w	lr, lr, r3, lsl #1
 80006ec:	bf08      	it	eq
 80006ee:	ea20 70d3 	biceq.w	r0, r0, r3, lsr #31
 80006f2:	bd70      	pop	{r4, r5, r6, pc}
 80006f4:	f1c4 0520 	rsb	r5, r4, #32
 80006f8:	fa00 f205 	lsl.w	r2, r0, r5
 80006fc:	ea4e 0e02 	orr.w	lr, lr, r2
 8000700:	fa20 f304 	lsr.w	r3, r0, r4
 8000704:	fa01 f205 	lsl.w	r2, r1, r5
 8000708:	ea43 0302 	orr.w	r3, r3, r2
 800070c:	fa21 f004 	lsr.w	r0, r1, r4
 8000710:	f001 4100 	and.w	r1, r1, #2147483648	@ 0x80000000
 8000714:	fa21 f204 	lsr.w	r2, r1, r4
 8000718:	ea20 0002 	bic.w	r0, r0, r2
 800071c:	eb00 70d3 	add.w	r0, r0, r3, lsr #31
 8000720:	ea5e 0e43 	orrs.w	lr, lr, r3, lsl #1
 8000724:	bf08      	it	eq
 8000726:	ea20 70d3 	biceq.w	r0, r0, r3, lsr #31
 800072a:	bd70      	pop	{r4, r5, r6, pc}
 800072c:	f094 0f00 	teq	r4, #0
 8000730:	d10f      	bne.n	8000752 <__aeabi_dmul+0x1c2>
 8000732:	f001 4600 	and.w	r6, r1, #2147483648	@ 0x80000000
 8000736:	0040      	lsls	r0, r0, #1
 8000738:	eb41 0101 	adc.w	r1, r1, r1
 800073c:	f411 1f80 	tst.w	r1, #1048576	@ 0x100000
 8000740:	bf08      	it	eq
 8000742:	3c01      	subeq	r4, #1
 8000744:	d0f7      	beq.n	8000736 <__aeabi_dmul+0x1a6>
 8000746:	ea41 0106 	orr.w	r1, r1, r6
 800074a:	f095 0f00 	teq	r5, #0
 800074e:	bf18      	it	ne
 8000750:	4770      	bxne	lr
 8000752:	f003 4600 	and.w	r6, r3, #2147483648	@ 0x80000000
 8000756:	0052      	lsls	r2, r2, #1
 8000758:	eb43 0303 	adc.w	r3, r3, r3
 800075c:	f413 1f80 	tst.w	r3, #1048576	@ 0x100000
 8000760:	bf08      	it	eq
 8000762:	3d01      	subeq	r5, #1
 8000764:	d0f7      	beq.n	8000756 <__aeabi_dmul+0x1c6>
 8000766:	ea43 0306 	orr.w	r3, r3, r6
 800076a:	4770      	bx	lr
 800076c:	ea94 0f0c 	teq	r4, ip
 8000770:	ea0c 5513 	and.w	r5, ip, r3, lsr #20
 8000774:	bf18      	it	ne
 8000776:	ea95 0f0c 	teqne	r5, ip
 800077a:	d00c      	beq.n	8000796 <__aeabi_dmul+0x206>
 800077c:	ea50 0641 	orrs.w	r6, r0, r1, lsl #1
 8000780:	bf18      	it	ne
 8000782:	ea52 0643 	orrsne.w	r6, r2, r3, lsl #1
 8000786:	d1d1      	bne.n	800072c <__aeabi_dmul+0x19c>
 8000788:	ea81 0103 	eor.w	r1, r1, r3
 800078c:	f001 4100 	and.w	r1, r1, #2147483648	@ 0x80000000
 8000790:	f04f 0000 	mov.w	r0, #0
 8000794:	bd70      	pop	{r4, r5, r6, pc}
 8000796:	ea50 0641 	orrs.w	r6, r0, r1, lsl #1
 800079a:	bf06      	itte	eq
 800079c:	4610      	moveq	r0, r2
 800079e:	4619      	moveq	r1, r3
 80007a0:	ea52 0643 	orrsne.w	r6, r2, r3, lsl #1
 80007a4:	d019      	beq.n	80007da <__aeabi_dmul+0x24a>
 80007a6:	ea94 0f0c 	teq	r4, ip
 80007aa:	d102      	bne.n	80007b2 <__aeabi_dmul+0x222>
 80007ac:	ea50 3601 	orrs.w	r6, r0, r1, lsl #12
 80007b0:	d113      	bne.n	80007da <__aeabi_dmul+0x24a>
 80007b2:	ea95 0f0c 	teq	r5, ip
 80007b6:	d105      	bne.n	80007c4 <__aeabi_dmul+0x234>
 80007b8:	ea52 3603 	orrs.w	r6, r2, r3, lsl #12
 80007bc:	bf1c      	itt	ne
 80007be:	4610      	movne	r0, r2
 80007c0:	4619      	movne	r1, r3
 80007c2:	d10a      	bne.n	80007da <__aeabi_dmul+0x24a>
 80007c4:	ea81 0103 	eor.w	r1, r1, r3
 80007c8:	f001 4100 	and.w	r1, r1, #2147483648	@ 0x80000000
 80007cc:	f041 41fe 	orr.w	r1, r1, #2130706432	@ 0x7f000000
 80007d0:	f441 0170 	orr.w	r1, r1, #15728640	@ 0xf00000
 80007d4:	f04f 0000 	mov.w	r0, #0
 80007d8:	bd70      	pop	{r4, r5, r6, pc}
 80007da:	f041 41fe 	orr.w	r1, r1, #2130706432	@ 0x7f000000
 80007de:	f441 0178 	orr.w	r1, r1, #16252928	@ 0xf80000
 80007e2:	bd70      	pop	{r4, r5, r6, pc}

080007e4 <__aeabi_ddiv>:
 80007e4:	b570      	push	{r4, r5, r6, lr}
 80007e6:	f04f 0cff 	mov.w	ip, #255	@ 0xff
 80007ea:	f44c 6ce0 	orr.w	ip, ip, #1792	@ 0x700
 80007ee:	ea1c 5411 	ands.w	r4, ip, r1, lsr #20
 80007f2:	bf1d      	ittte	ne
 80007f4:	ea1c 5513 	andsne.w	r5, ip, r3, lsr #20
 80007f8:	ea94 0f0c 	teqne	r4, ip
 80007fc:	ea95 0f0c 	teqne	r5, ip
 8000800:	f000 f8a7 	bleq	8000952 <__aeabi_ddiv+0x16e>
 8000804:	eba4 0405 	sub.w	r4, r4, r5
 8000808:	ea81 0e03 	eor.w	lr, r1, r3
 800080c:	ea52 3503 	orrs.w	r5, r2, r3, lsl #12
 8000810:	ea4f 3101 	mov.w	r1, r1, lsl #12
 8000814:	f000 8088 	beq.w	8000928 <__aeabi_ddiv+0x144>
 8000818:	ea4f 3303 	mov.w	r3, r3, lsl #12
 800081c:	f04f 5580 	mov.w	r5, #268435456	@ 0x10000000
 8000820:	ea45 1313 	orr.w	r3, r5, r3, lsr #4
 8000824:	ea43 6312 	orr.w	r3, r3, r2, lsr #24
 8000828:	ea4f 2202 	mov.w	r2, r2, lsl #8
 800082c:	ea45 1511 	orr.w	r5, r5, r1, lsr #4
 8000830:	ea45 6510 	orr.w	r5, r5, r0, lsr #24
 8000834:	ea4f 2600 	mov.w	r6, r0, lsl #8
 8000838:	f00e 4100 	and.w	r1, lr, #2147483648	@ 0x80000000
 800083c:	429d      	cmp	r5, r3
 800083e:	bf08      	it	eq
 8000840:	4296      	cmpeq	r6, r2
 8000842:	f144 04fd 	adc.w	r4, r4, #253	@ 0xfd
 8000846:	f504 7440 	add.w	r4, r4, #768	@ 0x300
 800084a:	d202      	bcs.n	8000852 <__aeabi_ddiv+0x6e>
 800084c:	085b      	lsrs	r3, r3, #1
 800084e:	ea4f 0232 	mov.w	r2, r2, rrx
 8000852:	1ab6      	subs	r6, r6, r2
 8000854:	eb65 0503 	sbc.w	r5, r5, r3
 8000858:	085b      	lsrs	r3, r3, #1
 800085a:	ea4f 0232 	mov.w	r2, r2, rrx
 800085e:	f44f 1080 	mov.w	r0, #1048576	@ 0x100000
 8000862:	f44f 2c00 	mov.w	ip, #524288	@ 0x80000
 8000866:	ebb6 0e02 	subs.w	lr, r6, r2
 800086a:	eb75 0e03 	sbcs.w	lr, r5, r3
 800086e:	bf22      	ittt	cs
 8000870:	1ab6      	subcs	r6, r6, r2
 8000872:	4675      	movcs	r5, lr
 8000874:	ea40 000c 	orrcs.w	r0, r0, ip
 8000878:	085b      	lsrs	r3, r3, #1
 800087a:	ea4f 0232 	mov.w	r2, r2, rrx
 800087e:	ebb6 0e02 	subs.w	lr, r6, r2
 8000882:	eb75 0e03 	sbcs.w	lr, r5, r3
 8000886:	bf22      	ittt	cs
 8000888:	1ab6      	subcs	r6, r6, r2
 800088a:	4675      	movcs	r5, lr
 800088c:	ea40 005c 	orrcs.w	r0, r0, ip, lsr #1
 8000890:	085b      	lsrs	r3, r3, #1
 8000892:	ea4f 0232 	mov.w	r2, r2, rrx
 8000896:	ebb6 0e02 	subs.w	lr, r6, r2
 800089a:	eb75 0e03 	sbcs.w	lr, r5, r3
 800089e:	bf22      	ittt	cs
 80008a0:	1ab6      	subcs	r6, r6, r2
 80008a2:	4675      	movcs	r5, lr
 80008a4:	ea40 009c 	orrcs.w	r0, r0, ip, lsr #2
 80008a8:	085b      	lsrs	r3, r3, #1
 80008aa:	ea4f 0232 	mov.w	r2, r2, rrx
 80008ae:	ebb6 0e02 	subs.w	lr, r6, r2
 80008b2:	eb75 0e03 	sbcs.w	lr, r5, r3
 80008b6:	bf22      	ittt	cs
 80008b8:	1ab6      	subcs	r6, r6, r2
 80008ba:	4675      	movcs	r5, lr
 80008bc:	ea40 00dc 	orrcs.w	r0, r0, ip, lsr #3
 80008c0:	ea55 0e06 	orrs.w	lr, r5, r6
 80008c4:	d018      	beq.n	80008f8 <__aeabi_ddiv+0x114>
 80008c6:	ea4f 1505 	mov.w	r5, r5, lsl #4
 80008ca:	ea45 7516 	orr.w	r5, r5, r6, lsr #28
 80008ce:	ea4f 1606 	mov.w	r6, r6, lsl #4
 80008d2:	ea4f 03c3 	mov.w	r3, r3, lsl #3
 80008d6:	ea43 7352 	orr.w	r3, r3, r2, lsr #29
 80008da:	ea4f 02c2 	mov.w	r2, r2, lsl #3
 80008de:	ea5f 1c1c 	movs.w	ip, ip, lsr #4
 80008e2:	d1c0      	bne.n	8000866 <__aeabi_ddiv+0x82>
 80008e4:	f411 1f80 	tst.w	r1, #1048576	@ 0x100000
 80008e8:	d10b      	bne.n	8000902 <__aeabi_ddiv+0x11e>
 80008ea:	ea41 0100 	orr.w	r1, r1, r0
 80008ee:	f04f 0000 	mov.w	r0, #0
 80008f2:	f04f 4c00 	mov.w	ip, #2147483648	@ 0x80000000
 80008f6:	e7b6      	b.n	8000866 <__aeabi_ddiv+0x82>
 80008f8:	f411 1f80 	tst.w	r1, #1048576	@ 0x100000
 80008fc:	bf04      	itt	eq
 80008fe:	4301      	orreq	r1, r0
 8000900:	2000      	moveq	r0, #0
 8000902:	f1b4 0cfd 	subs.w	ip, r4, #253	@ 0xfd
 8000906:	bf88      	it	hi
 8000908:	f5bc 6fe0 	cmphi.w	ip, #1792	@ 0x700
 800090c:	f63f aeaf 	bhi.w	800066e <__aeabi_dmul+0xde>
 8000910:	ebb5 0c03 	subs.w	ip, r5, r3
 8000914:	bf04      	itt	eq
 8000916:	ebb6 0c02 	subseq.w	ip, r6, r2
 800091a:	ea5f 0c50 	movseq.w	ip, r0, lsr #1
 800091e:	f150 0000 	adcs.w	r0, r0, #0
 8000922:	eb41 5104 	adc.w	r1, r1, r4, lsl #20
 8000926:	bd70      	pop	{r4, r5, r6, pc}
 8000928:	f00e 4e00 	and.w	lr, lr, #2147483648	@ 0x80000000
 800092c:	ea4e 3111 	orr.w	r1, lr, r1, lsr #12
 8000930:	eb14 045c 	adds.w	r4, r4, ip, lsr #1
 8000934:	bfc2      	ittt	gt
 8000936:	ebd4 050c 	rsbsgt	r5, r4, ip
 800093a:	ea41 5104 	orrgt.w	r1, r1, r4, lsl #20
 800093e:	bd70      	popgt	{r4, r5, r6, pc}
 8000940:	f441 1180 	orr.w	r1, r1, #1048576	@ 0x100000
 8000944:	f04f 0e00 	mov.w	lr, #0
 8000948:	3c01      	subs	r4, #1
 800094a:	e690      	b.n	800066e <__aeabi_dmul+0xde>
 800094c:	ea45 0e06 	orr.w	lr, r5, r6
 8000950:	e68d      	b.n	800066e <__aeabi_dmul+0xde>
 8000952:	ea0c 5513 	and.w	r5, ip, r3, lsr #20
 8000956:	ea94 0f0c 	teq	r4, ip
 800095a:	bf08      	it	eq
 800095c:	ea95 0f0c 	teqeq	r5, ip
 8000960:	f43f af3b 	beq.w	80007da <__aeabi_dmul+0x24a>
 8000964:	ea94 0f0c 	teq	r4, ip
 8000968:	d10a      	bne.n	8000980 <__aeabi_ddiv+0x19c>
 800096a:	ea50 3401 	orrs.w	r4, r0, r1, lsl #12
 800096e:	f47f af34 	bne.w	80007da <__aeabi_dmul+0x24a>
 8000972:	ea95 0f0c 	teq	r5, ip
 8000976:	f47f af25 	bne.w	80007c4 <__aeabi_dmul+0x234>
 800097a:	4610      	mov	r0, r2
 800097c:	4619      	mov	r1, r3
 800097e:	e72c      	b.n	80007da <__aeabi_dmul+0x24a>
 8000980:	ea95 0f0c 	teq	r5, ip
 8000984:	d106      	bne.n	8000994 <__aeabi_ddiv+0x1b0>
 8000986:	ea52 3503 	orrs.w	r5, r2, r3, lsl #12
 800098a:	f43f aefd 	beq.w	8000788 <__aeabi_dmul+0x1f8>
 800098e:	4610      	mov	r0, r2
 8000990:	4619      	mov	r1, r3
 8000992:	e722      	b.n	80007da <__aeabi_dmul+0x24a>
 8000994:	ea50 0641 	orrs.w	r6, r0, r1, lsl #1
 8000998:	bf18      	it	ne
 800099a:	ea52 0643 	orrsne.w	r6, r2, r3, lsl #1
 800099e:	f47f aec5 	bne.w	800072c <__aeabi_dmul+0x19c>
 80009a2:	ea50 0441 	orrs.w	r4, r0, r1, lsl #1
 80009a6:	f47f af0d 	bne.w	80007c4 <__aeabi_dmul+0x234>
 80009aa:	ea52 0543 	orrs.w	r5, r2, r3, lsl #1
 80009ae:	f47f aeeb 	bne.w	8000788 <__aeabi_dmul+0x1f8>
 80009b2:	e712      	b.n	80007da <__aeabi_dmul+0x24a>

080009b4 <__gedf2>:
 80009b4:	f04f 3cff 	mov.w	ip, #4294967295	@ 0xffffffff
 80009b8:	e006      	b.n	80009c8 <__cmpdf2+0x4>
 80009ba:	bf00      	nop

080009bc <__ledf2>:
 80009bc:	f04f 0c01 	mov.w	ip, #1
 80009c0:	e002      	b.n	80009c8 <__cmpdf2+0x4>
 80009c2:	bf00      	nop

080009c4 <__cmpdf2>:
 80009c4:	f04f 0c01 	mov.w	ip, #1
 80009c8:	f84d cd04 	str.w	ip, [sp, #-4]!
 80009cc:	ea4f 0c41 	mov.w	ip, r1, lsl #1
 80009d0:	ea7f 5c6c 	mvns.w	ip, ip, asr #21
 80009d4:	ea4f 0c43 	mov.w	ip, r3, lsl #1
 80009d8:	bf18      	it	ne
 80009da:	ea7f 5c6c 	mvnsne.w	ip, ip, asr #21
 80009de:	d01b      	beq.n	8000a18 <__cmpdf2+0x54>
 80009e0:	b001      	add	sp, #4
 80009e2:	ea50 0c41 	orrs.w	ip, r0, r1, lsl #1
 80009e6:	bf0c      	ite	eq
 80009e8:	ea52 0c43 	orrseq.w	ip, r2, r3, lsl #1
 80009ec:	ea91 0f03 	teqne	r1, r3
 80009f0:	bf02      	ittt	eq
 80009f2:	ea90 0f02 	teqeq	r0, r2
 80009f6:	2000      	moveq	r0, #0
 80009f8:	4770      	bxeq	lr
 80009fa:	f110 0f00 	cmn.w	r0, #0
 80009fe:	ea91 0f03 	teq	r1, r3
 8000a02:	bf58      	it	pl
 8000a04:	4299      	cmppl	r1, r3
 8000a06:	bf08      	it	eq
 8000a08:	4290      	cmpeq	r0, r2
 8000a0a:	bf2c      	ite	cs
 8000a0c:	17d8      	asrcs	r0, r3, #31
 8000a0e:	ea6f 70e3 	mvncc.w	r0, r3, asr #31
 8000a12:	f040 0001 	orr.w	r0, r0, #1
 8000a16:	4770      	bx	lr
 8000a18:	ea4f 0c41 	mov.w	ip, r1, lsl #1
 8000a1c:	ea7f 5c6c 	mvns.w	ip, ip, asr #21
 8000a20:	d102      	bne.n	8000a28 <__cmpdf2+0x64>
 8000a22:	ea50 3c01 	orrs.w	ip, r0, r1, lsl #12
 8000a26:	d107      	bne.n	8000a38 <__cmpdf2+0x74>
 8000a28:	ea4f 0c43 	mov.w	ip, r3, lsl #1
 8000a2c:	ea7f 5c6c 	mvns.w	ip, ip, asr #21
 8000a30:	d1d6      	bne.n	80009e0 <__cmpdf2+0x1c>
 8000a32:	ea52 3c03 	orrs.w	ip, r2, r3, lsl #12
 8000a36:	d0d3      	beq.n	80009e0 <__cmpdf2+0x1c>
 8000a38:	f85d 0b04 	ldr.w	r0, [sp], #4
 8000a3c:	4770      	bx	lr
 8000a3e:	bf00      	nop

08000a40 <__aeabi_cdrcmple>:
 8000a40:	4684      	mov	ip, r0
 8000a42:	4610      	mov	r0, r2
 8000a44:	4662      	mov	r2, ip
 8000a46:	468c      	mov	ip, r1
 8000a48:	4619      	mov	r1, r3
 8000a4a:	4663      	mov	r3, ip
 8000a4c:	e000      	b.n	8000a50 <__aeabi_cdcmpeq>
 8000a4e:	bf00      	nop

08000a50 <__aeabi_cdcmpeq>:
 8000a50:	b501      	push	{r0, lr}
 8000a52:	f7ff ffb7 	bl	80009c4 <__cmpdf2>
 8000a56:	2800      	cmp	r0, #0
 8000a58:	bf48      	it	mi
 8000a5a:	f110 0f00 	cmnmi.w	r0, #0
 8000a5e:	bd01      	pop	{r0, pc}

08000a60 <__aeabi_dcmpeq>:
 8000a60:	f84d ed08 	str.w	lr, [sp, #-8]!
 8000a64:	f7ff fff4 	bl	8000a50 <__aeabi_cdcmpeq>
 8000a68:	bf0c      	ite	eq
 8000a6a:	2001      	moveq	r0, #1
 8000a6c:	2000      	movne	r0, #0
 8000a6e:	f85d fb08 	ldr.w	pc, [sp], #8
 8000a72:	bf00      	nop

08000a74 <__aeabi_dcmplt>:
 8000a74:	f84d ed08 	str.w	lr, [sp, #-8]!
 8000a78:	f7ff ffea 	bl	8000a50 <__aeabi_cdcmpeq>
 8000a7c:	bf34      	ite	cc
 8000a7e:	2001      	movcc	r0, #1
 8000a80:	2000      	movcs	r0, #0
 8000a82:	f85d fb08 	ldr.w	pc, [sp], #8
 8000a86:	bf00      	nop

08000a88 <__aeabi_dcmple>:
 8000a88:	f84d ed08 	str.w	lr, [sp, #-8]!
 8000a8c:	f7ff ffe0 	bl	8000a50 <__aeabi_cdcmpeq>
 8000a90:	bf94      	ite	ls
 8000a92:	2001      	movls	r0, #1
 8000a94:	2000      	movhi	r0, #0
 8000a96:	f85d fb08 	ldr.w	pc, [sp], #8
 8000a9a:	bf00      	nop

08000a9c <__aeabi_dcmpge>:
 8000a9c:	f84d ed08 	str.w	lr, [sp, #-8]!
 8000aa0:	f7ff ffce 	bl	8000a40 <__aeabi_cdrcmple>
 8000aa4:	bf94      	ite	ls
 8000aa6:	2001      	movls	r0, #1
 8000aa8:	2000      	movhi	r0, #0
 8000aaa:	f85d fb08 	ldr.w	pc, [sp], #8
 8000aae:	bf00      	nop

08000ab0 <__aeabi_dcmpgt>:
 8000ab0:	f84d ed08 	str.w	lr, [sp, #-8]!
 8000ab4:	f7ff ffc4 	bl	8000a40 <__aeabi_cdrcmple>
 8000ab8:	bf34      	ite	cc
 8000aba:	2001      	movcc	r0, #1
 8000abc:	2000      	movcs	r0, #0
 8000abe:	f85d fb08 	ldr.w	pc, [sp], #8
 8000ac2:	bf00      	nop

08000ac4 <__aeabi_d2iz>:
 8000ac4:	ea4f 0241 	mov.w	r2, r1, lsl #1
 8000ac8:	f512 1200 	adds.w	r2, r2, #2097152	@ 0x200000
 8000acc:	d215      	bcs.n	8000afa <__aeabi_d2iz+0x36>
 8000ace:	d511      	bpl.n	8000af4 <__aeabi_d2iz+0x30>
 8000ad0:	f46f 7378 	mvn.w	r3, #992	@ 0x3e0
 8000ad4:	ebb3 5262 	subs.w	r2, r3, r2, asr #21
 8000ad8:	d912      	bls.n	8000b00 <__aeabi_d2iz+0x3c>
 8000ada:	ea4f 23c1 	mov.w	r3, r1, lsl #11
 8000ade:	f043 4300 	orr.w	r3, r3, #2147483648	@ 0x80000000
 8000ae2:	ea43 5350 	orr.w	r3, r3, r0, lsr #21
 8000ae6:	f011 4f00 	tst.w	r1, #2147483648	@ 0x80000000
 8000aea:	fa23 f002 	lsr.w	r0, r3, r2
 8000aee:	bf18      	it	ne
 8000af0:	4240      	negne	r0, r0
 8000af2:	4770      	bx	lr
 8000af4:	f04f 0000 	mov.w	r0, #0
 8000af8:	4770      	bx	lr
 8000afa:	ea50 3001 	orrs.w	r0, r0, r1, lsl #12
 8000afe:	d105      	bne.n	8000b0c <__aeabi_d2iz+0x48>
 8000b00:	f011 4000 	ands.w	r0, r1, #2147483648	@ 0x80000000
 8000b04:	bf08      	it	eq
 8000b06:	f06f 4000 	mvneq.w	r0, #2147483648	@ 0x80000000
 8000b0a:	4770      	bx	lr
 8000b0c:	f04f 0000 	mov.w	r0, #0
 8000b10:	4770      	bx	lr
 8000b12:	bf00      	nop

08000b14 <__aeabi_d2uiz>:
 8000b14:	004a      	lsls	r2, r1, #1
 8000b16:	d211      	bcs.n	8000b3c <__aeabi_d2uiz+0x28>
 8000b18:	f512 1200 	adds.w	r2, r2, #2097152	@ 0x200000
 8000b1c:	d211      	bcs.n	8000b42 <__aeabi_d2uiz+0x2e>
 8000b1e:	d50d      	bpl.n	8000b3c <__aeabi_d2uiz+0x28>
 8000b20:	f46f 7378 	mvn.w	r3, #992	@ 0x3e0
 8000b24:	ebb3 5262 	subs.w	r2, r3, r2, asr #21
 8000b28:	d40e      	bmi.n	8000b48 <__aeabi_d2uiz+0x34>
 8000b2a:	ea4f 23c1 	mov.w	r3, r1, lsl #11
 8000b2e:	f043 4300 	orr.w	r3, r3, #2147483648	@ 0x80000000
 8000b32:	ea43 5350 	orr.w	r3, r3, r0, lsr #21
 8000b36:	fa23 f002 	lsr.w	r0, r3, r2
 8000b3a:	4770      	bx	lr
 8000b3c:	f04f 0000 	mov.w	r0, #0
 8000b40:	4770      	bx	lr
 8000b42:	ea50 3001 	orrs.w	r0, r0, r1, lsl #12
 8000b46:	d102      	bne.n	8000b4e <__aeabi_d2uiz+0x3a>
 8000b48:	f04f 30ff 	mov.w	r0, #4294967295	@ 0xffffffff
 8000b4c:	4770      	bx	lr
 8000b4e:	f04f 0000 	mov.w	r0, #0
 8000b52:	4770      	bx	lr

08000b54 <__aeabi_d2f>:
 8000b54:	ea4f 0241 	mov.w	r2, r1, lsl #1
 8000b58:	f1b2 43e0 	subs.w	r3, r2, #1879048192	@ 0x70000000
 8000b5c:	bf24      	itt	cs
 8000b5e:	f5b3 1c00 	subscs.w	ip, r3, #2097152	@ 0x200000
 8000b62:	f1dc 5cfe 	rsbscs	ip, ip, #532676608	@ 0x1fc00000
 8000b66:	d90d      	bls.n	8000b84 <__aeabi_d2f+0x30>
 8000b68:	f001 4c00 	and.w	ip, r1, #2147483648	@ 0x80000000
 8000b6c:	ea4f 02c0 	mov.w	r2, r0, lsl #3
 8000b70:	ea4c 7050 	orr.w	r0, ip, r0, lsr #29
 8000b74:	f1b2 4f00 	cmp.w	r2, #2147483648	@ 0x80000000
 8000b78:	eb40 0083 	adc.w	r0, r0, r3, lsl #2
 8000b7c:	bf08      	it	eq
 8000b7e:	f020 0001 	biceq.w	r0, r0, #1
 8000b82:	4770      	bx	lr
 8000b84:	f011 4f80 	tst.w	r1, #1073741824	@ 0x40000000
 8000b88:	d121      	bne.n	8000bce <__aeabi_d2f+0x7a>
 8000b8a:	f113 7238 	adds.w	r2, r3, #48234496	@ 0x2e00000
 8000b8e:	bfbc      	itt	lt
 8000b90:	f001 4000 	andlt.w	r0, r1, #2147483648	@ 0x80000000
 8000b94:	4770      	bxlt	lr
 8000b96:	f441 1180 	orr.w	r1, r1, #1048576	@ 0x100000
 8000b9a:	ea4f 5252 	mov.w	r2, r2, lsr #21
 8000b9e:	f1c2 0218 	rsb	r2, r2, #24
 8000ba2:	f1c2 0c20 	rsb	ip, r2, #32
 8000ba6:	fa10 f30c 	lsls.w	r3, r0, ip
 8000baa:	fa20 f002 	lsr.w	r0, r0, r2
 8000bae:	bf18      	it	ne
 8000bb0:	f040 0001 	orrne.w	r0, r0, #1
 8000bb4:	ea4f 23c1 	mov.w	r3, r1, lsl #11
 8000bb8:	ea4f 23d3 	mov.w	r3, r3, lsr #11
 8000bbc:	fa03 fc0c 	lsl.w	ip, r3, ip
 8000bc0:	ea40 000c 	orr.w	r0, r0, ip
 8000bc4:	fa23 f302 	lsr.w	r3, r3, r2
 8000bc8:	ea4f 0343 	mov.w	r3, r3, lsl #1
 8000bcc:	e7cc      	b.n	8000b68 <__aeabi_d2f+0x14>
 8000bce:	ea7f 5362 	mvns.w	r3, r2, asr #21
 8000bd2:	d107      	bne.n	8000be4 <__aeabi_d2f+0x90>
 8000bd4:	ea50 3301 	orrs.w	r3, r0, r1, lsl #12
 8000bd8:	bf1e      	ittt	ne
 8000bda:	f04f 40fe 	movne.w	r0, #2130706432	@ 0x7f000000
 8000bde:	f440 0040 	orrne.w	r0, r0, #12582912	@ 0xc00000
 8000be2:	4770      	bxne	lr
 8000be4:	f001 4000 	and.w	r0, r1, #2147483648	@ 0x80000000
 8000be8:	f040 40fe 	orr.w	r0, r0, #2130706432	@ 0x7f000000
 8000bec:	f440 0000 	orr.w	r0, r0, #8388608	@ 0x800000
 8000bf0:	4770      	bx	lr
 8000bf2:	bf00      	nop

08000bf4 <__aeabi_uldivmod>:
 8000bf4:	b953      	cbnz	r3, 8000c0c <__aeabi_uldivmod+0x18>
 8000bf6:	b94a      	cbnz	r2, 8000c0c <__aeabi_uldivmod+0x18>
 8000bf8:	2900      	cmp	r1, #0
 8000bfa:	bf08      	it	eq
 8000bfc:	2800      	cmpeq	r0, #0
 8000bfe:	bf1c      	itt	ne
 8000c00:	f04f 31ff 	movne.w	r1, #4294967295	@ 0xffffffff
 8000c04:	f04f 30ff 	movne.w	r0, #4294967295	@ 0xffffffff
 8000c08:	f000 b988 	b.w	8000f1c <__aeabi_idiv0>
 8000c0c:	f1ad 0c08 	sub.w	ip, sp, #8
 8000c10:	e96d ce04 	strd	ip, lr, [sp, #-16]!
 8000c14:	f000 f806 	bl	8000c24 <__udivmoddi4>
 8000c18:	f8dd e004 	ldr.w	lr, [sp, #4]
 8000c1c:	e9dd 2302 	ldrd	r2, r3, [sp, #8]
 8000c20:	b004      	add	sp, #16
 8000c22:	4770      	bx	lr

08000c24 <__udivmoddi4>:
 8000c24:	e92d 47f0 	stmdb	sp!, {r4, r5, r6, r7, r8, r9, sl, lr}
 8000c28:	9d08      	ldr	r5, [sp, #32]
 8000c2a:	468e      	mov	lr, r1
 8000c2c:	4604      	mov	r4, r0
 8000c2e:	4688      	mov	r8, r1
 8000c30:	2b00      	cmp	r3, #0
 8000c32:	d14a      	bne.n	8000cca <__udivmoddi4+0xa6>
 8000c34:	428a      	cmp	r2, r1
 8000c36:	4617      	mov	r7, r2
 8000c38:	d962      	bls.n	8000d00 <__udivmoddi4+0xdc>
 8000c3a:	fab2 f682 	clz	r6, r2
 8000c3e:	b14e      	cbz	r6, 8000c54 <__udivmoddi4+0x30>
 8000c40:	f1c6 0320 	rsb	r3, r6, #32
 8000c44:	fa01 f806 	lsl.w	r8, r1, r6
 8000c48:	fa20 f303 	lsr.w	r3, r0, r3
 8000c4c:	40b7      	lsls	r7, r6
 8000c4e:	ea43 0808 	orr.w	r8, r3, r8
 8000c52:	40b4      	lsls	r4, r6
 8000c54:	ea4f 4e17 	mov.w	lr, r7, lsr #16
 8000c58:	fa1f fc87 	uxth.w	ip, r7
 8000c5c:	fbb8 f1fe 	udiv	r1, r8, lr
 8000c60:	0c23      	lsrs	r3, r4, #16
 8000c62:	fb0e 8811 	mls	r8, lr, r1, r8
 8000c66:	ea43 4308 	orr.w	r3, r3, r8, lsl #16
 8000c6a:	fb01 f20c 	mul.w	r2, r1, ip
 8000c6e:	429a      	cmp	r2, r3
 8000c70:	d909      	bls.n	8000c86 <__udivmoddi4+0x62>
 8000c72:	18fb      	adds	r3, r7, r3
 8000c74:	f101 30ff 	add.w	r0, r1, #4294967295	@ 0xffffffff
 8000c78:	f080 80ea 	bcs.w	8000e50 <__udivmoddi4+0x22c>
 8000c7c:	429a      	cmp	r2, r3
 8000c7e:	f240 80e7 	bls.w	8000e50 <__udivmoddi4+0x22c>
 8000c82:	3902      	subs	r1, #2
 8000c84:	443b      	add	r3, r7
 8000c86:	1a9a      	subs	r2, r3, r2
 8000c88:	b2a3      	uxth	r3, r4
 8000c8a:	fbb2 f0fe 	udiv	r0, r2, lr
 8000c8e:	fb0e 2210 	mls	r2, lr, r0, r2
 8000c92:	ea43 4302 	orr.w	r3, r3, r2, lsl #16
 8000c96:	fb00 fc0c 	mul.w	ip, r0, ip
 8000c9a:	459c      	cmp	ip, r3
 8000c9c:	d909      	bls.n	8000cb2 <__udivmoddi4+0x8e>
 8000c9e:	18fb      	adds	r3, r7, r3
 8000ca0:	f100 32ff 	add.w	r2, r0, #4294967295	@ 0xffffffff
 8000ca4:	f080 80d6 	bcs.w	8000e54 <__udivmoddi4+0x230>
 8000ca8:	459c      	cmp	ip, r3
 8000caa:	f240 80d3 	bls.w	8000e54 <__udivmoddi4+0x230>
 8000cae:	443b      	add	r3, r7
 8000cb0:	3802      	subs	r0, #2
 8000cb2:	ea40 4001 	orr.w	r0, r0, r1, lsl #16
 8000cb6:	eba3 030c 	sub.w	r3, r3, ip
 8000cba:	2100      	movs	r1, #0
 8000cbc:	b11d      	cbz	r5, 8000cc6 <__udivmoddi4+0xa2>
 8000cbe:	40f3      	lsrs	r3, r6
 8000cc0:	2200      	movs	r2, #0
 8000cc2:	e9c5 3200 	strd	r3, r2, [r5]
 8000cc6:	e8bd 87f0 	ldmia.w	sp!, {r4, r5, r6, r7, r8, r9, sl, pc}
 8000cca:	428b      	cmp	r3, r1
 8000ccc:	d905      	bls.n	8000cda <__udivmoddi4+0xb6>
 8000cce:	b10d      	cbz	r5, 8000cd4 <__udivmoddi4+0xb0>
 8000cd0:	e9c5 0100 	strd	r0, r1, [r5]
 8000cd4:	2100      	movs	r1, #0
 8000cd6:	4608      	mov	r0, r1
 8000cd8:	e7f5      	b.n	8000cc6 <__udivmoddi4+0xa2>
 8000cda:	fab3 f183 	clz	r1, r3
 8000cde:	2900      	cmp	r1, #0
 8000ce0:	d146      	bne.n	8000d70 <__udivmoddi4+0x14c>
 8000ce2:	4573      	cmp	r3, lr
 8000ce4:	d302      	bcc.n	8000cec <__udivmoddi4+0xc8>
 8000ce6:	4282      	cmp	r2, r0
 8000ce8:	f200 8105 	bhi.w	8000ef6 <__udivmoddi4+0x2d2>
 8000cec:	1a84      	subs	r4, r0, r2
 8000cee:	eb6e 0203 	sbc.w	r2, lr, r3
 8000cf2:	2001      	movs	r0, #1
 8000cf4:	4690      	mov	r8, r2
 8000cf6:	2d00      	cmp	r5, #0
 8000cf8:	d0e5      	beq.n	8000cc6 <__udivmoddi4+0xa2>
 8000cfa:	e9c5 4800 	strd	r4, r8, [r5]
 8000cfe:	e7e2      	b.n	8000cc6 <__udivmoddi4+0xa2>
 8000d00:	2a00      	cmp	r2, #0
 8000d02:	f000 8090 	beq.w	8000e26 <__udivmoddi4+0x202>
 8000d06:	fab2 f682 	clz	r6, r2
 8000d0a:	2e00      	cmp	r6, #0
 8000d0c:	f040 80a4 	bne.w	8000e58 <__udivmoddi4+0x234>
 8000d10:	1a8a      	subs	r2, r1, r2
 8000d12:	0c03      	lsrs	r3, r0, #16
 8000d14:	ea4f 4e17 	mov.w	lr, r7, lsr #16
 8000d18:	b280      	uxth	r0, r0
 8000d1a:	b2bc      	uxth	r4, r7
 8000d1c:	2101      	movs	r1, #1
 8000d1e:	fbb2 fcfe 	udiv	ip, r2, lr
 8000d22:	fb0e 221c 	mls	r2, lr, ip, r2
 8000d26:	ea43 4302 	orr.w	r3, r3, r2, lsl #16
 8000d2a:	fb04 f20c 	mul.w	r2, r4, ip
 8000d2e:	429a      	cmp	r2, r3
 8000d30:	d907      	bls.n	8000d42 <__udivmoddi4+0x11e>
 8000d32:	18fb      	adds	r3, r7, r3
 8000d34:	f10c 38ff 	add.w	r8, ip, #4294967295	@ 0xffffffff
 8000d38:	d202      	bcs.n	8000d40 <__udivmoddi4+0x11c>
 8000d3a:	429a      	cmp	r2, r3
 8000d3c:	f200 80e0 	bhi.w	8000f00 <__udivmoddi4+0x2dc>
 8000d40:	46c4      	mov	ip, r8
 8000d42:	1a9b      	subs	r3, r3, r2
 8000d44:	fbb3 f2fe 	udiv	r2, r3, lr
 8000d48:	fb0e 3312 	mls	r3, lr, r2, r3
 8000d4c:	ea40 4303 	orr.w	r3, r0, r3, lsl #16
 8000d50:	fb02 f404 	mul.w	r4, r2, r4
 8000d54:	429c      	cmp	r4, r3
 8000d56:	d907      	bls.n	8000d68 <__udivmoddi4+0x144>
 8000d58:	18fb      	adds	r3, r7, r3
 8000d5a:	f102 30ff 	add.w	r0, r2, #4294967295	@ 0xffffffff
 8000d5e:	d202      	bcs.n	8000d66 <__udivmoddi4+0x142>
 8000d60:	429c      	cmp	r4, r3
 8000d62:	f200 80ca 	bhi.w	8000efa <__udivmoddi4+0x2d6>
 8000d66:	4602      	mov	r2, r0
 8000d68:	1b1b      	subs	r3, r3, r4
 8000d6a:	ea42 400c 	orr.w	r0, r2, ip, lsl #16
 8000d6e:	e7a5      	b.n	8000cbc <__udivmoddi4+0x98>
 8000d70:	f1c1 0620 	rsb	r6, r1, #32
 8000d74:	408b      	lsls	r3, r1
 8000d76:	fa22 f706 	lsr.w	r7, r2, r6
 8000d7a:	431f      	orrs	r7, r3
 8000d7c:	fa0e f401 	lsl.w	r4, lr, r1
 8000d80:	fa20 f306 	lsr.w	r3, r0, r6
 8000d84:	fa2e fe06 	lsr.w	lr, lr, r6
 8000d88:	ea4f 4917 	mov.w	r9, r7, lsr #16
 8000d8c:	4323      	orrs	r3, r4
 8000d8e:	fa00 f801 	lsl.w	r8, r0, r1
 8000d92:	fa1f fc87 	uxth.w	ip, r7
 8000d96:	fbbe f0f9 	udiv	r0, lr, r9
 8000d9a:	0c1c      	lsrs	r4, r3, #16
 8000d9c:	fb09 ee10 	mls	lr, r9, r0, lr
 8000da0:	ea44 440e 	orr.w	r4, r4, lr, lsl #16
 8000da4:	fb00 fe0c 	mul.w	lr, r0, ip
 8000da8:	45a6      	cmp	lr, r4
 8000daa:	fa02 f201 	lsl.w	r2, r2, r1
 8000dae:	d909      	bls.n	8000dc4 <__udivmoddi4+0x1a0>
 8000db0:	193c      	adds	r4, r7, r4
 8000db2:	f100 3aff 	add.w	sl, r0, #4294967295	@ 0xffffffff
 8000db6:	f080 809c 	bcs.w	8000ef2 <__udivmoddi4+0x2ce>
 8000dba:	45a6      	cmp	lr, r4
 8000dbc:	f240 8099 	bls.w	8000ef2 <__udivmoddi4+0x2ce>
 8000dc0:	3802      	subs	r0, #2
 8000dc2:	443c      	add	r4, r7
 8000dc4:	eba4 040e 	sub.w	r4, r4, lr
 8000dc8:	fa1f fe83 	uxth.w	lr, r3
 8000dcc:	fbb4 f3f9 	udiv	r3, r4, r9
 8000dd0:	fb09 4413 	mls	r4, r9, r3, r4
 8000dd4:	ea4e 4404 	orr.w	r4, lr, r4, lsl #16
 8000dd8:	fb03 fc0c 	mul.w	ip, r3, ip
 8000ddc:	45a4      	cmp	ip, r4
 8000dde:	d908      	bls.n	8000df2 <__udivmoddi4+0x1ce>
 8000de0:	193c      	adds	r4, r7, r4
 8000de2:	f103 3eff 	add.w	lr, r3, #4294967295	@ 0xffffffff
 8000de6:	f080 8082 	bcs.w	8000eee <__udivmoddi4+0x2ca>
 8000dea:	45a4      	cmp	ip, r4
 8000dec:	d97f      	bls.n	8000eee <__udivmoddi4+0x2ca>
 8000dee:	3b02      	subs	r3, #2
 8000df0:	443c      	add	r4, r7
 8000df2:	ea43 4000 	orr.w	r0, r3, r0, lsl #16
 8000df6:	eba4 040c 	sub.w	r4, r4, ip
 8000dfa:	fba0 ec02 	umull	lr, ip, r0, r2
 8000dfe:	4564      	cmp	r4, ip
 8000e00:	4673      	mov	r3, lr
 8000e02:	46e1      	mov	r9, ip
 8000e04:	d362      	bcc.n	8000ecc <__udivmoddi4+0x2a8>
 8000e06:	d05f      	beq.n	8000ec8 <__udivmoddi4+0x2a4>
 8000e08:	b15d      	cbz	r5, 8000e22 <__udivmoddi4+0x1fe>
 8000e0a:	ebb8 0203 	subs.w	r2, r8, r3
 8000e0e:	eb64 0409 	sbc.w	r4, r4, r9
 8000e12:	fa04 f606 	lsl.w	r6, r4, r6
 8000e16:	fa22 f301 	lsr.w	r3, r2, r1
 8000e1a:	431e      	orrs	r6, r3
 8000e1c:	40cc      	lsrs	r4, r1
 8000e1e:	e9c5 6400 	strd	r6, r4, [r5]
 8000e22:	2100      	movs	r1, #0
 8000e24:	e74f      	b.n	8000cc6 <__udivmoddi4+0xa2>
 8000e26:	fbb1 fcf2 	udiv	ip, r1, r2
 8000e2a:	0c01      	lsrs	r1, r0, #16
 8000e2c:	ea41 410e 	orr.w	r1, r1, lr, lsl #16
 8000e30:	b280      	uxth	r0, r0
 8000e32:	ea40 4201 	orr.w	r2, r0, r1, lsl #16
 8000e36:	463b      	mov	r3, r7
 8000e38:	4638      	mov	r0, r7
 8000e3a:	463c      	mov	r4, r7
 8000e3c:	46b8      	mov	r8, r7
 8000e3e:	46be      	mov	lr, r7
 8000e40:	2620      	movs	r6, #32
 8000e42:	fbb1 f1f7 	udiv	r1, r1, r7
 8000e46:	eba2 0208 	sub.w	r2, r2, r8
 8000e4a:	ea41 410c 	orr.w	r1, r1, ip, lsl #16
 8000e4e:	e766      	b.n	8000d1e <__udivmoddi4+0xfa>
 8000e50:	4601      	mov	r1, r0
 8000e52:	e718      	b.n	8000c86 <__udivmoddi4+0x62>
 8000e54:	4610      	mov	r0, r2
 8000e56:	e72c      	b.n	8000cb2 <__udivmoddi4+0x8e>
 8000e58:	f1c6 0220 	rsb	r2, r6, #32
 8000e5c:	fa2e f302 	lsr.w	r3, lr, r2
 8000e60:	40b7      	lsls	r7, r6
 8000e62:	40b1      	lsls	r1, r6
 8000e64:	fa20 f202 	lsr.w	r2, r0, r2
 8000e68:	ea4f 4e17 	mov.w	lr, r7, lsr #16
 8000e6c:	430a      	orrs	r2, r1
 8000e6e:	fbb3 f8fe 	udiv	r8, r3, lr
 8000e72:	b2bc      	uxth	r4, r7
 8000e74:	fb0e 3318 	mls	r3, lr, r8, r3
 8000e78:	0c11      	lsrs	r1, r2, #16
 8000e7a:	ea41 4103 	orr.w	r1, r1, r3, lsl #16
 8000e7e:	fb08 f904 	mul.w	r9, r8, r4
 8000e82:	40b0      	lsls	r0, r6
 8000e84:	4589      	cmp	r9, r1
 8000e86:	ea4f 4310 	mov.w	r3, r0, lsr #16
 8000e8a:	b280      	uxth	r0, r0
 8000e8c:	d93e      	bls.n	8000f0c <__udivmoddi4+0x2e8>
 8000e8e:	1879      	adds	r1, r7, r1
 8000e90:	f108 3cff 	add.w	ip, r8, #4294967295	@ 0xffffffff
 8000e94:	d201      	bcs.n	8000e9a <__udivmoddi4+0x276>
 8000e96:	4589      	cmp	r9, r1
 8000e98:	d81f      	bhi.n	8000eda <__udivmoddi4+0x2b6>
 8000e9a:	eba1 0109 	sub.w	r1, r1, r9
 8000e9e:	fbb1 f9fe 	udiv	r9, r1, lr
 8000ea2:	fb09 f804 	mul.w	r8, r9, r4
 8000ea6:	fb0e 1119 	mls	r1, lr, r9, r1
 8000eaa:	b292      	uxth	r2, r2
 8000eac:	ea42 4201 	orr.w	r2, r2, r1, lsl #16
 8000eb0:	4542      	cmp	r2, r8
 8000eb2:	d229      	bcs.n	8000f08 <__udivmoddi4+0x2e4>
 8000eb4:	18ba      	adds	r2, r7, r2
 8000eb6:	f109 31ff 	add.w	r1, r9, #4294967295	@ 0xffffffff
 8000eba:	d2c4      	bcs.n	8000e46 <__udivmoddi4+0x222>
 8000ebc:	4542      	cmp	r2, r8
 8000ebe:	d2c2      	bcs.n	8000e46 <__udivmoddi4+0x222>
 8000ec0:	f1a9 0102 	sub.w	r1, r9, #2
 8000ec4:	443a      	add	r2, r7
 8000ec6:	e7be      	b.n	8000e46 <__udivmoddi4+0x222>
 8000ec8:	45f0      	cmp	r8, lr
 8000eca:	d29d      	bcs.n	8000e08 <__udivmoddi4+0x1e4>
 8000ecc:	ebbe 0302 	subs.w	r3, lr, r2
 8000ed0:	eb6c 0c07 	sbc.w	ip, ip, r7
 8000ed4:	3801      	subs	r0, #1
 8000ed6:	46e1      	mov	r9, ip
 8000ed8:	e796      	b.n	8000e08 <__udivmoddi4+0x1e4>
 8000eda:	eba7 0909 	sub.w	r9, r7, r9
 8000ede:	4449      	add	r1, r9
 8000ee0:	f1a8 0c02 	sub.w	ip, r8, #2
 8000ee4:	fbb1 f9fe 	udiv	r9, r1, lr
 8000ee8:	fb09 f804 	mul.w	r8, r9, r4
 8000eec:	e7db      	b.n	8000ea6 <__udivmoddi4+0x282>
 8000eee:	4673      	mov	r3, lr
 8000ef0:	e77f      	b.n	8000df2 <__udivmoddi4+0x1ce>
 8000ef2:	4650      	mov	r0, sl
 8000ef4:	e766      	b.n	8000dc4 <__udivmoddi4+0x1a0>
 8000ef6:	4608      	mov	r0, r1
 8000ef8:	e6fd      	b.n	8000cf6 <__udivmoddi4+0xd2>
 8000efa:	443b      	add	r3, r7
 8000efc:	3a02      	subs	r2, #2
 8000efe:	e733      	b.n	8000d68 <__udivmoddi4+0x144>
 8000f00:	f1ac 0c02 	sub.w	ip, ip, #2
 8000f04:	443b      	add	r3, r7
 8000f06:	e71c      	b.n	8000d42 <__udivmoddi4+0x11e>
 8000f08:	4649      	mov	r1, r9
 8000f0a:	e79c      	b.n	8000e46 <__udivmoddi4+0x222>
 8000f0c:	eba1 0109 	sub.w	r1, r1, r9
 8000f10:	46c4      	mov	ip, r8
 8000f12:	fbb1 f9fe 	udiv	r9, r1, lr
 8000f16:	fb09 f804 	mul.w	r8, r9, r4
 8000f1a:	e7c4      	b.n	8000ea6 <__udivmoddi4+0x282>

08000f1c <__aeabi_idiv0>:
 8000f1c:	4770      	bx	lr
 8000f1e:	bf00      	nop

08000f20 <HAL_FDCAN_RxFifo0Callback>:
 8000f20:	b580      	push	{r7, lr}
 8000f22:	b082      	sub	sp, #8
 8000f24:	af00      	add	r7, sp, #0
 8000f26:	6078      	str	r0, [r7, #4]
 8000f28:	6039      	str	r1, [r7, #0]
 8000f2a:	4b37      	ldr	r3, [pc, #220]	@ (8001008 <HAL_FDCAN_RxFifo0Callback+0xe8>)
 8000f2c:	4a37      	ldr	r2, [pc, #220]	@ (800100c <HAL_FDCAN_RxFifo0Callback+0xec>)
 8000f2e:	2140      	movs	r1, #64	@ 0x40
 8000f30:	6878      	ldr	r0, [r7, #4]
 8000f32:	f001 fe5b 	bl	8002bec <HAL_FDCAN_GetRxMessage>
 8000f36:	4b35      	ldr	r3, [pc, #212]	@ (800100c <HAL_FDCAN_RxFifo0Callback+0xec>)
 8000f38:	681b      	ldr	r3, [r3, #0]
 8000f3a:	f2a3 2301 	subw	r3, r3, #513	@ 0x201
 8000f3e:	2b05      	cmp	r3, #5
 8000f40:	d85c      	bhi.n	8000ffc <HAL_FDCAN_RxFifo0Callback+0xdc>
 8000f42:	a201      	add	r2, pc, #4	@ (adr r2, 8000f48 <HAL_FDCAN_RxFifo0Callback+0x28>)
 8000f44:	f852 f023 	ldr.w	pc, [r2, r3, lsl #2]
 8000f48:	08000f61 	.word	0x08000f61
 8000f4c:	08000f7b 	.word	0x08000f7b
 8000f50:	08000f95 	.word	0x08000f95
 8000f54:	08000faf 	.word	0x08000faf
 8000f58:	08000fc9 	.word	0x08000fc9
 8000f5c:	08000fe3 	.word	0x08000fe3
 8000f60:	4b29      	ldr	r3, [pc, #164]	@ (8001008 <HAL_FDCAN_RxFifo0Callback+0xe8>)
 8000f62:	789b      	ldrb	r3, [r3, #2]
 8000f64:	b21b      	sxth	r3, r3
 8000f66:	021b      	lsls	r3, r3, #8
 8000f68:	b21a      	sxth	r2, r3
 8000f6a:	4b27      	ldr	r3, [pc, #156]	@ (8001008 <HAL_FDCAN_RxFifo0Callback+0xe8>)
 8000f6c:	78db      	ldrb	r3, [r3, #3]
 8000f6e:	b21b      	sxth	r3, r3
 8000f70:	4313      	orrs	r3, r2
 8000f72:	b21a      	sxth	r2, r3
 8000f74:	4b26      	ldr	r3, [pc, #152]	@ (8001010 <HAL_FDCAN_RxFifo0Callback+0xf0>)
 8000f76:	801a      	strh	r2, [r3, #0]
 8000f78:	e041      	b.n	8000ffe <HAL_FDCAN_RxFifo0Callback+0xde>
 8000f7a:	4b23      	ldr	r3, [pc, #140]	@ (8001008 <HAL_FDCAN_RxFifo0Callback+0xe8>)
 8000f7c:	789b      	ldrb	r3, [r3, #2]
 8000f7e:	b21b      	sxth	r3, r3
 8000f80:	021b      	lsls	r3, r3, #8
 8000f82:	b21a      	sxth	r2, r3
 8000f84:	4b20      	ldr	r3, [pc, #128]	@ (8001008 <HAL_FDCAN_RxFifo0Callback+0xe8>)
 8000f86:	78db      	ldrb	r3, [r3, #3]
 8000f88:	b21b      	sxth	r3, r3
 8000f8a:	4313      	orrs	r3, r2
 8000f8c:	b21a      	sxth	r2, r3
 8000f8e:	4b20      	ldr	r3, [pc, #128]	@ (8001010 <HAL_FDCAN_RxFifo0Callback+0xf0>)
 8000f90:	805a      	strh	r2, [r3, #2]
 8000f92:	e034      	b.n	8000ffe <HAL_FDCAN_RxFifo0Callback+0xde>
 8000f94:	4b1c      	ldr	r3, [pc, #112]	@ (8001008 <HAL_FDCAN_RxFifo0Callback+0xe8>)
 8000f96:	789b      	ldrb	r3, [r3, #2]
 8000f98:	b21b      	sxth	r3, r3
 8000f9a:	021b      	lsls	r3, r3, #8
 8000f9c:	b21a      	sxth	r2, r3
 8000f9e:	4b1a      	ldr	r3, [pc, #104]	@ (8001008 <HAL_FDCAN_RxFifo0Callback+0xe8>)
 8000fa0:	78db      	ldrb	r3, [r3, #3]
 8000fa2:	b21b      	sxth	r3, r3
 8000fa4:	4313      	orrs	r3, r2
 8000fa6:	b21a      	sxth	r2, r3
 8000fa8:	4b19      	ldr	r3, [pc, #100]	@ (8001010 <HAL_FDCAN_RxFifo0Callback+0xf0>)
 8000faa:	809a      	strh	r2, [r3, #4]
 8000fac:	e027      	b.n	8000ffe <HAL_FDCAN_RxFifo0Callback+0xde>
 8000fae:	4b16      	ldr	r3, [pc, #88]	@ (8001008 <HAL_FDCAN_RxFifo0Callback+0xe8>)
 8000fb0:	789b      	ldrb	r3, [r3, #2]
 8000fb2:	b21b      	sxth	r3, r3
 8000fb4:	021b      	lsls	r3, r3, #8
 8000fb6:	b21a      	sxth	r2, r3
 8000fb8:	4b13      	ldr	r3, [pc, #76]	@ (8001008 <HAL_FDCAN_RxFifo0Callback+0xe8>)
 8000fba:	78db      	ldrb	r3, [r3, #3]
 8000fbc:	b21b      	sxth	r3, r3
 8000fbe:	4313      	orrs	r3, r2
 8000fc0:	b21a      	sxth	r2, r3
 8000fc2:	4b13      	ldr	r3, [pc, #76]	@ (8001010 <HAL_FDCAN_RxFifo0Callback+0xf0>)
 8000fc4:	80da      	strh	r2, [r3, #6]
 8000fc6:	e01a      	b.n	8000ffe <HAL_FDCAN_RxFifo0Callback+0xde>
 8000fc8:	4b0f      	ldr	r3, [pc, #60]	@ (8001008 <HAL_FDCAN_RxFifo0Callback+0xe8>)
 8000fca:	789b      	ldrb	r3, [r3, #2]
 8000fcc:	b21b      	sxth	r3, r3
 8000fce:	021b      	lsls	r3, r3, #8
 8000fd0:	b21a      	sxth	r2, r3
 8000fd2:	4b0d      	ldr	r3, [pc, #52]	@ (8001008 <HAL_FDCAN_RxFifo0Callback+0xe8>)
 8000fd4:	78db      	ldrb	r3, [r3, #3]
 8000fd6:	b21b      	sxth	r3, r3
 8000fd8:	4313      	orrs	r3, r2
 8000fda:	b21a      	sxth	r2, r3
 8000fdc:	4b0c      	ldr	r3, [pc, #48]	@ (8001010 <HAL_FDCAN_RxFifo0Callback+0xf0>)
 8000fde:	811a      	strh	r2, [r3, #8]
 8000fe0:	e00d      	b.n	8000ffe <HAL_FDCAN_RxFifo0Callback+0xde>
 8000fe2:	4b09      	ldr	r3, [pc, #36]	@ (8001008 <HAL_FDCAN_RxFifo0Callback+0xe8>)
 8000fe4:	789b      	ldrb	r3, [r3, #2]
 8000fe6:	b21b      	sxth	r3, r3
 8000fe8:	021b      	lsls	r3, r3, #8
 8000fea:	b21a      	sxth	r2, r3
 8000fec:	4b06      	ldr	r3, [pc, #24]	@ (8001008 <HAL_FDCAN_RxFifo0Callback+0xe8>)
 8000fee:	78db      	ldrb	r3, [r3, #3]
 8000ff0:	b21b      	sxth	r3, r3
 8000ff2:	4313      	orrs	r3, r2
 8000ff4:	b21a      	sxth	r2, r3
 8000ff6:	4b06      	ldr	r3, [pc, #24]	@ (8001010 <HAL_FDCAN_RxFifo0Callback+0xf0>)
 8000ff8:	815a      	strh	r2, [r3, #10]
 8000ffa:	e000      	b.n	8000ffe <HAL_FDCAN_RxFifo0Callback+0xde>
 8000ffc:	bf00      	nop
 8000ffe:	bf00      	nop
 8001000:	3708      	adds	r7, #8
 8001002:	46bd      	mov	sp, r7
 8001004:	bd80      	pop	{r7, pc}
 8001006:	bf00      	nop
 8001008:	20000224 	.word	0x20000224
 800100c:	200001d0 	.word	0x200001d0
 8001010:	20000508 	.word	0x20000508

08001014 <CAN_tran>:
 8001014:	b580      	push	{r7, lr}
 8001016:	af00      	add	r7, sp, #0
 8001018:	4b3b      	ldr	r3, [pc, #236]	@ (8001108 <CAN_tran+0xf4>)
 800101a:	f9b3 3000 	ldrsh.w	r3, [r3]
 800101e:	121b      	asrs	r3, r3, #8
 8001020:	b21b      	sxth	r3, r3
 8001022:	b2da      	uxtb	r2, r3
 8001024:	4b39      	ldr	r3, [pc, #228]	@ (800110c <CAN_tran+0xf8>)
 8001026:	701a      	strb	r2, [r3, #0]
 8001028:	4b37      	ldr	r3, [pc, #220]	@ (8001108 <CAN_tran+0xf4>)
 800102a:	f9b3 3000 	ldrsh.w	r3, [r3]
 800102e:	b2da      	uxtb	r2, r3
 8001030:	4b36      	ldr	r3, [pc, #216]	@ (800110c <CAN_tran+0xf8>)
 8001032:	705a      	strb	r2, [r3, #1]
 8001034:	4b34      	ldr	r3, [pc, #208]	@ (8001108 <CAN_tran+0xf4>)
 8001036:	f9b3 3002 	ldrsh.w	r3, [r3, #2]
 800103a:	121b      	asrs	r3, r3, #8
 800103c:	b21b      	sxth	r3, r3
 800103e:	b2da      	uxtb	r2, r3
 8001040:	4b32      	ldr	r3, [pc, #200]	@ (800110c <CAN_tran+0xf8>)
 8001042:	709a      	strb	r2, [r3, #2]
 8001044:	4b30      	ldr	r3, [pc, #192]	@ (8001108 <CAN_tran+0xf4>)
 8001046:	f9b3 3002 	ldrsh.w	r3, [r3, #2]
 800104a:	b2da      	uxtb	r2, r3
 800104c:	4b2f      	ldr	r3, [pc, #188]	@ (800110c <CAN_tran+0xf8>)
 800104e:	70da      	strb	r2, [r3, #3]
 8001050:	4b2d      	ldr	r3, [pc, #180]	@ (8001108 <CAN_tran+0xf4>)
 8001052:	f9b3 3004 	ldrsh.w	r3, [r3, #4]
 8001056:	121b      	asrs	r3, r3, #8
 8001058:	b21b      	sxth	r3, r3
 800105a:	b2da      	uxtb	r2, r3
 800105c:	4b2b      	ldr	r3, [pc, #172]	@ (800110c <CAN_tran+0xf8>)
 800105e:	711a      	strb	r2, [r3, #4]
 8001060:	4b29      	ldr	r3, [pc, #164]	@ (8001108 <CAN_tran+0xf4>)
 8001062:	f9b3 3004 	ldrsh.w	r3, [r3, #4]
 8001066:	b2da      	uxtb	r2, r3
 8001068:	4b28      	ldr	r3, [pc, #160]	@ (800110c <CAN_tran+0xf8>)
 800106a:	715a      	strb	r2, [r3, #5]
 800106c:	4b26      	ldr	r3, [pc, #152]	@ (8001108 <CAN_tran+0xf4>)
 800106e:	f9b3 3006 	ldrsh.w	r3, [r3, #6]
 8001072:	121b      	asrs	r3, r3, #8
 8001074:	b21b      	sxth	r3, r3
 8001076:	b2da      	uxtb	r2, r3
 8001078:	4b24      	ldr	r3, [pc, #144]	@ (800110c <CAN_tran+0xf8>)
 800107a:	719a      	strb	r2, [r3, #6]
 800107c:	4b22      	ldr	r3, [pc, #136]	@ (8001108 <CAN_tran+0xf4>)
 800107e:	f9b3 3006 	ldrsh.w	r3, [r3, #6]
 8001082:	b2da      	uxtb	r2, r3
 8001084:	4b21      	ldr	r3, [pc, #132]	@ (800110c <CAN_tran+0xf8>)
 8001086:	71da      	strb	r2, [r3, #7]
 8001088:	4b21      	ldr	r3, [pc, #132]	@ (8001110 <CAN_tran+0xfc>)
 800108a:	f44f 7200 	mov.w	r2, #512	@ 0x200
 800108e:	601a      	str	r2, [r3, #0]
 8001090:	4a1e      	ldr	r2, [pc, #120]	@ (800110c <CAN_tran+0xf8>)
 8001092:	491f      	ldr	r1, [pc, #124]	@ (8001110 <CAN_tran+0xfc>)
 8001094:	481f      	ldr	r0, [pc, #124]	@ (8001114 <CAN_tran+0x100>)
 8001096:	f001 fd65 	bl	8002b64 <HAL_FDCAN_AddMessageToTxFifoQ>
 800109a:	4b1b      	ldr	r3, [pc, #108]	@ (8001108 <CAN_tran+0xf4>)
 800109c:	f9b3 3008 	ldrsh.w	r3, [r3, #8]
 80010a0:	121b      	asrs	r3, r3, #8
 80010a2:	b21b      	sxth	r3, r3
 80010a4:	b2da      	uxtb	r2, r3
 80010a6:	4b19      	ldr	r3, [pc, #100]	@ (800110c <CAN_tran+0xf8>)
 80010a8:	701a      	strb	r2, [r3, #0]
 80010aa:	4b17      	ldr	r3, [pc, #92]	@ (8001108 <CAN_tran+0xf4>)
 80010ac:	f9b3 3008 	ldrsh.w	r3, [r3, #8]
 80010b0:	b2da      	uxtb	r2, r3
 80010b2:	4b16      	ldr	r3, [pc, #88]	@ (800110c <CAN_tran+0xf8>)
 80010b4:	705a      	strb	r2, [r3, #1]
 80010b6:	4b14      	ldr	r3, [pc, #80]	@ (8001108 <CAN_tran+0xf4>)
 80010b8:	f9b3 300a 	ldrsh.w	r3, [r3, #10]
 80010bc:	121b      	asrs	r3, r3, #8
 80010be:	b21b      	sxth	r3, r3
 80010c0:	b2da      	uxtb	r2, r3
 80010c2:	4b12      	ldr	r3, [pc, #72]	@ (800110c <CAN_tran+0xf8>)
 80010c4:	709a      	strb	r2, [r3, #2]
 80010c6:	4b10      	ldr	r3, [pc, #64]	@ (8001108 <CAN_tran+0xf4>)
 80010c8:	f9b3 300a 	ldrsh.w	r3, [r3, #10]
 80010cc:	b2da      	uxtb	r2, r3
 80010ce:	4b0f      	ldr	r3, [pc, #60]	@ (800110c <CAN_tran+0xf8>)
 80010d0:	70da      	strb	r2, [r3, #3]
 80010d2:	4b0e      	ldr	r3, [pc, #56]	@ (800110c <CAN_tran+0xf8>)
 80010d4:	2200      	movs	r2, #0
 80010d6:	711a      	strb	r2, [r3, #4]
 80010d8:	4b0c      	ldr	r3, [pc, #48]	@ (800110c <CAN_tran+0xf8>)
 80010da:	2200      	movs	r2, #0
 80010dc:	715a      	strb	r2, [r3, #5]
 80010de:	4b0b      	ldr	r3, [pc, #44]	@ (800110c <CAN_tran+0xf8>)
 80010e0:	2200      	movs	r2, #0
 80010e2:	719a      	strb	r2, [r3, #6]
 80010e4:	4b09      	ldr	r3, [pc, #36]	@ (800110c <CAN_tran+0xf8>)
 80010e6:	2200      	movs	r2, #0
 80010e8:	71da      	strb	r2, [r3, #7]
 80010ea:	4b09      	ldr	r3, [pc, #36]	@ (8001110 <CAN_tran+0xfc>)
 80010ec:	f240 12ff 	movw	r2, #511	@ 0x1ff
 80010f0:	601a      	str	r2, [r3, #0]
 80010f2:	4a06      	ldr	r2, [pc, #24]	@ (800110c <CAN_tran+0xf8>)
 80010f4:	4906      	ldr	r1, [pc, #24]	@ (8001110 <CAN_tran+0xfc>)
 80010f6:	4807      	ldr	r0, [pc, #28]	@ (8001114 <CAN_tran+0x100>)
 80010f8:	f001 fd34 	bl	8002b64 <HAL_FDCAN_AddMessageToTxFifoQ>
 80010fc:	2002      	movs	r0, #2
 80010fe:	f001 f963 	bl	80023c8 <HAL_Delay>
 8001102:	bf00      	nop
 8001104:	bd80      	pop	{r7, pc}
 8001106:	bf00      	nop
 8001108:	20000518 	.word	0x20000518
 800110c:	2000021c 	.word	0x2000021c
 8001110:	200001f8 	.word	0x200001f8
 8001114:	200003b0 	.word	0x200003b0

08001118 <CAN_INIT>:
 8001118:	b580      	push	{r7, lr}
 800111a:	b086      	sub	sp, #24
 800111c:	af00      	add	r7, sp, #0
 800111e:	4822      	ldr	r0, [pc, #136]	@ (80011a8 <CAN_INIT+0x90>)
 8001120:	f001 fcf8 	bl	8002b14 <HAL_FDCAN_Start>
 8001124:	4b21      	ldr	r3, [pc, #132]	@ (80011ac <CAN_INIT+0x94>)
 8001126:	f44f 7200 	mov.w	r2, #512	@ 0x200
 800112a:	601a      	str	r2, [r3, #0]
 800112c:	4b1f      	ldr	r3, [pc, #124]	@ (80011ac <CAN_INIT+0x94>)
 800112e:	2200      	movs	r2, #0
 8001130:	605a      	str	r2, [r3, #4]
 8001132:	4b1e      	ldr	r3, [pc, #120]	@ (80011ac <CAN_INIT+0x94>)
 8001134:	2200      	movs	r2, #0
 8001136:	609a      	str	r2, [r3, #8]
 8001138:	4b1c      	ldr	r3, [pc, #112]	@ (80011ac <CAN_INIT+0x94>)
 800113a:	2208      	movs	r2, #8
 800113c:	60da      	str	r2, [r3, #12]
 800113e:	4b1b      	ldr	r3, [pc, #108]	@ (80011ac <CAN_INIT+0x94>)
 8001140:	2200      	movs	r2, #0
 8001142:	611a      	str	r2, [r3, #16]
 8001144:	4b19      	ldr	r3, [pc, #100]	@ (80011ac <CAN_INIT+0x94>)
 8001146:	2200      	movs	r2, #0
 8001148:	615a      	str	r2, [r3, #20]
 800114a:	4b18      	ldr	r3, [pc, #96]	@ (80011ac <CAN_INIT+0x94>)
 800114c:	2200      	movs	r2, #0
 800114e:	619a      	str	r2, [r3, #24]
 8001150:	4b16      	ldr	r3, [pc, #88]	@ (80011ac <CAN_INIT+0x94>)
 8001152:	2200      	movs	r2, #0
 8001154:	61da      	str	r2, [r3, #28]
 8001156:	4b15      	ldr	r3, [pc, #84]	@ (80011ac <CAN_INIT+0x94>)
 8001158:	2200      	movs	r2, #0
 800115a:	621a      	str	r2, [r3, #32]
 800115c:	2300      	movs	r3, #0
 800115e:	603b      	str	r3, [r7, #0]
 8001160:	2300      	movs	r3, #0
 8001162:	607b      	str	r3, [r7, #4]
 8001164:	2302      	movs	r3, #2
 8001166:	60bb      	str	r3, [r7, #8]
 8001168:	2301      	movs	r3, #1
 800116a:	60fb      	str	r3, [r7, #12]
 800116c:	f44f 7300 	mov.w	r3, #512	@ 0x200
 8001170:	613b      	str	r3, [r7, #16]
 8001172:	f44f 7300 	mov.w	r3, #512	@ 0x200
 8001176:	617b      	str	r3, [r7, #20]
 8001178:	463b      	mov	r3, r7
 800117a:	4619      	mov	r1, r3
 800117c:	480a      	ldr	r0, [pc, #40]	@ (80011a8 <CAN_INIT+0x90>)
 800117e:	f001 fc6f 	bl	8002a60 <HAL_FDCAN_ConfigFilter>
 8001182:	4603      	mov	r3, r0
 8001184:	2b00      	cmp	r3, #0
 8001186:	d001      	beq.n	800118c <CAN_INIT+0x74>
 8001188:	f000 fc82 	bl	8001a90 <Error_Handler>
 800118c:	463b      	mov	r3, r7
 800118e:	4619      	mov	r1, r3
 8001190:	4805      	ldr	r0, [pc, #20]	@ (80011a8 <CAN_INIT+0x90>)
 8001192:	f001 fc65 	bl	8002a60 <HAL_FDCAN_ConfigFilter>
 8001196:	2200      	movs	r2, #0
 8001198:	2101      	movs	r1, #1
 800119a:	4803      	ldr	r0, [pc, #12]	@ (80011a8 <CAN_INIT+0x90>)
 800119c:	f001 fe2e 	bl	8002dfc <HAL_FDCAN_ActivateNotification>
 80011a0:	bf00      	nop
 80011a2:	3718      	adds	r7, #24
 80011a4:	46bd      	mov	sp, r7
 80011a6:	bd80      	pop	{r7, pc}
 80011a8:	200003b0 	.word	0x200003b0
 80011ac:	200001f8 	.word	0x200001f8

080011b0 <Robot_base_movement_init>:
 80011b0:	b580      	push	{r7, lr}
 80011b2:	af00      	add	r7, sp, #0
 80011b4:	eeb3 1a06 	vmov.f32	s2, #54	@ 0x41b00000  22.0
 80011b8:	eddf 0a06 	vldr	s1, [pc, #24]	@ 80011d4 <Robot_base_movement_init+0x24>
 80011bc:	ed9f 0a06 	vldr	s0, [pc, #24]	@ 80011d8 <Robot_base_movement_init+0x28>
 80011c0:	2300      	movs	r3, #0
 80011c2:	f642 62e0 	movw	r2, #12000	@ 0x2ee0
 80011c6:	2103      	movs	r1, #3
 80011c8:	4804      	ldr	r0, [pc, #16]	@ (80011dc <Robot_base_movement_init+0x2c>)
 80011ca:	f000 ff37 	bl	800203c <PID_struct_init>
 80011ce:	bf00      	nop
 80011d0:	bd80      	pop	{r7, pc}
 80011d2:	bf00      	nop
 80011d4:	00000000 	.word	0x00000000
 80011d8:	428c0000 	.word	0x428c0000
 80011dc:	20000234 	.word	0x20000234

080011e0 <Robot_base_movement_start>:
 80011e0:	b5b0      	push	{r4, r5, r7, lr}
 80011e2:	b084      	sub	sp, #16
 80011e4:	af02      	add	r7, sp, #8
 80011e6:	6078      	str	r0, [r7, #4]
 80011e8:	6039      	str	r1, [r7, #0]
 80011ea:	4b4a      	ldr	r3, [pc, #296]	@ (8001314 <Robot_base_movement_start+0x134>)
 80011ec:	f9b3 2000 	ldrsh.w	r2, [r3]
 80011f0:	4b49      	ldr	r3, [pc, #292]	@ (8001318 <Robot_base_movement_start+0x138>)
 80011f2:	801a      	strh	r2, [r3, #0]
 80011f4:	4b47      	ldr	r3, [pc, #284]	@ (8001314 <Robot_base_movement_start+0x134>)
 80011f6:	f9b3 2002 	ldrsh.w	r2, [r3, #2]
 80011fa:	4b47      	ldr	r3, [pc, #284]	@ (8001318 <Robot_base_movement_start+0x138>)
 80011fc:	805a      	strh	r2, [r3, #2]
 80011fe:	4b45      	ldr	r3, [pc, #276]	@ (8001314 <Robot_base_movement_start+0x134>)
 8001200:	f9b3 2004 	ldrsh.w	r2, [r3, #4]
 8001204:	4b44      	ldr	r3, [pc, #272]	@ (8001318 <Robot_base_movement_start+0x138>)
 8001206:	809a      	strh	r2, [r3, #4]
 8001208:	683b      	ldr	r3, [r7, #0]
 800120a:	781b      	ldrb	r3, [r3, #0]
 800120c:	2b00      	cmp	r3, #0
 800120e:	d117      	bne.n	8001240 <Robot_base_movement_start+0x60>
 8001210:	687b      	ldr	r3, [r7, #4]
 8001212:	f9b3 1000 	ldrsh.w	r1, [r3]
 8001216:	687b      	ldr	r3, [r7, #4]
 8001218:	f9b3 2002 	ldrsh.w	r2, [r3, #2]
 800121c:	687b      	ldr	r3, [r7, #4]
 800121e:	f9b3 0004 	ldrsh.w	r0, [r3, #4]
 8001222:	687b      	ldr	r3, [r7, #4]
 8001224:	f9b3 3006 	ldrsh.w	r3, [r3, #6]
 8001228:	ee07 3a90 	vmov	s15, r3
 800122c:	eef8 7ae7 	vcvt.f32.s32	s15, s15
 8001230:	4b38      	ldr	r3, [pc, #224]	@ (8001314 <Robot_base_movement_start+0x134>)
 8001232:	9300      	str	r3, [sp, #0]
 8001234:	eeb0 0a67 	vmov.f32	s0, s15
 8001238:	4603      	mov	r3, r0
 800123a:	4838      	ldr	r0, [pc, #224]	@ (800131c <Robot_base_movement_start+0x13c>)
 800123c:	f000 f87c 	bl	8001338 <CalculateKinematics>
 8001240:	683b      	ldr	r3, [r7, #0]
 8001242:	781b      	ldrb	r3, [r3, #0]
 8001244:	2b01      	cmp	r3, #1
 8001246:	d10f      	bne.n	8001268 <Robot_base_movement_start+0x88>
 8001248:	687b      	ldr	r3, [r7, #4]
 800124a:	f9b3 1000 	ldrsh.w	r1, [r3]
 800124e:	687b      	ldr	r3, [r7, #4]
 8001250:	f9b3 2002 	ldrsh.w	r2, [r3, #2]
 8001254:	687b      	ldr	r3, [r7, #4]
 8001256:	f9b3 3004 	ldrsh.w	r3, [r3, #4]
 800125a:	482e      	ldr	r0, [pc, #184]	@ (8001314 <Robot_base_movement_start+0x134>)
 800125c:	9000      	str	r0, [sp, #0]
 800125e:	ed9f 0a30 	vldr	s0, [pc, #192]	@ 8001320 <Robot_base_movement_start+0x140>
 8001262:	482e      	ldr	r0, [pc, #184]	@ (800131c <Robot_base_movement_start+0x13c>)
 8001264:	f000 f868 	bl	8001338 <CalculateKinematics>
 8001268:	683b      	ldr	r3, [r7, #0]
 800126a:	781b      	ldrb	r3, [r3, #0]
 800126c:	2b02      	cmp	r3, #2
 800126e:	d139      	bne.n	80012e4 <Robot_base_movement_start+0x104>
 8001270:	687b      	ldr	r3, [r7, #4]
 8001272:	f9b3 4000 	ldrsh.w	r4, [r3]
 8001276:	687b      	ldr	r3, [r7, #4]
 8001278:	f9b3 5002 	ldrsh.w	r5, [r3, #2]
 800127c:	687b      	ldr	r3, [r7, #4]
 800127e:	f9b3 3006 	ldrsh.w	r3, [r3, #6]
 8001282:	ee07 3a90 	vmov	s15, r3
 8001286:	eef8 7ae7 	vcvt.f32.s32	s15, s15
 800128a:	4b26      	ldr	r3, [pc, #152]	@ (8001324 <Robot_base_movement_start+0x144>)
 800128c:	f9b3 3000 	ldrsh.w	r3, [r3]
 8001290:	4a25      	ldr	r2, [pc, #148]	@ (8001328 <Robot_base_movement_start+0x148>)
 8001292:	fb82 1203 	smull	r1, r2, r2, r3
 8001296:	1092      	asrs	r2, r2, #2
 8001298:	17db      	asrs	r3, r3, #31
 800129a:	1ad3      	subs	r3, r2, r3
 800129c:	b21b      	sxth	r3, r3
 800129e:	ee07 3a10 	vmov	s14, r3
 80012a2:	eeb8 7ac7 	vcvt.f32.s32	s14, s14
 80012a6:	eef0 0a47 	vmov.f32	s1, s14
 80012aa:	eeb0 0a67 	vmov.f32	s0, s15
 80012ae:	481f      	ldr	r0, [pc, #124]	@ (800132c <Robot_base_movement_start+0x14c>)
 80012b0:	f000 fdb7 	bl	8001e22 <pid_calc>
 80012b4:	eef0 7a40 	vmov.f32	s15, s0
 80012b8:	eefd 7ae7 	vcvt.s32.f32	s15, s15
 80012bc:	ee17 3a90 	vmov	r3, s15
 80012c0:	b21a      	sxth	r2, r3
 80012c2:	687b      	ldr	r3, [r7, #4]
 80012c4:	f9b3 3006 	ldrsh.w	r3, [r3, #6]
 80012c8:	ee07 3a90 	vmov	s15, r3
 80012cc:	eef8 7ae7 	vcvt.f32.s32	s15, s15
 80012d0:	4b10      	ldr	r3, [pc, #64]	@ (8001314 <Robot_base_movement_start+0x134>)
 80012d2:	9300      	str	r3, [sp, #0]
 80012d4:	eeb0 0a67 	vmov.f32	s0, s15
 80012d8:	4613      	mov	r3, r2
 80012da:	462a      	mov	r2, r5
 80012dc:	4621      	mov	r1, r4
 80012de:	480f      	ldr	r0, [pc, #60]	@ (800131c <Robot_base_movement_start+0x13c>)
 80012e0:	f000 f82a 	bl	8001338 <CalculateKinematics>
 80012e4:	683b      	ldr	r3, [r7, #0]
 80012e6:	781b      	ldrb	r3, [r3, #0]
 80012e8:	2b03      	cmp	r3, #3
 80012ea:	d10e      	bne.n	800130a <Robot_base_movement_start+0x12a>
 80012ec:	4b10      	ldr	r3, [pc, #64]	@ (8001330 <Robot_base_movement_start+0x150>)
 80012ee:	f9b3 2000 	ldrsh.w	r2, [r3]
 80012f2:	4b09      	ldr	r3, [pc, #36]	@ (8001318 <Robot_base_movement_start+0x138>)
 80012f4:	801a      	strh	r2, [r3, #0]
 80012f6:	4b0f      	ldr	r3, [pc, #60]	@ (8001334 <Robot_base_movement_start+0x154>)
 80012f8:	f9b3 2000 	ldrsh.w	r2, [r3]
 80012fc:	4b06      	ldr	r3, [pc, #24]	@ (8001318 <Robot_base_movement_start+0x138>)
 80012fe:	805a      	strh	r2, [r3, #2]
 8001300:	4b08      	ldr	r3, [pc, #32]	@ (8001324 <Robot_base_movement_start+0x144>)
 8001302:	f9b3 2000 	ldrsh.w	r2, [r3]
 8001306:	4b04      	ldr	r3, [pc, #16]	@ (8001318 <Robot_base_movement_start+0x138>)
 8001308:	809a      	strh	r2, [r3, #4]
 800130a:	bf00      	nop
 800130c:	3708      	adds	r7, #8
 800130e:	46bd      	mov	sp, r7
 8001310:	bdb0      	pop	{r4, r5, r7, pc}
 8001312:	bf00      	nop
 8001314:	2000022c 	.word	0x2000022c
 8001318:	20000528 	.word	0x20000528
 800131c:	20000000 	.word	0x20000000
 8001320:	00000000 	.word	0x00000000
 8001324:	200004ee 	.word	0x200004ee
 8001328:	38e38e39 	.word	0x38e38e39
 800132c:	20000234 	.word	0x20000234
 8001330:	200004ea 	.word	0x200004ea
 8001334:	200004ec 	.word	0x200004ec

08001338 <CalculateKinematics>:
 8001338:	e92d 43b0 	stmdb	sp!, {r4, r5, r7, r8, r9, lr}
 800133c:	b08c      	sub	sp, #48	@ 0x30
 800133e:	af00      	add	r7, sp, #0
 8001340:	60f8      	str	r0, [r7, #12]
 8001342:	4608      	mov	r0, r1
 8001344:	4611      	mov	r1, r2
 8001346:	461a      	mov	r2, r3
 8001348:	ed87 0a00 	vstr	s0, [r7]
 800134c:	4603      	mov	r3, r0
 800134e:	817b      	strh	r3, [r7, #10]
 8001350:	460b      	mov	r3, r1
 8001352:	813b      	strh	r3, [r7, #8]
 8001354:	4613      	mov	r3, r2
 8001356:	80fb      	strh	r3, [r7, #6]
 8001358:	2300      	movs	r3, #0
 800135a:	62fb      	str	r3, [r7, #44]	@ 0x2c
 800135c:	e092      	b.n	8001484 <CalculateKinematics+0x14c>
 800135e:	68fa      	ldr	r2, [r7, #12]
 8001360:	6afb      	ldr	r3, [r7, #44]	@ 0x2c
 8001362:	3303      	adds	r3, #3
 8001364:	00db      	lsls	r3, r3, #3
 8001366:	4413      	add	r3, r2
 8001368:	e9d3 4500 	ldrd	r4, r5, [r3]
 800136c:	6838      	ldr	r0, [r7, #0]
 800136e:	f7ff f8b7 	bl	80004e0 <__aeabi_f2d>
 8001372:	a34a      	add	r3, pc, #296	@ (adr r3, 800149c <CalculateKinematics+0x164>)
 8001374:	e9d3 2300 	ldrd	r2, r3, [r3]
 8001378:	f7ff f90a 	bl	8000590 <__aeabi_dmul>
 800137c:	4602      	mov	r2, r0
 800137e:	460b      	mov	r3, r1
 8001380:	4610      	mov	r0, r2
 8001382:	4619      	mov	r1, r3
 8001384:	f04f 0200 	mov.w	r2, #0
 8001388:	4b43      	ldr	r3, [pc, #268]	@ (8001498 <CalculateKinematics+0x160>)
 800138a:	f7ff fa2b 	bl	80007e4 <__aeabi_ddiv>
 800138e:	4602      	mov	r2, r0
 8001390:	460b      	mov	r3, r1
 8001392:	4620      	mov	r0, r4
 8001394:	4629      	mov	r1, r5
 8001396:	f7fe ff45 	bl	8000224 <__adddf3>
 800139a:	4602      	mov	r2, r0
 800139c:	460b      	mov	r3, r1
 800139e:	6af9      	ldr	r1, [r7, #44]	@ 0x2c
 80013a0:	00c9      	lsls	r1, r1, #3
 80013a2:	3130      	adds	r1, #48	@ 0x30
 80013a4:	4439      	add	r1, r7
 80013a6:	3920      	subs	r1, #32
 80013a8:	e9c1 2300 	strd	r2, r3, [r1]
 80013ac:	f9b7 3008 	ldrsh.w	r3, [r7, #8]
 80013b0:	4618      	mov	r0, r3
 80013b2:	f7ff f883 	bl	80004bc <__aeabi_i2d>
 80013b6:	4604      	mov	r4, r0
 80013b8:	460d      	mov	r5, r1
 80013ba:	6afb      	ldr	r3, [r7, #44]	@ 0x2c
 80013bc:	00db      	lsls	r3, r3, #3
 80013be:	3330      	adds	r3, #48	@ 0x30
 80013c0:	443b      	add	r3, r7
 80013c2:	3b20      	subs	r3, #32
 80013c4:	ed93 7b00 	vldr	d7, [r3]
 80013c8:	eeb0 0a47 	vmov.f32	s0, s14
 80013cc:	eef0 0a67 	vmov.f32	s1, s15
 80013d0:	f00b f876 	bl	800c4c0 <cos>
 80013d4:	ec53 2b10 	vmov	r2, r3, d0
 80013d8:	4620      	mov	r0, r4
 80013da:	4629      	mov	r1, r5
 80013dc:	f7ff f8d8 	bl	8000590 <__aeabi_dmul>
 80013e0:	4602      	mov	r2, r0
 80013e2:	460b      	mov	r3, r1
 80013e4:	4690      	mov	r8, r2
 80013e6:	4699      	mov	r9, r3
 80013e8:	f9b7 300a 	ldrsh.w	r3, [r7, #10]
 80013ec:	4618      	mov	r0, r3
 80013ee:	f7ff f865 	bl	80004bc <__aeabi_i2d>
 80013f2:	4604      	mov	r4, r0
 80013f4:	460d      	mov	r5, r1
 80013f6:	6afb      	ldr	r3, [r7, #44]	@ 0x2c
 80013f8:	00db      	lsls	r3, r3, #3
 80013fa:	3330      	adds	r3, #48	@ 0x30
 80013fc:	443b      	add	r3, r7
 80013fe:	3b20      	subs	r3, #32
 8001400:	ed93 7b00 	vldr	d7, [r3]
 8001404:	eeb0 0a47 	vmov.f32	s0, s14
 8001408:	eef0 0a67 	vmov.f32	s1, s15
 800140c:	f00b f8b4 	bl	800c578 <sin>
 8001410:	ec53 2b10 	vmov	r2, r3, d0
 8001414:	4620      	mov	r0, r4
 8001416:	4629      	mov	r1, r5
 8001418:	f7ff f8ba 	bl	8000590 <__aeabi_dmul>
 800141c:	4602      	mov	r2, r0
 800141e:	460b      	mov	r3, r1
 8001420:	4640      	mov	r0, r8
 8001422:	4649      	mov	r1, r9
 8001424:	f7fe fefe 	bl	8000224 <__adddf3>
 8001428:	4602      	mov	r2, r0
 800142a:	460b      	mov	r3, r1
 800142c:	4690      	mov	r8, r2
 800142e:	4699      	mov	r9, r3
 8001430:	f9b7 3006 	ldrsh.w	r3, [r7, #6]
 8001434:	4618      	mov	r0, r3
 8001436:	f7ff f841 	bl	80004bc <__aeabi_i2d>
 800143a:	4604      	mov	r4, r0
 800143c:	460d      	mov	r5, r1
 800143e:	68fb      	ldr	r3, [r7, #12]
 8001440:	e9d3 0100 	ldrd	r0, r1, [r3]
 8001444:	68fb      	ldr	r3, [r7, #12]
 8001446:	e9d3 2302 	ldrd	r2, r3, [r3, #8]
 800144a:	f7fe feeb 	bl	8000224 <__adddf3>
 800144e:	4602      	mov	r2, r0
 8001450:	460b      	mov	r3, r1
 8001452:	4620      	mov	r0, r4
 8001454:	4629      	mov	r1, r5
 8001456:	f7ff f89b 	bl	8000590 <__aeabi_dmul>
 800145a:	4602      	mov	r2, r0
 800145c:	460b      	mov	r3, r1
 800145e:	4640      	mov	r0, r8
 8001460:	4649      	mov	r1, r9
 8001462:	f7fe fedf 	bl	8000224 <__adddf3>
 8001466:	4602      	mov	r2, r0
 8001468:	460b      	mov	r3, r1
 800146a:	4610      	mov	r0, r2
 800146c:	4619      	mov	r1, r3
 800146e:	f7ff fb29 	bl	8000ac4 <__aeabi_d2iz>
 8001472:	4603      	mov	r3, r0
 8001474:	b219      	sxth	r1, r3
 8001476:	6cbb      	ldr	r3, [r7, #72]	@ 0x48
 8001478:	6afa      	ldr	r2, [r7, #44]	@ 0x2c
 800147a:	f823 1012 	strh.w	r1, [r3, r2, lsl #1]
 800147e:	6afb      	ldr	r3, [r7, #44]	@ 0x2c
 8001480:	3301      	adds	r3, #1
 8001482:	62fb      	str	r3, [r7, #44]	@ 0x2c
 8001484:	6afb      	ldr	r3, [r7, #44]	@ 0x2c
 8001486:	2b02      	cmp	r3, #2
 8001488:	f77f af69 	ble.w	800135e <CalculateKinematics+0x26>
 800148c:	bf00      	nop
 800148e:	bf00      	nop
 8001490:	3730      	adds	r7, #48	@ 0x30
 8001492:	46bd      	mov	sp, r7
 8001494:	e8bd 83b0 	ldmia.w	sp!, {r4, r5, r7, r8, r9, pc}
 8001498:	40668000 	.word	0x40668000
 800149c:	54442d18 	.word	0x54442d18
 80014a0:	400921fb 	.word	0x400921fb

080014a4 <Decoding>:
 80014a4:	b480      	push	{r7}
 80014a6:	af00      	add	r7, sp, #0
 80014a8:	4b14      	ldr	r3, [pc, #80]	@ (80014fc <Decoding+0x58>)
 80014aa:	789b      	ldrb	r3, [r3, #2]
 80014ac:	b21b      	sxth	r3, r3
 80014ae:	021b      	lsls	r3, r3, #8
 80014b0:	b21a      	sxth	r2, r3
 80014b2:	4b12      	ldr	r3, [pc, #72]	@ (80014fc <Decoding+0x58>)
 80014b4:	78db      	ldrb	r3, [r3, #3]
 80014b6:	b21b      	sxth	r3, r3
 80014b8:	4313      	orrs	r3, r2
 80014ba:	b21a      	sxth	r2, r3
 80014bc:	4b10      	ldr	r3, [pc, #64]	@ (8001500 <Decoding+0x5c>)
 80014be:	801a      	strh	r2, [r3, #0]
 80014c0:	4b0e      	ldr	r3, [pc, #56]	@ (80014fc <Decoding+0x58>)
 80014c2:	791b      	ldrb	r3, [r3, #4]
 80014c4:	b21b      	sxth	r3, r3
 80014c6:	021b      	lsls	r3, r3, #8
 80014c8:	b21a      	sxth	r2, r3
 80014ca:	4b0c      	ldr	r3, [pc, #48]	@ (80014fc <Decoding+0x58>)
 80014cc:	795b      	ldrb	r3, [r3, #5]
 80014ce:	b21b      	sxth	r3, r3
 80014d0:	4313      	orrs	r3, r2
 80014d2:	b21a      	sxth	r2, r3
 80014d4:	4b0b      	ldr	r3, [pc, #44]	@ (8001504 <Decoding+0x60>)
 80014d6:	801a      	strh	r2, [r3, #0]
 80014d8:	4b08      	ldr	r3, [pc, #32]	@ (80014fc <Decoding+0x58>)
 80014da:	799b      	ldrb	r3, [r3, #6]
 80014dc:	b21b      	sxth	r3, r3
 80014de:	021b      	lsls	r3, r3, #8
 80014e0:	b21a      	sxth	r2, r3
 80014e2:	4b06      	ldr	r3, [pc, #24]	@ (80014fc <Decoding+0x58>)
 80014e4:	79db      	ldrb	r3, [r3, #7]
 80014e6:	b21b      	sxth	r3, r3
 80014e8:	4313      	orrs	r3, r2
 80014ea:	b21a      	sxth	r2, r3
 80014ec:	4b06      	ldr	r3, [pc, #24]	@ (8001508 <Decoding+0x64>)
 80014ee:	801a      	strh	r2, [r3, #0]
 80014f0:	bf00      	nop
 80014f2:	46bd      	mov	sp, r7
 80014f4:	f85d 7b04 	ldr.w	r7, [sp], #4
 80014f8:	4770      	bx	lr
 80014fa:	bf00      	nop
 80014fc:	200004a8 	.word	0x200004a8
 8001500:	200004ea 	.word	0x200004ea
 8001504:	200004ec 	.word	0x200004ec
 8001508:	200004ee 	.word	0x200004ee
 800150c:	00000000 	.word	0x00000000

08001510 <main>:
 8001510:	e92d 41f0 	stmdb	sp!, {r4, r5, r6, r7, r8, lr}
 8001514:	b084      	sub	sp, #16
 8001516:	af00      	add	r7, sp, #0
 8001518:	f000 fee5 	bl	80022e6 <HAL_Init>
 800151c:	a3bc      	add	r3, pc, #752	@ (adr r3, 8001810 <main+0x300>)
 800151e:	e9d3 2300 	ldrd	r2, r3, [r3]
 8001522:	4610      	mov	r0, r2
 8001524:	4619      	mov	r1, r3
 8001526:	f7ff faf5 	bl	8000b14 <__aeabi_d2uiz>
 800152a:	4604      	mov	r4, r0
 800152c:	a3b8      	add	r3, pc, #736	@ (adr r3, 8001810 <main+0x300>)
 800152e:	e9d3 2300 	ldrd	r2, r3, [r3]
 8001532:	4610      	mov	r0, r2
 8001534:	4619      	mov	r1, r3
 8001536:	f7ff faed 	bl	8000b14 <__aeabi_d2uiz>
 800153a:	4605      	mov	r5, r0
 800153c:	f04f 0200 	mov.w	r2, #0
 8001540:	4bb5      	ldr	r3, [pc, #724]	@ (8001818 <main+0x308>)
 8001542:	4610      	mov	r0, r2
 8001544:	4619      	mov	r1, r3
 8001546:	f7ff fb05 	bl	8000b54 <__aeabi_d2f>
 800154a:	4606      	mov	r6, r0
 800154c:	f04f 0200 	mov.w	r2, #0
 8001550:	4bb2      	ldr	r3, [pc, #712]	@ (800181c <main+0x30c>)
 8001552:	4610      	mov	r0, r2
 8001554:	4619      	mov	r1, r3
 8001556:	f7ff fafd 	bl	8000b54 <__aeabi_d2f>
 800155a:	4680      	mov	r8, r0
 800155c:	f04f 0200 	mov.w	r2, #0
 8001560:	4baf      	ldr	r3, [pc, #700]	@ (8001820 <main+0x310>)
 8001562:	4610      	mov	r0, r2
 8001564:	4619      	mov	r1, r3
 8001566:	f7ff faf5 	bl	8000b54 <__aeabi_d2f>
 800156a:	4603      	mov	r3, r0
 800156c:	ee01 3a10 	vmov	s2, r3
 8001570:	ee00 8a90 	vmov	s1, r8
 8001574:	ee00 6a10 	vmov	s0, r6
 8001578:	462b      	mov	r3, r5
 800157a:	4622      	mov	r2, r4
 800157c:	2103      	movs	r1, #3
 800157e:	48a9      	ldr	r0, [pc, #676]	@ (8001824 <main+0x314>)
 8001580:	f000 fd5c 	bl	800203c <PID_struct_init>
 8001584:	a3a2      	add	r3, pc, #648	@ (adr r3, 8001810 <main+0x300>)
 8001586:	e9d3 2300 	ldrd	r2, r3, [r3]
 800158a:	4610      	mov	r0, r2
 800158c:	4619      	mov	r1, r3
 800158e:	f7ff fac1 	bl	8000b14 <__aeabi_d2uiz>
 8001592:	4604      	mov	r4, r0
 8001594:	a39e      	add	r3, pc, #632	@ (adr r3, 8001810 <main+0x300>)
 8001596:	e9d3 2300 	ldrd	r2, r3, [r3]
 800159a:	4610      	mov	r0, r2
 800159c:	4619      	mov	r1, r3
 800159e:	f7ff fab9 	bl	8000b14 <__aeabi_d2uiz>
 80015a2:	4605      	mov	r5, r0
 80015a4:	f04f 0200 	mov.w	r2, #0
 80015a8:	4b9b      	ldr	r3, [pc, #620]	@ (8001818 <main+0x308>)
 80015aa:	4610      	mov	r0, r2
 80015ac:	4619      	mov	r1, r3
 80015ae:	f7ff fad1 	bl	8000b54 <__aeabi_d2f>
 80015b2:	4606      	mov	r6, r0
 80015b4:	f04f 0200 	mov.w	r2, #0
 80015b8:	4b98      	ldr	r3, [pc, #608]	@ (800181c <main+0x30c>)
 80015ba:	4610      	mov	r0, r2
 80015bc:	4619      	mov	r1, r3
 80015be:	f7ff fac9 	bl	8000b54 <__aeabi_d2f>
 80015c2:	4680      	mov	r8, r0
 80015c4:	f04f 0200 	mov.w	r2, #0
 80015c8:	4b95      	ldr	r3, [pc, #596]	@ (8001820 <main+0x310>)
 80015ca:	4610      	mov	r0, r2
 80015cc:	4619      	mov	r1, r3
 80015ce:	f7ff fac1 	bl	8000b54 <__aeabi_d2f>
 80015d2:	4603      	mov	r3, r0
 80015d4:	ee01 3a10 	vmov	s2, r3
 80015d8:	ee00 8a90 	vmov	s1, r8
 80015dc:	ee00 6a10 	vmov	s0, r6
 80015e0:	462b      	mov	r3, r5
 80015e2:	4622      	mov	r2, r4
 80015e4:	2103      	movs	r1, #3
 80015e6:	4890      	ldr	r0, [pc, #576]	@ (8001828 <main+0x318>)
 80015e8:	f000 fd28 	bl	800203c <PID_struct_init>
 80015ec:	a388      	add	r3, pc, #544	@ (adr r3, 8001810 <main+0x300>)
 80015ee:	e9d3 2300 	ldrd	r2, r3, [r3]
 80015f2:	4610      	mov	r0, r2
 80015f4:	4619      	mov	r1, r3
 80015f6:	f7ff fa8d 	bl	8000b14 <__aeabi_d2uiz>
 80015fa:	4604      	mov	r4, r0
 80015fc:	a384      	add	r3, pc, #528	@ (adr r3, 8001810 <main+0x300>)
 80015fe:	e9d3 2300 	ldrd	r2, r3, [r3]
 8001602:	4610      	mov	r0, r2
 8001604:	4619      	mov	r1, r3
 8001606:	f7ff fa85 	bl	8000b14 <__aeabi_d2uiz>
 800160a:	4605      	mov	r5, r0
 800160c:	f04f 0200 	mov.w	r2, #0
 8001610:	4b81      	ldr	r3, [pc, #516]	@ (8001818 <main+0x308>)
 8001612:	4610      	mov	r0, r2
 8001614:	4619      	mov	r1, r3
 8001616:	f7ff fa9d 	bl	8000b54 <__aeabi_d2f>
 800161a:	4606      	mov	r6, r0
 800161c:	f04f 0200 	mov.w	r2, #0
 8001620:	4b7e      	ldr	r3, [pc, #504]	@ (800181c <main+0x30c>)
 8001622:	4610      	mov	r0, r2
 8001624:	4619      	mov	r1, r3
 8001626:	f7ff fa95 	bl	8000b54 <__aeabi_d2f>
 800162a:	4680      	mov	r8, r0
 800162c:	f04f 0200 	mov.w	r2, #0
 8001630:	4b7b      	ldr	r3, [pc, #492]	@ (8001820 <main+0x310>)
 8001632:	4610      	mov	r0, r2
 8001634:	4619      	mov	r1, r3
 8001636:	f7ff fa8d 	bl	8000b54 <__aeabi_d2f>
 800163a:	4603      	mov	r3, r0
 800163c:	ee01 3a10 	vmov	s2, r3
 8001640:	ee00 8a90 	vmov	s1, r8
 8001644:	ee00 6a10 	vmov	s0, r6
 8001648:	462b      	mov	r3, r5
 800164a:	4622      	mov	r2, r4
 800164c:	2103      	movs	r1, #3
 800164e:	4877      	ldr	r0, [pc, #476]	@ (800182c <main+0x31c>)
 8001650:	f000 fcf4 	bl	800203c <PID_struct_init>
 8001654:	a36e      	add	r3, pc, #440	@ (adr r3, 8001810 <main+0x300>)
 8001656:	e9d3 2300 	ldrd	r2, r3, [r3]
 800165a:	4610      	mov	r0, r2
 800165c:	4619      	mov	r1, r3
 800165e:	f7ff fa59 	bl	8000b14 <__aeabi_d2uiz>
 8001662:	4604      	mov	r4, r0
 8001664:	a36a      	add	r3, pc, #424	@ (adr r3, 8001810 <main+0x300>)
 8001666:	e9d3 2300 	ldrd	r2, r3, [r3]
 800166a:	4610      	mov	r0, r2
 800166c:	4619      	mov	r1, r3
 800166e:	f7ff fa51 	bl	8000b14 <__aeabi_d2uiz>
 8001672:	4605      	mov	r5, r0
 8001674:	f04f 0200 	mov.w	r2, #0
 8001678:	4b67      	ldr	r3, [pc, #412]	@ (8001818 <main+0x308>)
 800167a:	4610      	mov	r0, r2
 800167c:	4619      	mov	r1, r3
 800167e:	f7ff fa69 	bl	8000b54 <__aeabi_d2f>
 8001682:	4606      	mov	r6, r0
 8001684:	f04f 0200 	mov.w	r2, #0
 8001688:	4b64      	ldr	r3, [pc, #400]	@ (800181c <main+0x30c>)
 800168a:	4610      	mov	r0, r2
 800168c:	4619      	mov	r1, r3
 800168e:	f7ff fa61 	bl	8000b54 <__aeabi_d2f>
 8001692:	4680      	mov	r8, r0
 8001694:	f04f 0200 	mov.w	r2, #0
 8001698:	4b61      	ldr	r3, [pc, #388]	@ (8001820 <main+0x310>)
 800169a:	4610      	mov	r0, r2
 800169c:	4619      	mov	r1, r3
 800169e:	f7ff fa59 	bl	8000b54 <__aeabi_d2f>
 80016a2:	4603      	mov	r3, r0
 80016a4:	ee01 3a10 	vmov	s2, r3
 80016a8:	ee00 8a90 	vmov	s1, r8
 80016ac:	ee00 6a10 	vmov	s0, r6
 80016b0:	462b      	mov	r3, r5
 80016b2:	4622      	mov	r2, r4
 80016b4:	2103      	movs	r1, #3
 80016b6:	485e      	ldr	r0, [pc, #376]	@ (8001830 <main+0x320>)
 80016b8:	f000 fcc0 	bl	800203c <PID_struct_init>
 80016bc:	f000 f8ce 	bl	800185c <SystemClock_Config>
 80016c0:	f000 f9aa 	bl	8001a18 <MX_GPIO_Init>
 80016c4:	f000 f916 	bl	80018f4 <MX_FDCAN2_Init>
 80016c8:	f000 f95a 	bl	8001980 <MX_USART1_UART_Init>
 80016cc:	f00a f9c4 	bl	800ba58 <MX_USB_Device_Init>
 80016d0:	f000 fce6 	bl	80020a0 <UART_Init>
 80016d4:	f7ff fd20 	bl	8001118 <CAN_INIT>
 80016d8:	f7ff fd6a 	bl	80011b0 <Robot_base_movement_init>
 80016dc:	f107 0308 	add.w	r3, r7, #8
 80016e0:	2200      	movs	r2, #0
 80016e2:	601a      	str	r2, [r3, #0]
 80016e4:	605a      	str	r2, [r3, #4]
 80016e6:	2300      	movs	r3, #0
 80016e8:	713b      	strb	r3, [r7, #4]
 80016ea:	f7ff fedb 	bl	80014a4 <Decoding>
 80016ee:	4b51      	ldr	r3, [pc, #324]	@ (8001834 <main+0x324>)
 80016f0:	785b      	ldrb	r3, [r3, #1]
 80016f2:	2b01      	cmp	r3, #1
 80016f4:	d106      	bne.n	8001704 <main+0x1f4>
 80016f6:	f04f 33ff 	mov.w	r3, #4294967295	@ 0xffffffff
 80016fa:	2204      	movs	r2, #4
 80016fc:	494e      	ldr	r1, [pc, #312]	@ (8001838 <main+0x328>)
 80016fe:	484f      	ldr	r0, [pc, #316]	@ (800183c <main+0x32c>)
 8001700:	f004 fe02 	bl	8006308 <HAL_UART_Transmit>
 8001704:	4b4e      	ldr	r3, [pc, #312]	@ (8001840 <main+0x330>)
 8001706:	f9b3 3000 	ldrsh.w	r3, [r3]
 800170a:	b29b      	uxth	r3, r3
 800170c:	425b      	negs	r3, r3
 800170e:	b29b      	uxth	r3, r3
 8001710:	b21b      	sxth	r3, r3
 8001712:	813b      	strh	r3, [r7, #8]
 8001714:	4b4b      	ldr	r3, [pc, #300]	@ (8001844 <main+0x334>)
 8001716:	f9b3 3000 	ldrsh.w	r3, [r3]
 800171a:	b29b      	uxth	r3, r3
 800171c:	425b      	negs	r3, r3
 800171e:	b29b      	uxth	r3, r3
 8001720:	b21b      	sxth	r3, r3
 8001722:	817b      	strh	r3, [r7, #10]
 8001724:	4b48      	ldr	r3, [pc, #288]	@ (8001848 <main+0x338>)
 8001726:	f9b3 3000 	ldrsh.w	r3, [r3]
 800172a:	81bb      	strh	r3, [r7, #12]
 800172c:	4b47      	ldr	r3, [pc, #284]	@ (800184c <main+0x33c>)
 800172e:	edd3 7a00 	vldr	s15, [r3]
 8001732:	eef1 7a67 	vneg.f32	s15, s15
 8001736:	eefd 7ae7 	vcvt.s32.f32	s15, s15
 800173a:	ee17 3a90 	vmov	r3, s15
 800173e:	b21b      	sxth	r3, r3
 8001740:	81fb      	strh	r3, [r7, #14]
 8001742:	4b3c      	ldr	r3, [pc, #240]	@ (8001834 <main+0x324>)
 8001744:	781b      	ldrb	r3, [r3, #0]
 8001746:	713b      	strb	r3, [r7, #4]
 8001748:	4b41      	ldr	r3, [pc, #260]	@ (8001850 <main+0x340>)
 800174a:	f9b3 3000 	ldrsh.w	r3, [r3]
 800174e:	ee07 3a90 	vmov	s15, r3
 8001752:	eef8 7ae7 	vcvt.f32.s32	s15, s15
 8001756:	4b3f      	ldr	r3, [pc, #252]	@ (8001854 <main+0x344>)
 8001758:	f9b3 3000 	ldrsh.w	r3, [r3]
 800175c:	ee07 3a10 	vmov	s14, r3
 8001760:	eeb8 7ac7 	vcvt.f32.s32	s14, s14
 8001764:	eef0 0a47 	vmov.f32	s1, s14
 8001768:	eeb0 0a67 	vmov.f32	s0, s15
 800176c:	482d      	ldr	r0, [pc, #180]	@ (8001824 <main+0x314>)
 800176e:	f000 fb58 	bl	8001e22 <pid_calc>
 8001772:	eef0 7a40 	vmov.f32	s15, s0
 8001776:	eefd 7ae7 	vcvt.s32.f32	s15, s15
 800177a:	ee17 3a90 	vmov	r3, s15
 800177e:	b21a      	sxth	r2, r3
 8001780:	4b35      	ldr	r3, [pc, #212]	@ (8001858 <main+0x348>)
 8001782:	801a      	strh	r2, [r3, #0]
 8001784:	4b32      	ldr	r3, [pc, #200]	@ (8001850 <main+0x340>)
 8001786:	f9b3 3002 	ldrsh.w	r3, [r3, #2]
 800178a:	ee07 3a90 	vmov	s15, r3
 800178e:	eef8 7ae7 	vcvt.f32.s32	s15, s15
 8001792:	4b30      	ldr	r3, [pc, #192]	@ (8001854 <main+0x344>)
 8001794:	f9b3 3002 	ldrsh.w	r3, [r3, #2]
 8001798:	ee07 3a10 	vmov	s14, r3
 800179c:	eeb8 7ac7 	vcvt.f32.s32	s14, s14
 80017a0:	eef0 0a47 	vmov.f32	s1, s14
 80017a4:	eeb0 0a67 	vmov.f32	s0, s15
 80017a8:	481f      	ldr	r0, [pc, #124]	@ (8001828 <main+0x318>)
 80017aa:	f000 fb3a 	bl	8001e22 <pid_calc>
 80017ae:	eef0 7a40 	vmov.f32	s15, s0
 80017b2:	eefd 7ae7 	vcvt.s32.f32	s15, s15
 80017b6:	ee17 3a90 	vmov	r3, s15
 80017ba:	b21a      	sxth	r2, r3
 80017bc:	4b26      	ldr	r3, [pc, #152]	@ (8001858 <main+0x348>)
 80017be:	805a      	strh	r2, [r3, #2]
 80017c0:	4b23      	ldr	r3, [pc, #140]	@ (8001850 <main+0x340>)
 80017c2:	f9b3 3004 	ldrsh.w	r3, [r3, #4]
 80017c6:	ee07 3a90 	vmov	s15, r3
 80017ca:	eef8 7ae7 	vcvt.f32.s32	s15, s15
 80017ce:	4b21      	ldr	r3, [pc, #132]	@ (8001854 <main+0x344>)
 80017d0:	f9b3 3004 	ldrsh.w	r3, [r3, #4]
 80017d4:	ee07 3a10 	vmov	s14, r3
 80017d8:	eeb8 7ac7 	vcvt.f32.s32	s14, s14
 80017dc:	eef0 0a47 	vmov.f32	s1, s14
 80017e0:	eeb0 0a67 	vmov.f32	s0, s15
 80017e4:	4811      	ldr	r0, [pc, #68]	@ (800182c <main+0x31c>)
 80017e6:	f000 fb1c 	bl	8001e22 <pid_calc>
 80017ea:	eef0 7a40 	vmov.f32	s15, s0
 80017ee:	eefd 7ae7 	vcvt.s32.f32	s15, s15
 80017f2:	ee17 3a90 	vmov	r3, s15
 80017f6:	b21a      	sxth	r2, r3
 80017f8:	4b17      	ldr	r3, [pc, #92]	@ (8001858 <main+0x348>)
 80017fa:	809a      	strh	r2, [r3, #4]
 80017fc:	1d3a      	adds	r2, r7, #4
 80017fe:	f107 0308 	add.w	r3, r7, #8
 8001802:	4611      	mov	r1, r2
 8001804:	4618      	mov	r0, r3
 8001806:	f7ff fceb 	bl	80011e0 <Robot_base_movement_start>
 800180a:	f7ff fc03 	bl	8001014 <CAN_tran>
 800180e:	e76c      	b.n	80016ea <main+0x1da>
 8001810:	00000000 	.word	0x00000000
 8001814:	40cd4c00 	.word	0x40cd4c00
 8001818:	40240000 	.word	0x40240000
 800181c:	40180000 	.word	0x40180000
 8001820:	40340000 	.word	0x40340000
 8001824:	20000280 	.word	0x20000280
 8001828:	200002cc 	.word	0x200002cc
 800182c:	20000318 	.word	0x20000318
 8001830:	20000364 	.word	0x20000364
 8001834:	200004a8 	.word	0x200004a8
 8001838:	0800d5c8 	.word	0x0800d5c8
 800183c:	20000414 	.word	0x20000414
 8001840:	200004ec 	.word	0x200004ec
 8001844:	200004ea 	.word	0x200004ea
 8001848:	200004ee 	.word	0x200004ee
 800184c:	200004f0 	.word	0x200004f0
 8001850:	20000508 	.word	0x20000508
 8001854:	20000528 	.word	0x20000528
 8001858:	20000518 	.word	0x20000518

0800185c <SystemClock_Config>:
 800185c:	b580      	push	{r7, lr}
 800185e:	b094      	sub	sp, #80	@ 0x50
 8001860:	af00      	add	r7, sp, #0
 8001862:	f107 0318 	add.w	r3, r7, #24
 8001866:	2238      	movs	r2, #56	@ 0x38
 8001868:	2100      	movs	r1, #0
 800186a:	4618      	mov	r0, r3
 800186c:	f00a fdee 	bl	800c44c <memset>
 8001870:	1d3b      	adds	r3, r7, #4
 8001872:	2200      	movs	r2, #0
 8001874:	601a      	str	r2, [r3, #0]
 8001876:	605a      	str	r2, [r3, #4]
 8001878:	609a      	str	r2, [r3, #8]
 800187a:	60da      	str	r2, [r3, #12]
 800187c:	611a      	str	r2, [r3, #16]
 800187e:	f44f 7000 	mov.w	r0, #512	@ 0x200
 8001882:	f003 fcc1 	bl	8005208 <HAL_PWREx_ControlVoltageScaling>
 8001886:	2302      	movs	r3, #2
 8001888:	61bb      	str	r3, [r7, #24]
 800188a:	f44f 7380 	mov.w	r3, #256	@ 0x100
 800188e:	627b      	str	r3, [r7, #36]	@ 0x24
 8001890:	2340      	movs	r3, #64	@ 0x40
 8001892:	62bb      	str	r3, [r7, #40]	@ 0x28
 8001894:	2302      	movs	r3, #2
 8001896:	637b      	str	r3, [r7, #52]	@ 0x34
 8001898:	2302      	movs	r3, #2
 800189a:	63bb      	str	r3, [r7, #56]	@ 0x38
 800189c:	2301      	movs	r3, #1
 800189e:	63fb      	str	r3, [r7, #60]	@ 0x3c
 80018a0:	2312      	movs	r3, #18
 80018a2:	643b      	str	r3, [r7, #64]	@ 0x40
 80018a4:	2302      	movs	r3, #2
 80018a6:	647b      	str	r3, [r7, #68]	@ 0x44
 80018a8:	2306      	movs	r3, #6
 80018aa:	64bb      	str	r3, [r7, #72]	@ 0x48
 80018ac:	2302      	movs	r3, #2
 80018ae:	64fb      	str	r3, [r7, #76]	@ 0x4c
 80018b0:	f107 0318 	add.w	r3, r7, #24
 80018b4:	4618      	mov	r0, r3
 80018b6:	f003 fd5b 	bl	8005370 <HAL_RCC_OscConfig>
 80018ba:	4603      	mov	r3, r0
 80018bc:	2b00      	cmp	r3, #0
 80018be:	d001      	beq.n	80018c4 <SystemClock_Config+0x68>
 80018c0:	f000 f8e6 	bl	8001a90 <Error_Handler>
 80018c4:	230f      	movs	r3, #15
 80018c6:	607b      	str	r3, [r7, #4]
 80018c8:	2303      	movs	r3, #3
 80018ca:	60bb      	str	r3, [r7, #8]
 80018cc:	2300      	movs	r3, #0
 80018ce:	60fb      	str	r3, [r7, #12]
 80018d0:	2300      	movs	r3, #0
 80018d2:	613b      	str	r3, [r7, #16]
 80018d4:	2300      	movs	r3, #0
 80018d6:	617b      	str	r3, [r7, #20]
 80018d8:	1d3b      	adds	r3, r7, #4
 80018da:	2104      	movs	r1, #4
 80018dc:	4618      	mov	r0, r3
 80018de:	f004 f859 	bl	8005994 <HAL_RCC_ClockConfig>
 80018e2:	4603      	mov	r3, r0
 80018e4:	2b00      	cmp	r3, #0
 80018e6:	d001      	beq.n	80018ec <SystemClock_Config+0x90>
 80018e8:	f000 f8d2 	bl	8001a90 <Error_Handler>
 80018ec:	bf00      	nop
 80018ee:	3750      	adds	r7, #80	@ 0x50
 80018f0:	46bd      	mov	sp, r7
 80018f2:	bd80      	pop	{r7, pc}

080018f4 <MX_FDCAN2_Init>:
 80018f4:	b580      	push	{r7, lr}
 80018f6:	af00      	add	r7, sp, #0
 80018f8:	4b1f      	ldr	r3, [pc, #124]	@ (8001978 <MX_FDCAN2_Init+0x84>)
 80018fa:	4a20      	ldr	r2, [pc, #128]	@ (800197c <MX_FDCAN2_Init+0x88>)
 80018fc:	601a      	str	r2, [r3, #0]
 80018fe:	4b1e      	ldr	r3, [pc, #120]	@ (8001978 <MX_FDCAN2_Init+0x84>)
 8001900:	2200      	movs	r2, #0
 8001902:	605a      	str	r2, [r3, #4]
 8001904:	4b1c      	ldr	r3, [pc, #112]	@ (8001978 <MX_FDCAN2_Init+0x84>)
 8001906:	2200      	movs	r2, #0
 8001908:	609a      	str	r2, [r3, #8]
 800190a:	4b1b      	ldr	r3, [pc, #108]	@ (8001978 <MX_FDCAN2_Init+0x84>)
 800190c:	2200      	movs	r2, #0
 800190e:	60da      	str	r2, [r3, #12]
 8001910:	4b19      	ldr	r3, [pc, #100]	@ (8001978 <MX_FDCAN2_Init+0x84>)
 8001912:	2200      	movs	r2, #0
 8001914:	741a      	strb	r2, [r3, #16]
 8001916:	4b18      	ldr	r3, [pc, #96]	@ (8001978 <MX_FDCAN2_Init+0x84>)
 8001918:	2200      	movs	r2, #0
 800191a:	745a      	strb	r2, [r3, #17]
 800191c:	4b16      	ldr	r3, [pc, #88]	@ (8001978 <MX_FDCAN2_Init+0x84>)
 800191e:	2200      	movs	r2, #0
 8001920:	749a      	strb	r2, [r3, #18]
 8001922:	4b15      	ldr	r3, [pc, #84]	@ (8001978 <MX_FDCAN2_Init+0x84>)
 8001924:	2210      	movs	r2, #16
 8001926:	615a      	str	r2, [r3, #20]
 8001928:	4b13      	ldr	r3, [pc, #76]	@ (8001978 <MX_FDCAN2_Init+0x84>)
 800192a:	2201      	movs	r2, #1
 800192c:	619a      	str	r2, [r3, #24]
 800192e:	4b12      	ldr	r3, [pc, #72]	@ (8001978 <MX_FDCAN2_Init+0x84>)
 8001930:	2206      	movs	r2, #6
 8001932:	61da      	str	r2, [r3, #28]
 8001934:	4b10      	ldr	r3, [pc, #64]	@ (8001978 <MX_FDCAN2_Init+0x84>)
 8001936:	2202      	movs	r2, #2
 8001938:	621a      	str	r2, [r3, #32]
 800193a:	4b0f      	ldr	r3, [pc, #60]	@ (8001978 <MX_FDCAN2_Init+0x84>)
 800193c:	2201      	movs	r2, #1
 800193e:	625a      	str	r2, [r3, #36]	@ 0x24
 8001940:	4b0d      	ldr	r3, [pc, #52]	@ (8001978 <MX_FDCAN2_Init+0x84>)
 8001942:	2201      	movs	r2, #1
 8001944:	629a      	str	r2, [r3, #40]	@ 0x28
 8001946:	4b0c      	ldr	r3, [pc, #48]	@ (8001978 <MX_FDCAN2_Init+0x84>)
 8001948:	2201      	movs	r2, #1
 800194a:	62da      	str	r2, [r3, #44]	@ 0x2c
 800194c:	4b0a      	ldr	r3, [pc, #40]	@ (8001978 <MX_FDCAN2_Init+0x84>)
 800194e:	2201      	movs	r2, #1
 8001950:	631a      	str	r2, [r3, #48]	@ 0x30
 8001952:	4b09      	ldr	r3, [pc, #36]	@ (8001978 <MX_FDCAN2_Init+0x84>)
 8001954:	2200      	movs	r2, #0
 8001956:	635a      	str	r2, [r3, #52]	@ 0x34
 8001958:	4b07      	ldr	r3, [pc, #28]	@ (8001978 <MX_FDCAN2_Init+0x84>)
 800195a:	2200      	movs	r2, #0
 800195c:	639a      	str	r2, [r3, #56]	@ 0x38
 800195e:	4b06      	ldr	r3, [pc, #24]	@ (8001978 <MX_FDCAN2_Init+0x84>)
 8001960:	2200      	movs	r2, #0
 8001962:	63da      	str	r2, [r3, #60]	@ 0x3c
 8001964:	4804      	ldr	r0, [pc, #16]	@ (8001978 <MX_FDCAN2_Init+0x84>)
 8001966:	f000 ff21 	bl	80027ac <HAL_FDCAN_Init>
 800196a:	4603      	mov	r3, r0
 800196c:	2b00      	cmp	r3, #0
 800196e:	d001      	beq.n	8001974 <MX_FDCAN2_Init+0x80>
 8001970:	f000 f88e 	bl	8001a90 <Error_Handler>
 8001974:	bf00      	nop
 8001976:	bd80      	pop	{r7, pc}
 8001978:	200003b0 	.word	0x200003b0
 800197c:	40006800 	.word	0x40006800

08001980 <MX_USART1_UART_Init>:
 8001980:	b580      	push	{r7, lr}
 8001982:	af00      	add	r7, sp, #0
 8001984:	4b22      	ldr	r3, [pc, #136]	@ (8001a10 <MX_USART1_UART_Init+0x90>)
 8001986:	4a23      	ldr	r2, [pc, #140]	@ (8001a14 <MX_USART1_UART_Init+0x94>)
 8001988:	601a      	str	r2, [r3, #0]
 800198a:	4b21      	ldr	r3, [pc, #132]	@ (8001a10 <MX_USART1_UART_Init+0x90>)
 800198c:	f44f 32e1 	mov.w	r2, #115200	@ 0x1c200
 8001990:	605a      	str	r2, [r3, #4]
 8001992:	4b1f      	ldr	r3, [pc, #124]	@ (8001a10 <MX_USART1_UART_Init+0x90>)
 8001994:	2200      	movs	r2, #0
 8001996:	609a      	str	r2, [r3, #8]
 8001998:	4b1d      	ldr	r3, [pc, #116]	@ (8001a10 <MX_USART1_UART_Init+0x90>)
 800199a:	2200      	movs	r2, #0
 800199c:	60da      	str	r2, [r3, #12]
 800199e:	4b1c      	ldr	r3, [pc, #112]	@ (8001a10 <MX_USART1_UART_Init+0x90>)
 80019a0:	2200      	movs	r2, #0
 80019a2:	611a      	str	r2, [r3, #16]
 80019a4:	4b1a      	ldr	r3, [pc, #104]	@ (8001a10 <MX_USART1_UART_Init+0x90>)
 80019a6:	220c      	movs	r2, #12
 80019a8:	615a      	str	r2, [r3, #20]
 80019aa:	4b19      	ldr	r3, [pc, #100]	@ (8001a10 <MX_USART1_UART_Init+0x90>)
 80019ac:	2200      	movs	r2, #0
 80019ae:	619a      	str	r2, [r3, #24]
 80019b0:	4b17      	ldr	r3, [pc, #92]	@ (8001a10 <MX_USART1_UART_Init+0x90>)
 80019b2:	2200      	movs	r2, #0
 80019b4:	61da      	str	r2, [r3, #28]
 80019b6:	4b16      	ldr	r3, [pc, #88]	@ (8001a10 <MX_USART1_UART_Init+0x90>)
 80019b8:	2200      	movs	r2, #0
 80019ba:	621a      	str	r2, [r3, #32]
 80019bc:	4b14      	ldr	r3, [pc, #80]	@ (8001a10 <MX_USART1_UART_Init+0x90>)
 80019be:	2200      	movs	r2, #0
 80019c0:	625a      	str	r2, [r3, #36]	@ 0x24
 80019c2:	4b13      	ldr	r3, [pc, #76]	@ (8001a10 <MX_USART1_UART_Init+0x90>)
 80019c4:	2200      	movs	r2, #0
 80019c6:	629a      	str	r2, [r3, #40]	@ 0x28
 80019c8:	4811      	ldr	r0, [pc, #68]	@ (8001a10 <MX_USART1_UART_Init+0x90>)
 80019ca:	f004 fc4d 	bl	8006268 <HAL_UART_Init>
 80019ce:	4603      	mov	r3, r0
 80019d0:	2b00      	cmp	r3, #0
 80019d2:	d001      	beq.n	80019d8 <MX_USART1_UART_Init+0x58>
 80019d4:	f000 f85c 	bl	8001a90 <Error_Handler>
 80019d8:	2100      	movs	r1, #0
 80019da:	480d      	ldr	r0, [pc, #52]	@ (8001a10 <MX_USART1_UART_Init+0x90>)
 80019dc:	f006 fcc3 	bl	8008366 <HAL_UARTEx_SetTxFifoThreshold>
 80019e0:	4603      	mov	r3, r0
 80019e2:	2b00      	cmp	r3, #0
 80019e4:	d001      	beq.n	80019ea <MX_USART1_UART_Init+0x6a>
 80019e6:	f000 f853 	bl	8001a90 <Error_Handler>
 80019ea:	2100      	movs	r1, #0
 80019ec:	4808      	ldr	r0, [pc, #32]	@ (8001a10 <MX_USART1_UART_Init+0x90>)
 80019ee:	f006 fcf8 	bl	80083e2 <HAL_UARTEx_SetRxFifoThreshold>
 80019f2:	4603      	mov	r3, r0
 80019f4:	2b00      	cmp	r3, #0
 80019f6:	d001      	beq.n	80019fc <MX_USART1_UART_Init+0x7c>
 80019f8:	f000 f84a 	bl	8001a90 <Error_Handler>
 80019fc:	4804      	ldr	r0, [pc, #16]	@ (8001a10 <MX_USART1_UART_Init+0x90>)
 80019fe:	f006 fc79 	bl	80082f4 <HAL_UARTEx_DisableFifoMode>
 8001a02:	4603      	mov	r3, r0
 8001a04:	2b00      	cmp	r3, #0
 8001a06:	d001      	beq.n	8001a0c <MX_USART1_UART_Init+0x8c>
 8001a08:	f000 f842 	bl	8001a90 <Error_Handler>
 8001a0c:	bf00      	nop
 8001a0e:	bd80      	pop	{r7, pc}
 8001a10:	20000414 	.word	0x20000414
 8001a14:	40013800 	.word	0x40013800

08001a18 <MX_GPIO_Init>:
 8001a18:	b480      	push	{r7}
 8001a1a:	b085      	sub	sp, #20
 8001a1c:	af00      	add	r7, sp, #0
 8001a1e:	4b1b      	ldr	r3, [pc, #108]	@ (8001a8c <MX_GPIO_Init+0x74>)
 8001a20:	6cdb      	ldr	r3, [r3, #76]	@ 0x4c
 8001a22:	4a1a      	ldr	r2, [pc, #104]	@ (8001a8c <MX_GPIO_Init+0x74>)
 8001a24:	f043 0320 	orr.w	r3, r3, #32
 8001a28:	64d3      	str	r3, [r2, #76]	@ 0x4c
 8001a2a:	4b18      	ldr	r3, [pc, #96]	@ (8001a8c <MX_GPIO_Init+0x74>)
 8001a2c:	6cdb      	ldr	r3, [r3, #76]	@ 0x4c
 8001a2e:	f003 0320 	and.w	r3, r3, #32
 8001a32:	60fb      	str	r3, [r7, #12]
 8001a34:	68fb      	ldr	r3, [r7, #12]
 8001a36:	4b15      	ldr	r3, [pc, #84]	@ (8001a8c <MX_GPIO_Init+0x74>)
 8001a38:	6cdb      	ldr	r3, [r3, #76]	@ 0x4c
 8001a3a:	4a14      	ldr	r2, [pc, #80]	@ (8001a8c <MX_GPIO_Init+0x74>)
 8001a3c:	f043 0304 	orr.w	r3, r3, #4
 8001a40:	64d3      	str	r3, [r2, #76]	@ 0x4c
 8001a42:	4b12      	ldr	r3, [pc, #72]	@ (8001a8c <MX_GPIO_Init+0x74>)
 8001a44:	6cdb      	ldr	r3, [r3, #76]	@ 0x4c
 8001a46:	f003 0304 	and.w	r3, r3, #4
 8001a4a:	60bb      	str	r3, [r7, #8]
 8001a4c:	68bb      	ldr	r3, [r7, #8]
 8001a4e:	4b0f      	ldr	r3, [pc, #60]	@ (8001a8c <MX_GPIO_Init+0x74>)
 8001a50:	6cdb      	ldr	r3, [r3, #76]	@ 0x4c
 8001a52:	4a0e      	ldr	r2, [pc, #56]	@ (8001a8c <MX_GPIO_Init+0x74>)
 8001a54:	f043 0302 	orr.w	r3, r3, #2
 8001a58:	64d3      	str	r3, [r2, #76]	@ 0x4c
 8001a5a:	4b0c      	ldr	r3, [pc, #48]	@ (8001a8c <MX_GPIO_Init+0x74>)
 8001a5c:	6cdb      	ldr	r3, [r3, #76]	@ 0x4c
 8001a5e:	f003 0302 	and.w	r3, r3, #2
 8001a62:	607b      	str	r3, [r7, #4]
 8001a64:	687b      	ldr	r3, [r7, #4]
 8001a66:	4b09      	ldr	r3, [pc, #36]	@ (8001a8c <MX_GPIO_Init+0x74>)
 8001a68:	6cdb      	ldr	r3, [r3, #76]	@ 0x4c
 8001a6a:	4a08      	ldr	r2, [pc, #32]	@ (8001a8c <MX_GPIO_Init+0x74>)
 8001a6c:	f043 0301 	orr.w	r3, r3, #1
 8001a70:	64d3      	str	r3, [r2, #76]	@ 0x4c
 8001a72:	4b06      	ldr	r3, [pc, #24]	@ (8001a8c <MX_GPIO_Init+0x74>)
 8001a74:	6cdb      	ldr	r3, [r3, #76]	@ 0x4c
 8001a76:	f003 0301 	and.w	r3, r3, #1
 8001a7a:	603b      	str	r3, [r7, #0]
 8001a7c:	683b      	ldr	r3, [r7, #0]
 8001a7e:	bf00      	nop
 8001a80:	3714      	adds	r7, #20
 8001a82:	46bd      	mov	sp, r7
 8001a84:	f85d 7b04 	ldr.w	r7, [sp], #4
 8001a88:	4770      	bx	lr
 8001a8a:	bf00      	nop
 8001a8c:	40021000 	.word	0x40021000

08001a90 <Error_Handler>:
 8001a90:	b480      	push	{r7}
 8001a92:	af00      	add	r7, sp, #0
 8001a94:	b672      	cpsid	i
 8001a96:	bf00      	nop
 8001a98:	bf00      	nop
 8001a9a:	e7fd      	b.n	8001a98 <Error_Handler+0x8>

08001a9c <HAL_MspInit>:
 8001a9c:	b580      	push	{r7, lr}
 8001a9e:	b082      	sub	sp, #8
 8001aa0:	af00      	add	r7, sp, #0
 8001aa2:	4b0f      	ldr	r3, [pc, #60]	@ (8001ae0 <HAL_MspInit+0x44>)
 8001aa4:	6e1b      	ldr	r3, [r3, #96]	@ 0x60
 8001aa6:	4a0e      	ldr	r2, [pc, #56]	@ (8001ae0 <HAL_MspInit+0x44>)
 8001aa8:	f043 0301 	orr.w	r3, r3, #1
 8001aac:	6613      	str	r3, [r2, #96]	@ 0x60
 8001aae:	4b0c      	ldr	r3, [pc, #48]	@ (8001ae0 <HAL_MspInit+0x44>)
 8001ab0:	6e1b      	ldr	r3, [r3, #96]	@ 0x60
 8001ab2:	f003 0301 	and.w	r3, r3, #1
 8001ab6:	607b      	str	r3, [r7, #4]
 8001ab8:	687b      	ldr	r3, [r7, #4]
 8001aba:	4b09      	ldr	r3, [pc, #36]	@ (8001ae0 <HAL_MspInit+0x44>)
 8001abc:	6d9b      	ldr	r3, [r3, #88]	@ 0x58
 8001abe:	4a08      	ldr	r2, [pc, #32]	@ (8001ae0 <HAL_MspInit+0x44>)
 8001ac0:	f043 5380 	orr.w	r3, r3, #268435456	@ 0x10000000
 8001ac4:	6593      	str	r3, [r2, #88]	@ 0x58
 8001ac6:	4b06      	ldr	r3, [pc, #24]	@ (8001ae0 <HAL_MspInit+0x44>)
 8001ac8:	6d9b      	ldr	r3, [r3, #88]	@ 0x58
 8001aca:	f003 5380 	and.w	r3, r3, #268435456	@ 0x10000000
 8001ace:	603b      	str	r3, [r7, #0]
 8001ad0:	683b      	ldr	r3, [r7, #0]
 8001ad2:	f003 fc3d 	bl	8005350 <HAL_PWREx_DisableUCPDDeadBattery>
 8001ad6:	bf00      	nop
 8001ad8:	3708      	adds	r7, #8
 8001ada:	46bd      	mov	sp, r7
 8001adc:	bd80      	pop	{r7, pc}
 8001ade:	bf00      	nop
 8001ae0:	40021000 	.word	0x40021000

08001ae4 <HAL_FDCAN_MspInit>:
 8001ae4:	b580      	push	{r7, lr}
 8001ae6:	b09e      	sub	sp, #120	@ 0x78
 8001ae8:	af00      	add	r7, sp, #0
 8001aea:	6078      	str	r0, [r7, #4]
 8001aec:	f107 0364 	add.w	r3, r7, #100	@ 0x64
 8001af0:	2200      	movs	r2, #0
 8001af2:	601a      	str	r2, [r3, #0]
 8001af4:	605a      	str	r2, [r3, #4]
 8001af6:	609a      	str	r2, [r3, #8]
 8001af8:	60da      	str	r2, [r3, #12]
 8001afa:	611a      	str	r2, [r3, #16]
 8001afc:	f107 0310 	add.w	r3, r7, #16
 8001b00:	2254      	movs	r2, #84	@ 0x54
 8001b02:	2100      	movs	r1, #0
 8001b04:	4618      	mov	r0, r3
 8001b06:	f00a fca1 	bl	800c44c <memset>
 8001b0a:	687b      	ldr	r3, [r7, #4]
 8001b0c:	681b      	ldr	r3, [r3, #0]
 8001b0e:	4a24      	ldr	r2, [pc, #144]	@ (8001ba0 <HAL_FDCAN_MspInit+0xbc>)
 8001b10:	4293      	cmp	r3, r2
 8001b12:	d140      	bne.n	8001b96 <HAL_FDCAN_MspInit+0xb2>
 8001b14:	f44f 5380 	mov.w	r3, #4096	@ 0x1000
 8001b18:	613b      	str	r3, [r7, #16]
 8001b1a:	f04f 7300 	mov.w	r3, #33554432	@ 0x2000000
 8001b1e:	64bb      	str	r3, [r7, #72]	@ 0x48
 8001b20:	f107 0310 	add.w	r3, r7, #16
 8001b24:	4618      	mov	r0, r3
 8001b26:	f004 f951 	bl	8005dcc <HAL_RCCEx_PeriphCLKConfig>
 8001b2a:	4603      	mov	r3, r0
 8001b2c:	2b00      	cmp	r3, #0
 8001b2e:	d001      	beq.n	8001b34 <HAL_FDCAN_MspInit+0x50>
 8001b30:	f7ff ffae 	bl	8001a90 <Error_Handler>
 8001b34:	4b1b      	ldr	r3, [pc, #108]	@ (8001ba4 <HAL_FDCAN_MspInit+0xc0>)
 8001b36:	6d9b      	ldr	r3, [r3, #88]	@ 0x58
 8001b38:	4a1a      	ldr	r2, [pc, #104]	@ (8001ba4 <HAL_FDCAN_MspInit+0xc0>)
 8001b3a:	f043 7300 	orr.w	r3, r3, #33554432	@ 0x2000000
 8001b3e:	6593      	str	r3, [r2, #88]	@ 0x58
 8001b40:	4b18      	ldr	r3, [pc, #96]	@ (8001ba4 <HAL_FDCAN_MspInit+0xc0>)
 8001b42:	6d9b      	ldr	r3, [r3, #88]	@ 0x58
 8001b44:	f003 7300 	and.w	r3, r3, #33554432	@ 0x2000000
 8001b48:	60fb      	str	r3, [r7, #12]
 8001b4a:	68fb      	ldr	r3, [r7, #12]
 8001b4c:	4b15      	ldr	r3, [pc, #84]	@ (8001ba4 <HAL_FDCAN_MspInit+0xc0>)
 8001b4e:	6cdb      	ldr	r3, [r3, #76]	@ 0x4c
 8001b50:	4a14      	ldr	r2, [pc, #80]	@ (8001ba4 <HAL_FDCAN_MspInit+0xc0>)
 8001b52:	f043 0302 	orr.w	r3, r3, #2
 8001b56:	64d3      	str	r3, [r2, #76]	@ 0x4c
 8001b58:	4b12      	ldr	r3, [pc, #72]	@ (8001ba4 <HAL_FDCAN_MspInit+0xc0>)
 8001b5a:	6cdb      	ldr	r3, [r3, #76]	@ 0x4c
 8001b5c:	f003 0302 	and.w	r3, r3, #2
 8001b60:	60bb      	str	r3, [r7, #8]
 8001b62:	68bb      	ldr	r3, [r7, #8]
 8001b64:	f44f 5340 	mov.w	r3, #12288	@ 0x3000
 8001b68:	667b      	str	r3, [r7, #100]	@ 0x64
 8001b6a:	2302      	movs	r3, #2
 8001b6c:	66bb      	str	r3, [r7, #104]	@ 0x68
 8001b6e:	2300      	movs	r3, #0
 8001b70:	66fb      	str	r3, [r7, #108]	@ 0x6c
 8001b72:	2300      	movs	r3, #0
 8001b74:	673b      	str	r3, [r7, #112]	@ 0x70
 8001b76:	2309      	movs	r3, #9
 8001b78:	677b      	str	r3, [r7, #116]	@ 0x74
 8001b7a:	f107 0364 	add.w	r3, r7, #100	@ 0x64
 8001b7e:	4619      	mov	r1, r3
 8001b80:	4809      	ldr	r0, [pc, #36]	@ (8001ba8 <HAL_FDCAN_MspInit+0xc4>)
 8001b82:	f001 fca5 	bl	80034d0 <HAL_GPIO_Init>
 8001b86:	2200      	movs	r2, #0
 8001b88:	2100      	movs	r1, #0
 8001b8a:	2056      	movs	r0, #86	@ 0x56
 8001b8c:	f000 fd19 	bl	80025c2 <HAL_NVIC_SetPriority>
 8001b90:	2056      	movs	r0, #86	@ 0x56
 8001b92:	f000 fd30 	bl	80025f6 <HAL_NVIC_EnableIRQ>
 8001b96:	bf00      	nop
 8001b98:	3778      	adds	r7, #120	@ 0x78
 8001b9a:	46bd      	mov	sp, r7
 8001b9c:	bd80      	pop	{r7, pc}
 8001b9e:	bf00      	nop
 8001ba0:	40006800 	.word	0x40006800
 8001ba4:	40021000 	.word	0x40021000
 8001ba8:	48000400 	.word	0x48000400

08001bac <HAL_UART_MspInit>:
 8001bac:	b580      	push	{r7, lr}
 8001bae:	b09e      	sub	sp, #120	@ 0x78
 8001bb0:	af00      	add	r7, sp, #0
 8001bb2:	6078      	str	r0, [r7, #4]
 8001bb4:	f107 0364 	add.w	r3, r7, #100	@ 0x64
 8001bb8:	2200      	movs	r2, #0
 8001bba:	601a      	str	r2, [r3, #0]
 8001bbc:	605a      	str	r2, [r3, #4]
 8001bbe:	609a      	str	r2, [r3, #8]
 8001bc0:	60da      	str	r2, [r3, #12]
 8001bc2:	611a      	str	r2, [r3, #16]
 8001bc4:	f107 0310 	add.w	r3, r7, #16
 8001bc8:	2254      	movs	r2, #84	@ 0x54
 8001bca:	2100      	movs	r1, #0
 8001bcc:	4618      	mov	r0, r3
 8001bce:	f00a fc3d 	bl	800c44c <memset>
 8001bd2:	687b      	ldr	r3, [r7, #4]
 8001bd4:	681b      	ldr	r3, [r3, #0]
 8001bd6:	4a22      	ldr	r2, [pc, #136]	@ (8001c60 <HAL_UART_MspInit+0xb4>)
 8001bd8:	4293      	cmp	r3, r2
 8001bda:	d13d      	bne.n	8001c58 <HAL_UART_MspInit+0xac>
 8001bdc:	2301      	movs	r3, #1
 8001bde:	613b      	str	r3, [r7, #16]
 8001be0:	2300      	movs	r3, #0
 8001be2:	617b      	str	r3, [r7, #20]
 8001be4:	f107 0310 	add.w	r3, r7, #16
 8001be8:	4618      	mov	r0, r3
 8001bea:	f004 f8ef 	bl	8005dcc <HAL_RCCEx_PeriphCLKConfig>
 8001bee:	4603      	mov	r3, r0
 8001bf0:	2b00      	cmp	r3, #0
 8001bf2:	d001      	beq.n	8001bf8 <HAL_UART_MspInit+0x4c>
 8001bf4:	f7ff ff4c 	bl	8001a90 <Error_Handler>
 8001bf8:	4b1a      	ldr	r3, [pc, #104]	@ (8001c64 <HAL_UART_MspInit+0xb8>)
 8001bfa:	6e1b      	ldr	r3, [r3, #96]	@ 0x60
 8001bfc:	4a19      	ldr	r2, [pc, #100]	@ (8001c64 <HAL_UART_MspInit+0xb8>)
 8001bfe:	f443 4380 	orr.w	r3, r3, #16384	@ 0x4000
 8001c02:	6613      	str	r3, [r2, #96]	@ 0x60
 8001c04:	4b17      	ldr	r3, [pc, #92]	@ (8001c64 <HAL_UART_MspInit+0xb8>)
 8001c06:	6e1b      	ldr	r3, [r3, #96]	@ 0x60
 8001c08:	f403 4380 	and.w	r3, r3, #16384	@ 0x4000
 8001c0c:	60fb      	str	r3, [r7, #12]
 8001c0e:	68fb      	ldr	r3, [r7, #12]
 8001c10:	4b14      	ldr	r3, [pc, #80]	@ (8001c64 <HAL_UART_MspInit+0xb8>)
 8001c12:	6cdb      	ldr	r3, [r3, #76]	@ 0x4c
 8001c14:	4a13      	ldr	r2, [pc, #76]	@ (8001c64 <HAL_UART_MspInit+0xb8>)
 8001c16:	f043 0304 	orr.w	r3, r3, #4
 8001c1a:	64d3      	str	r3, [r2, #76]	@ 0x4c
 8001c1c:	4b11      	ldr	r3, [pc, #68]	@ (8001c64 <HAL_UART_MspInit+0xb8>)
 8001c1e:	6cdb      	ldr	r3, [r3, #76]	@ 0x4c
 8001c20:	f003 0304 	and.w	r3, r3, #4
 8001c24:	60bb      	str	r3, [r7, #8]
 8001c26:	68bb      	ldr	r3, [r7, #8]
 8001c28:	2330      	movs	r3, #48	@ 0x30
 8001c2a:	667b      	str	r3, [r7, #100]	@ 0x64
 8001c2c:	2302      	movs	r3, #2
 8001c2e:	66bb      	str	r3, [r7, #104]	@ 0x68
 8001c30:	2300      	movs	r3, #0
 8001c32:	66fb      	str	r3, [r7, #108]	@ 0x6c
 8001c34:	2300      	movs	r3, #0
 8001c36:	673b      	str	r3, [r7, #112]	@ 0x70
 8001c38:	2307      	movs	r3, #7
 8001c3a:	677b      	str	r3, [r7, #116]	@ 0x74
 8001c3c:	f107 0364 	add.w	r3, r7, #100	@ 0x64
 8001c40:	4619      	mov	r1, r3
 8001c42:	4809      	ldr	r0, [pc, #36]	@ (8001c68 <HAL_UART_MspInit+0xbc>)
 8001c44:	f001 fc44 	bl	80034d0 <HAL_GPIO_Init>
 8001c48:	2200      	movs	r2, #0
 8001c4a:	2100      	movs	r1, #0
 8001c4c:	2025      	movs	r0, #37	@ 0x25
 8001c4e:	f000 fcb8 	bl	80025c2 <HAL_NVIC_SetPriority>
 8001c52:	2025      	movs	r0, #37	@ 0x25
 8001c54:	f000 fccf 	bl	80025f6 <HAL_NVIC_EnableIRQ>
 8001c58:	bf00      	nop
 8001c5a:	3778      	adds	r7, #120	@ 0x78
 8001c5c:	46bd      	mov	sp, r7
 8001c5e:	bd80      	pop	{r7, pc}
 8001c60:	40013800 	.word	0x40013800
 8001c64:	40021000 	.word	0x40021000
 8001c68:	48000800 	.word	0x48000800

08001c6c <NMI_Handler>:
 8001c6c:	b480      	push	{r7}
 8001c6e:	af00      	add	r7, sp, #0
 8001c70:	bf00      	nop
 8001c72:	e7fd      	b.n	8001c70 <NMI_Handler+0x4>

08001c74 <HardFault_Handler>:
 8001c74:	b480      	push	{r7}
 8001c76:	af00      	add	r7, sp, #0
 8001c78:	bf00      	nop
 8001c7a:	e7fd      	b.n	8001c78 <HardFault_Handler+0x4>

08001c7c <MemManage_Handler>:
 8001c7c:	b480      	push	{r7}
 8001c7e:	af00      	add	r7, sp, #0
 8001c80:	bf00      	nop
 8001c82:	e7fd      	b.n	8001c80 <MemManage_Handler+0x4>

08001c84 <BusFault_Handler>:
 8001c84:	b480      	push	{r7}
 8001c86:	af00      	add	r7, sp, #0
 8001c88:	bf00      	nop
 8001c8a:	e7fd      	b.n	8001c88 <BusFault_Handler+0x4>

08001c8c <UsageFault_Handler>:
 8001c8c:	b480      	push	{r7}
 8001c8e:	af00      	add	r7, sp, #0
 8001c90:	bf00      	nop
 8001c92:	e7fd      	b.n	8001c90 <UsageFault_Handler+0x4>

08001c94 <SVC_Handler>:
 8001c94:	b480      	push	{r7}
 8001c96:	af00      	add	r7, sp, #0
 8001c98:	bf00      	nop
 8001c9a:	46bd      	mov	sp, r7
 8001c9c:	f85d 7b04 	ldr.w	r7, [sp], #4
 8001ca0:	4770      	bx	lr

08001ca2 <DebugMon_Handler>:
 8001ca2:	b480      	push	{r7}
 8001ca4:	af00      	add	r7, sp, #0
 8001ca6:	bf00      	nop
 8001ca8:	46bd      	mov	sp, r7
 8001caa:	f85d 7b04 	ldr.w	r7, [sp], #4
 8001cae:	4770      	bx	lr

08001cb0 <PendSV_Handler>:
 8001cb0:	b480      	push	{r7}
 8001cb2:	af00      	add	r7, sp, #0
 8001cb4:	bf00      	nop
 8001cb6:	46bd      	mov	sp, r7
 8001cb8:	f85d 7b04 	ldr.w	r7, [sp], #4
 8001cbc:	4770      	bx	lr

08001cbe <SysTick_Handler>:
 8001cbe:	b580      	push	{r7, lr}
 8001cc0:	af00      	add	r7, sp, #0
 8001cc2:	f000 fb63 	bl	800238c <HAL_IncTick>
 8001cc6:	bf00      	nop
 8001cc8:	bd80      	pop	{r7, pc}
	...

08001ccc <USB_LP_IRQHandler>:
 8001ccc:	b580      	push	{r7, lr}
 8001cce:	af00      	add	r7, sp, #0
 8001cd0:	4802      	ldr	r0, [pc, #8]	@ (8001cdc <USB_LP_IRQHandler+0x10>)
 8001cd2:	f001 fe87 	bl	80039e4 <HAL_PCD_IRQHandler>
 8001cd6:	bf00      	nop
 8001cd8:	bd80      	pop	{r7, pc}
 8001cda:	bf00      	nop
 8001cdc:	20001a20 	.word	0x20001a20

08001ce0 <USART1_IRQHandler>:
 8001ce0:	b580      	push	{r7, lr}
 8001ce2:	af00      	add	r7, sp, #0
 8001ce4:	4802      	ldr	r0, [pc, #8]	@ (8001cf0 <USART1_IRQHandler+0x10>)
 8001ce6:	f004 fbe9 	bl	80064bc <HAL_UART_IRQHandler>
 8001cea:	bf00      	nop
 8001cec:	bd80      	pop	{r7, pc}
 8001cee:	bf00      	nop
 8001cf0:	20000414 	.word	0x20000414

08001cf4 <FDCAN2_IT0_IRQHandler>:
 8001cf4:	b580      	push	{r7, lr}
 8001cf6:	af00      	add	r7, sp, #0
 8001cf8:	4802      	ldr	r0, [pc, #8]	@ (8001d04 <FDCAN2_IT0_IRQHandler+0x10>)
 8001cfa:	f001 f965 	bl	8002fc8 <HAL_FDCAN_IRQHandler>
 8001cfe:	bf00      	nop
 8001d00:	bd80      	pop	{r7, pc}
 8001d02:	bf00      	nop
 8001d04:	200003b0 	.word	0x200003b0

08001d08 <SystemInit>:
 8001d08:	b480      	push	{r7}
 8001d0a:	af00      	add	r7, sp, #0
 8001d0c:	4b06      	ldr	r3, [pc, #24]	@ (8001d28 <SystemInit+0x20>)
 8001d0e:	f8d3 3088 	ldr.w	r3, [r3, #136]	@ 0x88
 8001d12:	4a05      	ldr	r2, [pc, #20]	@ (8001d28 <SystemInit+0x20>)
 8001d14:	f443 0370 	orr.w	r3, r3, #15728640	@ 0xf00000
 8001d18:	f8c2 3088 	str.w	r3, [r2, #136]	@ 0x88
 8001d1c:	bf00      	nop
 8001d1e:	46bd      	mov	sp, r7
 8001d20:	f85d 7b04 	ldr.w	r7, [sp], #4
 8001d24:	4770      	bx	lr
 8001d26:	bf00      	nop
 8001d28:	e000ed00 	.word	0xe000ed00

08001d2c <abs_limit>:
 8001d2c:	b480      	push	{r7}
 8001d2e:	b083      	sub	sp, #12
 8001d30:	af00      	add	r7, sp, #0
 8001d32:	6078      	str	r0, [r7, #4]
 8001d34:	ed87 0a00 	vstr	s0, [r7]
 8001d38:	687b      	ldr	r3, [r7, #4]
 8001d3a:	edd3 7a00 	vldr	s15, [r3]
 8001d3e:	ed97 7a00 	vldr	s14, [r7]
 8001d42:	eeb4 7ae7 	vcmpe.f32	s14, s15
 8001d46:	eef1 fa10 	vmrs	APSR_nzcv, fpscr
 8001d4a:	d502      	bpl.n	8001d52 <abs_limit+0x26>
 8001d4c:	687b      	ldr	r3, [r7, #4]
 8001d4e:	683a      	ldr	r2, [r7, #0]
 8001d50:	601a      	str	r2, [r3, #0]
 8001d52:	687b      	ldr	r3, [r7, #4]
 8001d54:	ed93 7a00 	vldr	s14, [r3]
 8001d58:	edd7 7a00 	vldr	s15, [r7]
 8001d5c:	eef1 7a67 	vneg.f32	s15, s15
 8001d60:	eeb4 7ae7 	vcmpe.f32	s14, s15
 8001d64:	eef1 fa10 	vmrs	APSR_nzcv, fpscr
 8001d68:	d400      	bmi.n	8001d6c <abs_limit+0x40>
 8001d6a:	e006      	b.n	8001d7a <abs_limit+0x4e>
 8001d6c:	edd7 7a00 	vldr	s15, [r7]
 8001d70:	eef1 7a67 	vneg.f32	s15, s15
 8001d74:	687b      	ldr	r3, [r7, #4]
 8001d76:	edc3 7a00 	vstr	s15, [r3]
 8001d7a:	bf00      	nop
 8001d7c:	370c      	adds	r7, #12
 8001d7e:	46bd      	mov	sp, r7
 8001d80:	f85d 7b04 	ldr.w	r7, [sp], #4
 8001d84:	4770      	bx	lr

08001d86 <pid_param_init>:
 8001d86:	b480      	push	{r7}
 8001d88:	b089      	sub	sp, #36	@ 0x24
 8001d8a:	af00      	add	r7, sp, #0
 8001d8c:	61f8      	str	r0, [r7, #28]
 8001d8e:	61b9      	str	r1, [r7, #24]
 8001d90:	617a      	str	r2, [r7, #20]
 8001d92:	613b      	str	r3, [r7, #16]
 8001d94:	ed87 0a03 	vstr	s0, [r7, #12]
 8001d98:	edc7 0a02 	vstr	s1, [r7, #8]
 8001d9c:	ed87 1a01 	vstr	s2, [r7, #4]
 8001da0:	69fb      	ldr	r3, [r7, #28]
 8001da2:	693a      	ldr	r2, [r7, #16]
 8001da4:	641a      	str	r2, [r3, #64]	@ 0x40
 8001da6:	69fb      	ldr	r3, [r7, #28]
 8001da8:	697a      	ldr	r2, [r7, #20]
 8001daa:	63da      	str	r2, [r3, #60]	@ 0x3c
 8001dac:	69fb      	ldr	r3, [r7, #28]
 8001dae:	69ba      	ldr	r2, [r7, #24]
 8001db0:	639a      	str	r2, [r3, #56]	@ 0x38
 8001db2:	69fb      	ldr	r3, [r7, #28]
 8001db4:	68fa      	ldr	r2, [r7, #12]
 8001db6:	601a      	str	r2, [r3, #0]
 8001db8:	69fb      	ldr	r3, [r7, #28]
 8001dba:	68ba      	ldr	r2, [r7, #8]
 8001dbc:	605a      	str	r2, [r3, #4]
 8001dbe:	69fb      	ldr	r3, [r7, #28]
 8001dc0:	687a      	ldr	r2, [r7, #4]
 8001dc2:	609a      	str	r2, [r3, #8]
 8001dc4:	bf00      	nop
 8001dc6:	3724      	adds	r7, #36	@ 0x24
 8001dc8:	46bd      	mov	sp, r7
 8001dca:	f85d 7b04 	ldr.w	r7, [sp], #4
 8001dce:	4770      	bx	lr

08001dd0 <pid_reset>:
 8001dd0:	b480      	push	{r7}
 8001dd2:	b085      	sub	sp, #20
 8001dd4:	af00      	add	r7, sp, #0
 8001dd6:	60f8      	str	r0, [r7, #12]
 8001dd8:	ed87 0a02 	vstr	s0, [r7, #8]
 8001ddc:	edc7 0a01 	vstr	s1, [r7, #4]
 8001de0:	ed87 1a00 	vstr	s2, [r7]
 8001de4:	68fb      	ldr	r3, [r7, #12]
 8001de6:	68ba      	ldr	r2, [r7, #8]
 8001de8:	601a      	str	r2, [r3, #0]
 8001dea:	68fb      	ldr	r3, [r7, #12]
 8001dec:	687a      	ldr	r2, [r7, #4]
 8001dee:	605a      	str	r2, [r3, #4]
 8001df0:	68fb      	ldr	r3, [r7, #12]
 8001df2:	683a      	ldr	r2, [r7, #0]
 8001df4:	609a      	str	r2, [r3, #8]
 8001df6:	68fb      	ldr	r3, [r7, #12]
 8001df8:	f04f 0200 	mov.w	r2, #0
 8001dfc:	621a      	str	r2, [r3, #32]
 8001dfe:	68fb      	ldr	r3, [r7, #12]
 8001e00:	f04f 0200 	mov.w	r2, #0
 8001e04:	625a      	str	r2, [r3, #36]	@ 0x24
 8001e06:	68fb      	ldr	r3, [r7, #12]
 8001e08:	f04f 0200 	mov.w	r2, #0
 8001e0c:	629a      	str	r2, [r3, #40]	@ 0x28
 8001e0e:	68fb      	ldr	r3, [r7, #12]
 8001e10:	f04f 0200 	mov.w	r2, #0
 8001e14:	62da      	str	r2, [r3, #44]	@ 0x2c
 8001e16:	bf00      	nop
 8001e18:	3714      	adds	r7, #20
 8001e1a:	46bd      	mov	sp, r7
 8001e1c:	f85d 7b04 	ldr.w	r7, [sp], #4
 8001e20:	4770      	bx	lr

08001e22 <pid_calc>:
 8001e22:	b580      	push	{r7, lr}
 8001e24:	b084      	sub	sp, #16
 8001e26:	af00      	add	r7, sp, #0
 8001e28:	60f8      	str	r0, [r7, #12]
 8001e2a:	ed87 0a02 	vstr	s0, [r7, #8]
 8001e2e:	edc7 0a01 	vstr	s1, [r7, #4]
 8001e32:	68fb      	ldr	r3, [r7, #12]
 8001e34:	68ba      	ldr	r2, [r7, #8]
 8001e36:	611a      	str	r2, [r3, #16]
 8001e38:	68fb      	ldr	r3, [r7, #12]
 8001e3a:	687a      	ldr	r2, [r7, #4]
 8001e3c:	60da      	str	r2, [r3, #12]
 8001e3e:	ed97 7a01 	vldr	s14, [r7, #4]
 8001e42:	edd7 7a02 	vldr	s15, [r7, #8]
 8001e46:	ee77 7a67 	vsub.f32	s15, s14, s15
 8001e4a:	68fb      	ldr	r3, [r7, #12]
 8001e4c:	edc3 7a07 	vstr	s15, [r3, #28]
 8001e50:	68fb      	ldr	r3, [r7, #12]
 8001e52:	edd3 7a0c 	vldr	s15, [r3, #48]	@ 0x30
 8001e56:	eef5 7a40 	vcmp.f32	s15, #0.0
 8001e5a:	eef1 fa10 	vmrs	APSR_nzcv, fpscr
 8001e5e:	d00f      	beq.n	8001e80 <pid_calc+0x5e>
 8001e60:	68fb      	ldr	r3, [r7, #12]
 8001e62:	edd3 7a07 	vldr	s15, [r3, #28]
 8001e66:	eeb0 7ae7 	vabs.f32	s14, s15
 8001e6a:	68fb      	ldr	r3, [r7, #12]
 8001e6c:	edd3 7a0c 	vldr	s15, [r3, #48]	@ 0x30
 8001e70:	eeb4 7ae7 	vcmpe.f32	s14, s15
 8001e74:	eef1 fa10 	vmrs	APSR_nzcv, fpscr
 8001e78:	dd02      	ble.n	8001e80 <pid_calc+0x5e>
 8001e7a:	f04f 0300 	mov.w	r3, #0
 8001e7e:	e0d6      	b.n	800202e <pid_calc+0x20c>
 8001e80:	68fb      	ldr	r3, [r7, #12]
 8001e82:	6b9b      	ldr	r3, [r3, #56]	@ 0x38
 8001e84:	2b03      	cmp	r3, #3
 8001e86:	d157      	bne.n	8001f38 <pid_calc+0x116>
 8001e88:	68fb      	ldr	r3, [r7, #12]
 8001e8a:	ed93 7a00 	vldr	s14, [r3]
 8001e8e:	68fb      	ldr	r3, [r7, #12]
 8001e90:	edd3 7a07 	vldr	s15, [r3, #28]
 8001e94:	ee67 7a27 	vmul.f32	s15, s14, s15
 8001e98:	68fb      	ldr	r3, [r7, #12]
 8001e9a:	edc3 7a08 	vstr	s15, [r3, #32]
 8001e9e:	68fb      	ldr	r3, [r7, #12]
 8001ea0:	ed93 7a09 	vldr	s14, [r3, #36]	@ 0x24
 8001ea4:	68fb      	ldr	r3, [r7, #12]
 8001ea6:	edd3 6a01 	vldr	s13, [r3, #4]
 8001eaa:	68fb      	ldr	r3, [r7, #12]
 8001eac:	edd3 7a07 	vldr	s15, [r3, #28]
 8001eb0:	ee66 7aa7 	vmul.f32	s15, s13, s15
 8001eb4:	ee77 7a27 	vadd.f32	s15, s14, s15
 8001eb8:	68fb      	ldr	r3, [r7, #12]
 8001eba:	edc3 7a09 	vstr	s15, [r3, #36]	@ 0x24
 8001ebe:	68fb      	ldr	r3, [r7, #12]
 8001ec0:	ed93 7a02 	vldr	s14, [r3, #8]
 8001ec4:	68fb      	ldr	r3, [r7, #12]
 8001ec6:	edd3 6a07 	vldr	s13, [r3, #28]
 8001eca:	68fb      	ldr	r3, [r7, #12]
 8001ecc:	edd3 7a06 	vldr	s15, [r3, #24]
 8001ed0:	ee76 7ae7 	vsub.f32	s15, s13, s15
 8001ed4:	ee67 7a27 	vmul.f32	s15, s14, s15
 8001ed8:	68fb      	ldr	r3, [r7, #12]
 8001eda:	edc3 7a0a 	vstr	s15, [r3, #40]	@ 0x28
 8001ede:	68fb      	ldr	r3, [r7, #12]
 8001ee0:	f103 0224 	add.w	r2, r3, #36	@ 0x24
 8001ee4:	68fb      	ldr	r3, [r7, #12]
 8001ee6:	6c1b      	ldr	r3, [r3, #64]	@ 0x40
 8001ee8:	ee07 3a90 	vmov	s15, r3
 8001eec:	eef8 7a67 	vcvt.f32.u32	s15, s15
 8001ef0:	eeb0 0a67 	vmov.f32	s0, s15
 8001ef4:	4610      	mov	r0, r2
 8001ef6:	f7ff ff19 	bl	8001d2c <abs_limit>
 8001efa:	68fb      	ldr	r3, [r7, #12]
 8001efc:	ed93 7a08 	vldr	s14, [r3, #32]
 8001f00:	68fb      	ldr	r3, [r7, #12]
 8001f02:	edd3 7a09 	vldr	s15, [r3, #36]	@ 0x24
 8001f06:	ee37 7a27 	vadd.f32	s14, s14, s15
 8001f0a:	68fb      	ldr	r3, [r7, #12]
 8001f0c:	edd3 7a0a 	vldr	s15, [r3, #40]	@ 0x28
 8001f10:	ee77 7a27 	vadd.f32	s15, s14, s15
 8001f14:	68fb      	ldr	r3, [r7, #12]
 8001f16:	edc3 7a0b 	vstr	s15, [r3, #44]	@ 0x2c
 8001f1a:	68fb      	ldr	r3, [r7, #12]
 8001f1c:	f103 022c 	add.w	r2, r3, #44	@ 0x2c
 8001f20:	68fb      	ldr	r3, [r7, #12]
 8001f22:	6bdb      	ldr	r3, [r3, #60]	@ 0x3c
 8001f24:	ee07 3a90 	vmov	s15, r3
 8001f28:	eef8 7a67 	vcvt.f32.u32	s15, s15
 8001f2c:	eeb0 0a67 	vmov.f32	s0, s15
 8001f30:	4610      	mov	r0, r2
 8001f32:	f7ff fefb 	bl	8001d2c <abs_limit>
 8001f36:	e058      	b.n	8001fea <pid_calc+0x1c8>
 8001f38:	68fb      	ldr	r3, [r7, #12]
 8001f3a:	6b9b      	ldr	r3, [r3, #56]	@ 0x38
 8001f3c:	2b04      	cmp	r3, #4
 8001f3e:	d154      	bne.n	8001fea <pid_calc+0x1c8>
 8001f40:	68fb      	ldr	r3, [r7, #12]
 8001f42:	ed93 7a00 	vldr	s14, [r3]
 8001f46:	68fb      	ldr	r3, [r7, #12]
 8001f48:	edd3 6a07 	vldr	s13, [r3, #28]
 8001f4c:	68fb      	ldr	r3, [r7, #12]
 8001f4e:	edd3 7a06 	vldr	s15, [r3, #24]
 8001f52:	ee76 7ae7 	vsub.f32	s15, s13, s15
 8001f56:	ee67 7a27 	vmul.f32	s15, s14, s15
 8001f5a:	68fb      	ldr	r3, [r7, #12]
 8001f5c:	edc3 7a08 	vstr	s15, [r3, #32]
 8001f60:	68fb      	ldr	r3, [r7, #12]
 8001f62:	ed93 7a01 	vldr	s14, [r3, #4]
 8001f66:	68fb      	ldr	r3, [r7, #12]
 8001f68:	edd3 7a07 	vldr	s15, [r3, #28]
 8001f6c:	ee67 7a27 	vmul.f32	s15, s14, s15
 8001f70:	68fb      	ldr	r3, [r7, #12]
 8001f72:	edc3 7a09 	vstr	s15, [r3, #36]	@ 0x24
 8001f76:	68fb      	ldr	r3, [r7, #12]
 8001f78:	ed93 7a02 	vldr	s14, [r3, #8]
 8001f7c:	68fb      	ldr	r3, [r7, #12]
 8001f7e:	edd3 6a07 	vldr	s13, [r3, #28]
 8001f82:	68fb      	ldr	r3, [r7, #12]
 8001f84:	edd3 7a06 	vldr	s15, [r3, #24]
 8001f88:	ee77 7aa7 	vadd.f32	s15, s15, s15
 8001f8c:	ee76 6ae7 	vsub.f32	s13, s13, s15
 8001f90:	68fb      	ldr	r3, [r7, #12]
 8001f92:	edd3 7a05 	vldr	s15, [r3, #20]
 8001f96:	ee76 7aa7 	vadd.f32	s15, s13, s15
 8001f9a:	ee67 7a27 	vmul.f32	s15, s14, s15
 8001f9e:	68fb      	ldr	r3, [r7, #12]
 8001fa0:	edc3 7a0a 	vstr	s15, [r3, #40]	@ 0x28
 8001fa4:	68fb      	ldr	r3, [r7, #12]
 8001fa6:	ed93 7a0b 	vldr	s14, [r3, #44]	@ 0x2c
 8001faa:	68fb      	ldr	r3, [r7, #12]
 8001fac:	edd3 6a08 	vldr	s13, [r3, #32]
 8001fb0:	68fb      	ldr	r3, [r7, #12]
 8001fb2:	edd3 7a09 	vldr	s15, [r3, #36]	@ 0x24
 8001fb6:	ee76 6aa7 	vadd.f32	s13, s13, s15
 8001fba:	68fb      	ldr	r3, [r7, #12]
 8001fbc:	edd3 7a0a 	vldr	s15, [r3, #40]	@ 0x28
 8001fc0:	ee76 7aa7 	vadd.f32	s15, s13, s15
 8001fc4:	ee77 7a27 	vadd.f32	s15, s14, s15
 8001fc8:	68fb      	ldr	r3, [r7, #12]
 8001fca:	edc3 7a0b 	vstr	s15, [r3, #44]	@ 0x2c
 8001fce:	68fb      	ldr	r3, [r7, #12]
 8001fd0:	f103 022c 	add.w	r2, r3, #44	@ 0x2c
 8001fd4:	68fb      	ldr	r3, [r7, #12]
 8001fd6:	6bdb      	ldr	r3, [r3, #60]	@ 0x3c
 8001fd8:	ee07 3a90 	vmov	s15, r3
 8001fdc:	eef8 7a67 	vcvt.f32.u32	s15, s15
 8001fe0:	eeb0 0a67 	vmov.f32	s0, s15
 8001fe4:	4610      	mov	r0, r2
 8001fe6:	f7ff fea1 	bl	8001d2c <abs_limit>
 8001fea:	68fb      	ldr	r3, [r7, #12]
 8001fec:	699a      	ldr	r2, [r3, #24]
 8001fee:	68fb      	ldr	r3, [r7, #12]
 8001ff0:	615a      	str	r2, [r3, #20]
 8001ff2:	68fb      	ldr	r3, [r7, #12]
 8001ff4:	69da      	ldr	r2, [r3, #28]
 8001ff6:	68fb      	ldr	r3, [r7, #12]
 8001ff8:	619a      	str	r2, [r3, #24]
 8001ffa:	68fb      	ldr	r3, [r7, #12]
 8001ffc:	edd3 7a0d 	vldr	s15, [r3, #52]	@ 0x34
 8002000:	eef5 7a40 	vcmp.f32	s15, #0.0
 8002004:	eef1 fa10 	vmrs	APSR_nzcv, fpscr
 8002008:	d00f      	beq.n	800202a <pid_calc+0x208>
 800200a:	68fb      	ldr	r3, [r7, #12]
 800200c:	edd3 7a0b 	vldr	s15, [r3, #44]	@ 0x2c
 8002010:	eeb0 7ae7 	vabs.f32	s14, s15
 8002014:	68fb      	ldr	r3, [r7, #12]
 8002016:	edd3 7a0d 	vldr	s15, [r3, #52]	@ 0x34
 800201a:	eeb4 7ae7 	vcmpe.f32	s14, s15
 800201e:	eef1 fa10 	vmrs	APSR_nzcv, fpscr
 8002022:	d502      	bpl.n	800202a <pid_calc+0x208>
 8002024:	f04f 0300 	mov.w	r3, #0
 8002028:	e001      	b.n	800202e <pid_calc+0x20c>
 800202a:	68fb      	ldr	r3, [r7, #12]
 800202c:	6adb      	ldr	r3, [r3, #44]	@ 0x2c
 800202e:	ee07 3a90 	vmov	s15, r3
 8002032:	eeb0 0a67 	vmov.f32	s0, s15
 8002036:	3710      	adds	r7, #16
 8002038:	46bd      	mov	sp, r7
 800203a:	bd80      	pop	{r7, pc}

0800203c <PID_struct_init>:
 800203c:	b590      	push	{r4, r7, lr}
 800203e:	b089      	sub	sp, #36	@ 0x24
 8002040:	af00      	add	r7, sp, #0
 8002042:	61f8      	str	r0, [r7, #28]
 8002044:	61b9      	str	r1, [r7, #24]
 8002046:	617a      	str	r2, [r7, #20]
 8002048:	613b      	str	r3, [r7, #16]
 800204a:	ed87 0a03 	vstr	s0, [r7, #12]
 800204e:	edc7 0a02 	vstr	s1, [r7, #8]
 8002052:	ed87 1a01 	vstr	s2, [r7, #4]
 8002056:	69fb      	ldr	r3, [r7, #28]
 8002058:	4a0f      	ldr	r2, [pc, #60]	@ (8002098 <PID_struct_init+0x5c>)
 800205a:	645a      	str	r2, [r3, #68]	@ 0x44
 800205c:	69fb      	ldr	r3, [r7, #28]
 800205e:	4a0f      	ldr	r2, [pc, #60]	@ (800209c <PID_struct_init+0x60>)
 8002060:	649a      	str	r2, [r3, #72]	@ 0x48
 8002062:	69fb      	ldr	r3, [r7, #28]
 8002064:	6c5c      	ldr	r4, [r3, #68]	@ 0x44
 8002066:	ed97 1a01 	vldr	s2, [r7, #4]
 800206a:	edd7 0a02 	vldr	s1, [r7, #8]
 800206e:	ed97 0a03 	vldr	s0, [r7, #12]
 8002072:	693b      	ldr	r3, [r7, #16]
 8002074:	697a      	ldr	r2, [r7, #20]
 8002076:	69b9      	ldr	r1, [r7, #24]
 8002078:	69f8      	ldr	r0, [r7, #28]
 800207a:	47a0      	blx	r4
 800207c:	69fb      	ldr	r3, [r7, #28]
 800207e:	6c9b      	ldr	r3, [r3, #72]	@ 0x48
 8002080:	ed97 1a01 	vldr	s2, [r7, #4]
 8002084:	edd7 0a02 	vldr	s1, [r7, #8]
 8002088:	ed97 0a03 	vldr	s0, [r7, #12]
 800208c:	69f8      	ldr	r0, [r7, #28]
 800208e:	4798      	blx	r3
 8002090:	bf00      	nop
 8002092:	3724      	adds	r7, #36	@ 0x24
 8002094:	46bd      	mov	sp, r7
 8002096:	bd90      	pop	{r4, r7, pc}
 8002098:	08001d87 	.word	0x08001d87
 800209c:	08001dd1 	.word	0x08001dd1

080020a0 <UART_Init>:
 80020a0:	b580      	push	{r7, lr}
 80020a2:	af00      	add	r7, sp, #0
 80020a4:	2201      	movs	r2, #1
 80020a6:	4903      	ldr	r1, [pc, #12]	@ (80020b4 <UART_Init+0x14>)
 80020a8:	4803      	ldr	r0, [pc, #12]	@ (80020b8 <UART_Init+0x18>)
 80020aa:	f004 f9bb 	bl	8006424 <HAL_UART_Receive_IT>
 80020ae:	bf00      	nop
 80020b0:	bd80      	pop	{r7, pc}
 80020b2:	bf00      	nop
 80020b4:	200004e8 	.word	0x200004e8
 80020b8:	20000414 	.word	0x20000414

080020bc <HAL_UART_RxCpltCallback>:
 80020bc:	b580      	push	{r7, lr}
 80020be:	b082      	sub	sp, #8
 80020c0:	af00      	add	r7, sp, #0
 80020c2:	6078      	str	r0, [r7, #4]
 80020c4:	687b      	ldr	r3, [r7, #4]
 80020c6:	681b      	ldr	r3, [r3, #0]
 80020c8:	4a65      	ldr	r2, [pc, #404]	@ (8002260 <HAL_UART_RxCpltCallback+0x1a4>)
 80020ca:	4293      	cmp	r3, r2
 80020cc:	f040 80c4 	bne.w	8002258 <HAL_UART_RxCpltCallback+0x19c>
 80020d0:	2201      	movs	r2, #1
 80020d2:	4964      	ldr	r1, [pc, #400]	@ (8002264 <HAL_UART_RxCpltCallback+0x1a8>)
 80020d4:	4864      	ldr	r0, [pc, #400]	@ (8002268 <HAL_UART_RxCpltCallback+0x1ac>)
 80020d6:	f004 f9a5 	bl	8006424 <HAL_UART_Receive_IT>
 80020da:	4b64      	ldr	r3, [pc, #400]	@ (800226c <HAL_UART_RxCpltCallback+0x1b0>)
 80020dc:	781b      	ldrb	r3, [r3, #0]
 80020de:	2b04      	cmp	r3, #4
 80020e0:	f200 80b5 	bhi.w	800224e <HAL_UART_RxCpltCallback+0x192>
 80020e4:	a201      	add	r2, pc, #4	@ (adr r2, 80020ec <HAL_UART_RxCpltCallback+0x30>)
 80020e6:	f852 f023 	ldr.w	pc, [r2, r3, lsl #2]
 80020ea:	bf00      	nop
 80020ec:	08002101 	.word	0x08002101
 80020f0:	0800211f 	.word	0x0800211f
 80020f4:	08002143 	.word	0x08002143
 80020f8:	08002179 	.word	0x08002179
 80020fc:	08002197 	.word	0x08002197
 8002100:	4b58      	ldr	r3, [pc, #352]	@ (8002264 <HAL_UART_RxCpltCallback+0x1a8>)
 8002102:	781b      	ldrb	r3, [r3, #0]
 8002104:	2b0d      	cmp	r3, #13
 8002106:	d106      	bne.n	8002116 <HAL_UART_RxCpltCallback+0x5a>
 8002108:	4b58      	ldr	r3, [pc, #352]	@ (800226c <HAL_UART_RxCpltCallback+0x1b0>)
 800210a:	781b      	ldrb	r3, [r3, #0]
 800210c:	3301      	adds	r3, #1
 800210e:	b2da      	uxtb	r2, r3
 8002110:	4b56      	ldr	r3, [pc, #344]	@ (800226c <HAL_UART_RxCpltCallback+0x1b0>)
 8002112:	701a      	strb	r2, [r3, #0]
 8002114:	e0a0      	b.n	8002258 <HAL_UART_RxCpltCallback+0x19c>
 8002116:	4b55      	ldr	r3, [pc, #340]	@ (800226c <HAL_UART_RxCpltCallback+0x1b0>)
 8002118:	2201      	movs	r2, #1
 800211a:	701a      	strb	r2, [r3, #0]
 800211c:	e09c      	b.n	8002258 <HAL_UART_RxCpltCallback+0x19c>
 800211e:	4b51      	ldr	r3, [pc, #324]	@ (8002264 <HAL_UART_RxCpltCallback+0x1a8>)
 8002120:	781b      	ldrb	r3, [r3, #0]
 8002122:	2b0a      	cmp	r3, #10
 8002124:	d109      	bne.n	800213a <HAL_UART_RxCpltCallback+0x7e>
 8002126:	4b52      	ldr	r3, [pc, #328]	@ (8002270 <HAL_UART_RxCpltCallback+0x1b4>)
 8002128:	2200      	movs	r2, #0
 800212a:	701a      	strb	r2, [r3, #0]
 800212c:	4b4f      	ldr	r3, [pc, #316]	@ (800226c <HAL_UART_RxCpltCallback+0x1b0>)
 800212e:	781b      	ldrb	r3, [r3, #0]
 8002130:	3301      	adds	r3, #1
 8002132:	b2da      	uxtb	r2, r3
 8002134:	4b4d      	ldr	r3, [pc, #308]	@ (800226c <HAL_UART_RxCpltCallback+0x1b0>)
 8002136:	701a      	strb	r2, [r3, #0]
 8002138:	e08e      	b.n	8002258 <HAL_UART_RxCpltCallback+0x19c>
 800213a:	4b4c      	ldr	r3, [pc, #304]	@ (800226c <HAL_UART_RxCpltCallback+0x1b0>)
 800213c:	2200      	movs	r2, #0
 800213e:	701a      	strb	r2, [r3, #0]
 8002140:	e08a      	b.n	8002258 <HAL_UART_RxCpltCallback+0x19c>
 8002142:	4b4b      	ldr	r3, [pc, #300]	@ (8002270 <HAL_UART_RxCpltCallback+0x1b4>)
 8002144:	781b      	ldrb	r3, [r3, #0]
 8002146:	461a      	mov	r2, r3
 8002148:	4b46      	ldr	r3, [pc, #280]	@ (8002264 <HAL_UART_RxCpltCallback+0x1a8>)
 800214a:	7819      	ldrb	r1, [r3, #0]
 800214c:	4b49      	ldr	r3, [pc, #292]	@ (8002274 <HAL_UART_RxCpltCallback+0x1b8>)
 800214e:	5499      	strb	r1, [r3, r2]
 8002150:	4b47      	ldr	r3, [pc, #284]	@ (8002270 <HAL_UART_RxCpltCallback+0x1b4>)
 8002152:	781b      	ldrb	r3, [r3, #0]
 8002154:	3301      	adds	r3, #1
 8002156:	b2da      	uxtb	r2, r3
 8002158:	4b45      	ldr	r3, [pc, #276]	@ (8002270 <HAL_UART_RxCpltCallback+0x1b4>)
 800215a:	701a      	strb	r2, [r3, #0]
 800215c:	4b44      	ldr	r3, [pc, #272]	@ (8002270 <HAL_UART_RxCpltCallback+0x1b4>)
 800215e:	781b      	ldrb	r3, [r3, #0]
 8002160:	2b17      	cmp	r3, #23
 8002162:	d978      	bls.n	8002256 <HAL_UART_RxCpltCallback+0x19a>
 8002164:	4b42      	ldr	r3, [pc, #264]	@ (8002270 <HAL_UART_RxCpltCallback+0x1b4>)
 8002166:	2200      	movs	r2, #0
 8002168:	701a      	strb	r2, [r3, #0]
 800216a:	4b40      	ldr	r3, [pc, #256]	@ (800226c <HAL_UART_RxCpltCallback+0x1b0>)
 800216c:	781b      	ldrb	r3, [r3, #0]
 800216e:	3301      	adds	r3, #1
 8002170:	b2da      	uxtb	r2, r3
 8002172:	4b3e      	ldr	r3, [pc, #248]	@ (800226c <HAL_UART_RxCpltCallback+0x1b0>)
 8002174:	701a      	strb	r2, [r3, #0]
 8002176:	e06e      	b.n	8002256 <HAL_UART_RxCpltCallback+0x19a>
 8002178:	4b3a      	ldr	r3, [pc, #232]	@ (8002264 <HAL_UART_RxCpltCallback+0x1a8>)
 800217a:	781b      	ldrb	r3, [r3, #0]
 800217c:	2b0a      	cmp	r3, #10
 800217e:	d106      	bne.n	800218e <HAL_UART_RxCpltCallback+0xd2>
 8002180:	4b3a      	ldr	r3, [pc, #232]	@ (800226c <HAL_UART_RxCpltCallback+0x1b0>)
 8002182:	781b      	ldrb	r3, [r3, #0]
 8002184:	3301      	adds	r3, #1
 8002186:	b2da      	uxtb	r2, r3
 8002188:	4b38      	ldr	r3, [pc, #224]	@ (800226c <HAL_UART_RxCpltCallback+0x1b0>)
 800218a:	701a      	strb	r2, [r3, #0]
 800218c:	e064      	b.n	8002258 <HAL_UART_RxCpltCallback+0x19c>
 800218e:	4b37      	ldr	r3, [pc, #220]	@ (800226c <HAL_UART_RxCpltCallback+0x1b0>)
 8002190:	2200      	movs	r2, #0
 8002192:	701a      	strb	r2, [r3, #0]
 8002194:	e060      	b.n	8002258 <HAL_UART_RxCpltCallback+0x19c>
 8002196:	4b33      	ldr	r3, [pc, #204]	@ (8002264 <HAL_UART_RxCpltCallback+0x1a8>)
 8002198:	781b      	ldrb	r3, [r3, #0]
 800219a:	2b0d      	cmp	r3, #13
 800219c:	d153      	bne.n	8002246 <HAL_UART_RxCpltCallback+0x18a>
 800219e:	4b35      	ldr	r3, [pc, #212]	@ (8002274 <HAL_UART_RxCpltCallback+0x1b8>)
 80021a0:	681b      	ldr	r3, [r3, #0]
 80021a2:	4a35      	ldr	r2, [pc, #212]	@ (8002278 <HAL_UART_RxCpltCallback+0x1bc>)
 80021a4:	6013      	str	r3, [r2, #0]
 80021a6:	4b33      	ldr	r3, [pc, #204]	@ (8002274 <HAL_UART_RxCpltCallback+0x1b8>)
 80021a8:	685b      	ldr	r3, [r3, #4]
 80021aa:	4a34      	ldr	r2, [pc, #208]	@ (800227c <HAL_UART_RxCpltCallback+0x1c0>)
 80021ac:	6013      	str	r3, [r2, #0]
 80021ae:	4b31      	ldr	r3, [pc, #196]	@ (8002274 <HAL_UART_RxCpltCallback+0x1b8>)
 80021b0:	689b      	ldr	r3, [r3, #8]
 80021b2:	4a33      	ldr	r2, [pc, #204]	@ (8002280 <HAL_UART_RxCpltCallback+0x1c4>)
 80021b4:	6013      	str	r3, [r2, #0]
 80021b6:	4b2f      	ldr	r3, [pc, #188]	@ (8002274 <HAL_UART_RxCpltCallback+0x1b8>)
 80021b8:	68db      	ldr	r3, [r3, #12]
 80021ba:	4a32      	ldr	r2, [pc, #200]	@ (8002284 <HAL_UART_RxCpltCallback+0x1c8>)
 80021bc:	6013      	str	r3, [r2, #0]
 80021be:	4b2d      	ldr	r3, [pc, #180]	@ (8002274 <HAL_UART_RxCpltCallback+0x1b8>)
 80021c0:	691b      	ldr	r3, [r3, #16]
 80021c2:	4a31      	ldr	r2, [pc, #196]	@ (8002288 <HAL_UART_RxCpltCallback+0x1cc>)
 80021c4:	6013      	str	r3, [r2, #0]
 80021c6:	4b2b      	ldr	r3, [pc, #172]	@ (8002274 <HAL_UART_RxCpltCallback+0x1b8>)
 80021c8:	695b      	ldr	r3, [r3, #20]
 80021ca:	4a30      	ldr	r2, [pc, #192]	@ (800228c <HAL_UART_RxCpltCallback+0x1d0>)
 80021cc:	6013      	str	r3, [r2, #0]
 80021ce:	4b2d      	ldr	r3, [pc, #180]	@ (8002284 <HAL_UART_RxCpltCallback+0x1c8>)
 80021d0:	edd3 7a00 	vldr	s15, [r3]
 80021d4:	eef5 7a40 	vcmp.f32	s15, #0.0
 80021d8:	eef1 fa10 	vmrs	APSR_nzcv, fpscr
 80021dc:	d015      	beq.n	800220a <HAL_UART_RxCpltCallback+0x14e>
 80021de:	4b2a      	ldr	r3, [pc, #168]	@ (8002288 <HAL_UART_RxCpltCallback+0x1cc>)
 80021e0:	edd3 7a00 	vldr	s15, [r3]
 80021e4:	eef5 7a40 	vcmp.f32	s15, #0.0
 80021e8:	eef1 fa10 	vmrs	APSR_nzcv, fpscr
 80021ec:	d00d      	beq.n	800220a <HAL_UART_RxCpltCallback+0x14e>
 80021ee:	4b22      	ldr	r3, [pc, #136]	@ (8002278 <HAL_UART_RxCpltCallback+0x1bc>)
 80021f0:	edd3 7a00 	vldr	s15, [r3]
 80021f4:	eef5 7a40 	vcmp.f32	s15, #0.0
 80021f8:	eef1 fa10 	vmrs	APSR_nzcv, fpscr
 80021fc:	d005      	beq.n	800220a <HAL_UART_RxCpltCallback+0x14e>
 80021fe:	2201      	movs	r2, #1
 8002200:	f44f 5100 	mov.w	r1, #8192	@ 0x2000
 8002204:	4822      	ldr	r0, [pc, #136]	@ (8002290 <HAL_UART_RxCpltCallback+0x1d4>)
 8002206:	f001 fae5 	bl	80037d4 <HAL_GPIO_WritePin>
 800220a:	4b1e      	ldr	r3, [pc, #120]	@ (8002284 <HAL_UART_RxCpltCallback+0x1c8>)
 800220c:	edd3 7a00 	vldr	s15, [r3]
 8002210:	eef5 7a40 	vcmp.f32	s15, #0.0
 8002214:	eef1 fa10 	vmrs	APSR_nzcv, fpscr
 8002218:	d115      	bne.n	8002246 <HAL_UART_RxCpltCallback+0x18a>
 800221a:	4b1b      	ldr	r3, [pc, #108]	@ (8002288 <HAL_UART_RxCpltCallback+0x1cc>)
 800221c:	edd3 7a00 	vldr	s15, [r3]
 8002220:	eef5 7a40 	vcmp.f32	s15, #0.0
 8002224:	eef1 fa10 	vmrs	APSR_nzcv, fpscr
 8002228:	d10d      	bne.n	8002246 <HAL_UART_RxCpltCallback+0x18a>
 800222a:	4b13      	ldr	r3, [pc, #76]	@ (8002278 <HAL_UART_RxCpltCallback+0x1bc>)
 800222c:	edd3 7a00 	vldr	s15, [r3]
 8002230:	eef5 7a40 	vcmp.f32	s15, #0.0
 8002234:	eef1 fa10 	vmrs	APSR_nzcv, fpscr
 8002238:	d105      	bne.n	8002246 <HAL_UART_RxCpltCallback+0x18a>
 800223a:	2200      	movs	r2, #0
 800223c:	f44f 5100 	mov.w	r1, #8192	@ 0x2000
 8002240:	4813      	ldr	r0, [pc, #76]	@ (8002290 <HAL_UART_RxCpltCallback+0x1d4>)
 8002242:	f001 fac7 	bl	80037d4 <HAL_GPIO_WritePin>
 8002246:	4b09      	ldr	r3, [pc, #36]	@ (800226c <HAL_UART_RxCpltCallback+0x1b0>)
 8002248:	2200      	movs	r2, #0
 800224a:	701a      	strb	r2, [r3, #0]
 800224c:	e004      	b.n	8002258 <HAL_UART_RxCpltCallback+0x19c>
 800224e:	4b07      	ldr	r3, [pc, #28]	@ (800226c <HAL_UART_RxCpltCallback+0x1b0>)
 8002250:	2200      	movs	r2, #0
 8002252:	701a      	strb	r2, [r3, #0]
 8002254:	e000      	b.n	8002258 <HAL_UART_RxCpltCallback+0x19c>
 8002256:	bf00      	nop
 8002258:	bf00      	nop
 800225a:	3708      	adds	r7, #8
 800225c:	46bd      	mov	sp, r7
 800225e:	bd80      	pop	{r7, pc}
 8002260:	40013800 	.word	0x40013800
 8002264:	200004e8 	.word	0x200004e8
 8002268:	20000414 	.word	0x20000414
 800226c:	2000052e 	.word	0x2000052e
 8002270:	2000052f 	.word	0x2000052f
 8002274:	20000530 	.word	0x20000530
 8002278:	200004f0 	.word	0x200004f0
 800227c:	200004f4 	.word	0x200004f4
 8002280:	200004f8 	.word	0x200004f8
 8002284:	200004fc 	.word	0x200004fc
 8002288:	20000500 	.word	0x20000500
 800228c:	20000504 	.word	0x20000504
 8002290:	48000800 	.word	0x48000800

08002294 <Reset_Handler>:
 8002294:	480d      	ldr	r0, [pc, #52]	@ (80022cc <LoopForever+0x2>)
 8002296:	4685      	mov	sp, r0
 8002298:	f7ff fd36 	bl	8001d08 <SystemInit>
 800229c:	480c      	ldr	r0, [pc, #48]	@ (80022d0 <LoopForever+0x6>)
 800229e:	490d      	ldr	r1, [pc, #52]	@ (80022d4 <LoopForever+0xa>)
 80022a0:	4a0d      	ldr	r2, [pc, #52]	@ (80022d8 <LoopForever+0xe>)
 80022a2:	2300      	movs	r3, #0
 80022a4:	e002      	b.n	80022ac <LoopCopyDataInit>

080022a6 <CopyDataInit>:
 80022a6:	58d4      	ldr	r4, [r2, r3]
 80022a8:	50c4      	str	r4, [r0, r3]
 80022aa:	3304      	adds	r3, #4

080022ac <LoopCopyDataInit>:
 80022ac:	18c4      	adds	r4, r0, r3
 80022ae:	428c      	cmp	r4, r1
 80022b0:	d3f9      	bcc.n	80022a6 <CopyDataInit>
 80022b2:	4a0a      	ldr	r2, [pc, #40]	@ (80022dc <LoopForever+0x12>)
 80022b4:	4c0a      	ldr	r4, [pc, #40]	@ (80022e0 <LoopForever+0x16>)
 80022b6:	2300      	movs	r3, #0
 80022b8:	e001      	b.n	80022be <LoopFillZerobss>

080022ba <FillZerobss>:
 80022ba:	6013      	str	r3, [r2, #0]
 80022bc:	3204      	adds	r2, #4

080022be <LoopFillZerobss>:
 80022be:	42a2      	cmp	r2, r4
 80022c0:	d3fb      	bcc.n	80022ba <FillZerobss>
 80022c2:	f00a f8cb 	bl	800c45c <__libc_init_array>
 80022c6:	f7ff f923 	bl	8001510 <main>

080022ca <LoopForever>:
 80022ca:	e7fe      	b.n	80022ca <LoopForever>
 80022cc:	20020000 	.word	0x20020000
 80022d0:	20000000 	.word	0x20000000
 80022d4:	200001b4 	.word	0x200001b4
 80022d8:	0800d850 	.word	0x0800d850
 80022dc:	200001b4 	.word	0x200001b4
 80022e0:	20001f1c 	.word	0x20001f1c

080022e4 <ADC1_2_IRQHandler>:
 80022e4:	e7fe      	b.n	80022e4 <ADC1_2_IRQHandler>

080022e6 <HAL_Init>:
 80022e6:	b580      	push	{r7, lr}
 80022e8:	b082      	sub	sp, #8
 80022ea:	af00      	add	r7, sp, #0
 80022ec:	2300      	movs	r3, #0
 80022ee:	71fb      	strb	r3, [r7, #7]
 80022f0:	2003      	movs	r0, #3
 80022f2:	f000 f95b 	bl	80025ac <HAL_NVIC_SetPriorityGrouping>
 80022f6:	200f      	movs	r0, #15
 80022f8:	f000 f80e 	bl	8002318 <HAL_InitTick>
 80022fc:	4603      	mov	r3, r0
 80022fe:	2b00      	cmp	r3, #0
 8002300:	d002      	beq.n	8002308 <HAL_Init+0x22>
 8002302:	2301      	movs	r3, #1
 8002304:	71fb      	strb	r3, [r7, #7]
 8002306:	e001      	b.n	800230c <HAL_Init+0x26>
 8002308:	f7ff fbc8 	bl	8001a9c <HAL_MspInit>
 800230c:	79fb      	ldrb	r3, [r7, #7]
 800230e:	4618      	mov	r0, r3
 8002310:	3708      	adds	r7, #8
 8002312:	46bd      	mov	sp, r7
 8002314:	bd80      	pop	{r7, pc}
	...

08002318 <HAL_InitTick>:
 8002318:	b580      	push	{r7, lr}
 800231a:	b084      	sub	sp, #16
 800231c:	af00      	add	r7, sp, #0
 800231e:	6078      	str	r0, [r7, #4]
 8002320:	2300      	movs	r3, #0
 8002322:	73fb      	strb	r3, [r7, #15]
 8002324:	4b16      	ldr	r3, [pc, #88]	@ (8002380 <HAL_InitTick+0x68>)
 8002326:	681b      	ldr	r3, [r3, #0]
 8002328:	2b00      	cmp	r3, #0
 800232a:	d022      	beq.n	8002372 <HAL_InitTick+0x5a>
 800232c:	4b15      	ldr	r3, [pc, #84]	@ (8002384 <HAL_InitTick+0x6c>)
 800232e:	681a      	ldr	r2, [r3, #0]
 8002330:	4b13      	ldr	r3, [pc, #76]	@ (8002380 <HAL_InitTick+0x68>)
 8002332:	681b      	ldr	r3, [r3, #0]
 8002334:	f44f 717a 	mov.w	r1, #1000	@ 0x3e8
 8002338:	fbb1 f3f3 	udiv	r3, r1, r3
 800233c:	fbb2 f3f3 	udiv	r3, r2, r3
 8002340:	4618      	mov	r0, r3
 8002342:	f000 f966 	bl	8002612 <HAL_SYSTICK_Config>
 8002346:	4603      	mov	r3, r0
 8002348:	2b00      	cmp	r3, #0
 800234a:	d10f      	bne.n	800236c <HAL_InitTick+0x54>
 800234c:	687b      	ldr	r3, [r7, #4]
 800234e:	2b0f      	cmp	r3, #15
 8002350:	d809      	bhi.n	8002366 <HAL_InitTick+0x4e>
 8002352:	2200      	movs	r2, #0
 8002354:	6879      	ldr	r1, [r7, #4]
 8002356:	f04f 30ff 	mov.w	r0, #4294967295	@ 0xffffffff
 800235a:	f000 f932 	bl	80025c2 <HAL_NVIC_SetPriority>
 800235e:	4a0a      	ldr	r2, [pc, #40]	@ (8002388 <HAL_InitTick+0x70>)
 8002360:	687b      	ldr	r3, [r7, #4]
 8002362:	6013      	str	r3, [r2, #0]
 8002364:	e007      	b.n	8002376 <HAL_InitTick+0x5e>
 8002366:	2301      	movs	r3, #1
 8002368:	73fb      	strb	r3, [r7, #15]
 800236a:	e004      	b.n	8002376 <HAL_InitTick+0x5e>
 800236c:	2301      	movs	r3, #1
 800236e:	73fb      	strb	r3, [r7, #15]
 8002370:	e001      	b.n	8002376 <HAL_InitTick+0x5e>
 8002372:	2301      	movs	r3, #1
 8002374:	73fb      	strb	r3, [r7, #15]
 8002376:	7bfb      	ldrb	r3, [r7, #15]
 8002378:	4618      	mov	r0, r3
 800237a:	3710      	adds	r7, #16
 800237c:	46bd      	mov	sp, r7
 800237e:	bd80      	pop	{r7, pc}
 8002380:	20000038 	.word	0x20000038
 8002384:	20000030 	.word	0x20000030
 8002388:	20000034 	.word	0x20000034

0800238c <HAL_IncTick>:
 800238c:	b480      	push	{r7}
 800238e:	af00      	add	r7, sp, #0
 8002390:	4b05      	ldr	r3, [pc, #20]	@ (80023a8 <HAL_IncTick+0x1c>)
 8002392:	681a      	ldr	r2, [r3, #0]
 8002394:	4b05      	ldr	r3, [pc, #20]	@ (80023ac <HAL_IncTick+0x20>)
 8002396:	681b      	ldr	r3, [r3, #0]
 8002398:	4413      	add	r3, r2
 800239a:	4a03      	ldr	r2, [pc, #12]	@ (80023a8 <HAL_IncTick+0x1c>)
 800239c:	6013      	str	r3, [r2, #0]
 800239e:	bf00      	nop
 80023a0:	46bd      	mov	sp, r7
 80023a2:	f85d 7b04 	ldr.w	r7, [sp], #4
 80023a6:	4770      	bx	lr
 80023a8:	20000548 	.word	0x20000548
 80023ac:	20000038 	.word	0x20000038

080023b0 <HAL_GetTick>:
 80023b0:	b480      	push	{r7}
 80023b2:	af00      	add	r7, sp, #0
 80023b4:	4b03      	ldr	r3, [pc, #12]	@ (80023c4 <HAL_GetTick+0x14>)
 80023b6:	681b      	ldr	r3, [r3, #0]
 80023b8:	4618      	mov	r0, r3
 80023ba:	46bd      	mov	sp, r7
 80023bc:	f85d 7b04 	ldr.w	r7, [sp], #4
 80023c0:	4770      	bx	lr
 80023c2:	bf00      	nop
 80023c4:	20000548 	.word	0x20000548

080023c8 <HAL_Delay>:
 80023c8:	b580      	push	{r7, lr}
 80023ca:	b084      	sub	sp, #16
 80023cc:	af00      	add	r7, sp, #0
 80023ce:	6078      	str	r0, [r7, #4]
 80023d0:	f7ff ffee 	bl	80023b0 <HAL_GetTick>
 80023d4:	60b8      	str	r0, [r7, #8]
 80023d6:	687b      	ldr	r3, [r7, #4]
 80023d8:	60fb      	str	r3, [r7, #12]
 80023da:	68fb      	ldr	r3, [r7, #12]
 80023dc:	f1b3 3fff 	cmp.w	r3, #4294967295	@ 0xffffffff
 80023e0:	d004      	beq.n	80023ec <HAL_Delay+0x24>
 80023e2:	4b09      	ldr	r3, [pc, #36]	@ (8002408 <HAL_Delay+0x40>)
 80023e4:	681b      	ldr	r3, [r3, #0]
 80023e6:	68fa      	ldr	r2, [r7, #12]
 80023e8:	4413      	add	r3, r2
 80023ea:	60fb      	str	r3, [r7, #12]
 80023ec:	bf00      	nop
 80023ee:	f7ff ffdf 	bl	80023b0 <HAL_GetTick>
 80023f2:	4602      	mov	r2, r0
 80023f4:	68bb      	ldr	r3, [r7, #8]
 80023f6:	1ad3      	subs	r3, r2, r3
 80023f8:	68fa      	ldr	r2, [r7, #12]
 80023fa:	429a      	cmp	r2, r3
 80023fc:	d8f7      	bhi.n	80023ee <HAL_Delay+0x26>
 80023fe:	bf00      	nop
 8002400:	bf00      	nop
 8002402:	3710      	adds	r7, #16
 8002404:	46bd      	mov	sp, r7
 8002406:	bd80      	pop	{r7, pc}
 8002408:	20000038 	.word	0x20000038

0800240c <__NVIC_SetPriorityGrouping>:
 800240c:	b480      	push	{r7}
 800240e:	b085      	sub	sp, #20
 8002410:	af00      	add	r7, sp, #0
 8002412:	6078      	str	r0, [r7, #4]
 8002414:	687b      	ldr	r3, [r7, #4]
 8002416:	f003 0307 	and.w	r3, r3, #7
 800241a:	60fb      	str	r3, [r7, #12]
 800241c:	4b0c      	ldr	r3, [pc, #48]	@ (8002450 <__NVIC_SetPriorityGrouping+0x44>)
 800241e:	68db      	ldr	r3, [r3, #12]
 8002420:	60bb      	str	r3, [r7, #8]
 8002422:	68ba      	ldr	r2, [r7, #8]
 8002424:	f64f 03ff 	movw	r3, #63743	@ 0xf8ff
 8002428:	4013      	ands	r3, r2
 800242a:	60bb      	str	r3, [r7, #8]
 800242c:	68fb      	ldr	r3, [r7, #12]
 800242e:	021a      	lsls	r2, r3, #8
 8002430:	68bb      	ldr	r3, [r7, #8]
 8002432:	4313      	orrs	r3, r2
 8002434:	f043 63bf 	orr.w	r3, r3, #100139008	@ 0x5f80000
 8002438:	f443 3300 	orr.w	r3, r3, #131072	@ 0x20000
 800243c:	60bb      	str	r3, [r7, #8]
 800243e:	4a04      	ldr	r2, [pc, #16]	@ (8002450 <__NVIC_SetPriorityGrouping+0x44>)
 8002440:	68bb      	ldr	r3, [r7, #8]
 8002442:	60d3      	str	r3, [r2, #12]
 8002444:	bf00      	nop
 8002446:	3714      	adds	r7, #20
 8002448:	46bd      	mov	sp, r7
 800244a:	f85d 7b04 	ldr.w	r7, [sp], #4
 800244e:	4770      	bx	lr
 8002450:	e000ed00 	.word	0xe000ed00

08002454 <__NVIC_GetPriorityGrouping>:
 8002454:	b480      	push	{r7}
 8002456:	af00      	add	r7, sp, #0
 8002458:	4b04      	ldr	r3, [pc, #16]	@ (800246c <__NVIC_GetPriorityGrouping+0x18>)
 800245a:	68db      	ldr	r3, [r3, #12]
 800245c:	0a1b      	lsrs	r3, r3, #8
 800245e:	f003 0307 	and.w	r3, r3, #7
 8002462:	4618      	mov	r0, r3
 8002464:	46bd      	mov	sp, r7
 8002466:	f85d 7b04 	ldr.w	r7, [sp], #4
 800246a:	4770      	bx	lr
 800246c:	e000ed00 	.word	0xe000ed00

08002470 <__NVIC_EnableIRQ>:
 8002470:	b480      	push	{r7}
 8002472:	b083      	sub	sp, #12
 8002474:	af00      	add	r7, sp, #0
 8002476:	4603      	mov	r3, r0
 8002478:	71fb      	strb	r3, [r7, #7]
 800247a:	f997 3007 	ldrsb.w	r3, [r7, #7]
 800247e:	2b00      	cmp	r3, #0
 8002480:	db0b      	blt.n	800249a <__NVIC_EnableIRQ+0x2a>
 8002482:	79fb      	ldrb	r3, [r7, #7]
 8002484:	f003 021f 	and.w	r2, r3, #31
 8002488:	4907      	ldr	r1, [pc, #28]	@ (80024a8 <__NVIC_EnableIRQ+0x38>)
 800248a:	f997 3007 	ldrsb.w	r3, [r7, #7]
 800248e:	095b      	lsrs	r3, r3, #5
 8002490:	2001      	movs	r0, #1
 8002492:	fa00 f202 	lsl.w	r2, r0, r2
 8002496:	f841 2023 	str.w	r2, [r1, r3, lsl #2]
 800249a:	bf00      	nop
 800249c:	370c      	adds	r7, #12
 800249e:	46bd      	mov	sp, r7
 80024a0:	f85d 7b04 	ldr.w	r7, [sp], #4
 80024a4:	4770      	bx	lr
 80024a6:	bf00      	nop
 80024a8:	e000e100 	.word	0xe000e100

080024ac <__NVIC_SetPriority>:
 80024ac:	b480      	push	{r7}
 80024ae:	b083      	sub	sp, #12
 80024b0:	af00      	add	r7, sp, #0
 80024b2:	4603      	mov	r3, r0
 80024b4:	6039      	str	r1, [r7, #0]
 80024b6:	71fb      	strb	r3, [r7, #7]
 80024b8:	f997 3007 	ldrsb.w	r3, [r7, #7]
 80024bc:	2b00      	cmp	r3, #0
 80024be:	db0a      	blt.n	80024d6 <__NVIC_SetPriority+0x2a>
 80024c0:	683b      	ldr	r3, [r7, #0]
 80024c2:	b2da      	uxtb	r2, r3
 80024c4:	490c      	ldr	r1, [pc, #48]	@ (80024f8 <__NVIC_SetPriority+0x4c>)
 80024c6:	f997 3007 	ldrsb.w	r3, [r7, #7]
 80024ca:	0112      	lsls	r2, r2, #4
 80024cc:	b2d2      	uxtb	r2, r2
 80024ce:	440b      	add	r3, r1
 80024d0:	f883 2300 	strb.w	r2, [r3, #768]	@ 0x300
 80024d4:	e00a      	b.n	80024ec <__NVIC_SetPriority+0x40>
 80024d6:	683b      	ldr	r3, [r7, #0]
 80024d8:	b2da      	uxtb	r2, r3
 80024da:	4908      	ldr	r1, [pc, #32]	@ (80024fc <__NVIC_SetPriority+0x50>)
 80024dc:	79fb      	ldrb	r3, [r7, #7]
 80024de:	f003 030f 	and.w	r3, r3, #15
 80024e2:	3b04      	subs	r3, #4
 80024e4:	0112      	lsls	r2, r2, #4
 80024e6:	b2d2      	uxtb	r2, r2
 80024e8:	440b      	add	r3, r1
 80024ea:	761a      	strb	r2, [r3, #24]
 80024ec:	bf00      	nop
 80024ee:	370c      	adds	r7, #12
 80024f0:	46bd      	mov	sp, r7
 80024f2:	f85d 7b04 	ldr.w	r7, [sp], #4
 80024f6:	4770      	bx	lr
 80024f8:	e000e100 	.word	0xe000e100
 80024fc:	e000ed00 	.word	0xe000ed00

08002500 <NVIC_EncodePriority>:
 8002500:	b480      	push	{r7}
 8002502:	b089      	sub	sp, #36	@ 0x24
 8002504:	af00      	add	r7, sp, #0
 8002506:	60f8      	str	r0, [r7, #12]
 8002508:	60b9      	str	r1, [r7, #8]
 800250a:	607a      	str	r2, [r7, #4]
 800250c:	68fb      	ldr	r3, [r7, #12]
 800250e:	f003 0307 	and.w	r3, r3, #7
 8002512:	61fb      	str	r3, [r7, #28]
 8002514:	69fb      	ldr	r3, [r7, #28]
 8002516:	f1c3 0307 	rsb	r3, r3, #7
 800251a:	2b04      	cmp	r3, #4
 800251c:	bf28      	it	cs
 800251e:	2304      	movcs	r3, #4
 8002520:	61bb      	str	r3, [r7, #24]
 8002522:	69fb      	ldr	r3, [r7, #28]
 8002524:	3304      	adds	r3, #4
 8002526:	2b06      	cmp	r3, #6
 8002528:	d902      	bls.n	8002530 <NVIC_EncodePriority+0x30>
 800252a:	69fb      	ldr	r3, [r7, #28]
 800252c:	3b03      	subs	r3, #3
 800252e:	e000      	b.n	8002532 <NVIC_EncodePriority+0x32>
 8002530:	2300      	movs	r3, #0
 8002532:	617b      	str	r3, [r7, #20]
 8002534:	f04f 32ff 	mov.w	r2, #4294967295	@ 0xffffffff
 8002538:	69bb      	ldr	r3, [r7, #24]
 800253a:	fa02 f303 	lsl.w	r3, r2, r3
 800253e:	43da      	mvns	r2, r3
 8002540:	68bb      	ldr	r3, [r7, #8]
 8002542:	401a      	ands	r2, r3
 8002544:	697b      	ldr	r3, [r7, #20]
 8002546:	409a      	lsls	r2, r3
 8002548:	f04f 31ff 	mov.w	r1, #4294967295	@ 0xffffffff
 800254c:	697b      	ldr	r3, [r7, #20]
 800254e:	fa01 f303 	lsl.w	r3, r1, r3
 8002552:	43d9      	mvns	r1, r3
 8002554:	687b      	ldr	r3, [r7, #4]
 8002556:	400b      	ands	r3, r1
 8002558:	4313      	orrs	r3, r2
 800255a:	4618      	mov	r0, r3
 800255c:	3724      	adds	r7, #36	@ 0x24
 800255e:	46bd      	mov	sp, r7
 8002560:	f85d 7b04 	ldr.w	r7, [sp], #4
 8002564:	4770      	bx	lr
	...

08002568 <SysTick_Config>:
 8002568:	b580      	push	{r7, lr}
 800256a:	b082      	sub	sp, #8
 800256c:	af00      	add	r7, sp, #0
 800256e:	6078      	str	r0, [r7, #4]
 8002570:	687b      	ldr	r3, [r7, #4]
 8002572:	3b01      	subs	r3, #1
 8002574:	f1b3 7f80 	cmp.w	r3, #16777216	@ 0x1000000
 8002578:	d301      	bcc.n	800257e <SysTick_Config+0x16>
 800257a:	2301      	movs	r3, #1
 800257c:	e00f      	b.n	800259e <SysTick_Config+0x36>
 800257e:	4a0a      	ldr	r2, [pc, #40]	@ (80025a8 <SysTick_Config+0x40>)
 8002580:	687b      	ldr	r3, [r7, #4]
 8002582:	3b01      	subs	r3, #1
 8002584:	6053      	str	r3, [r2, #4]
 8002586:	210f      	movs	r1, #15
 8002588:	f04f 30ff 	mov.w	r0, #4294967295	@ 0xffffffff
 800258c:	f7ff ff8e 	bl	80024ac <__NVIC_SetPriority>
 8002590:	4b05      	ldr	r3, [pc, #20]	@ (80025a8 <SysTick_Config+0x40>)
 8002592:	2200      	movs	r2, #0
 8002594:	609a      	str	r2, [r3, #8]
 8002596:	4b04      	ldr	r3, [pc, #16]	@ (80025a8 <SysTick_Config+0x40>)
 8002598:	2207      	movs	r2, #7
 800259a:	601a      	str	r2, [r3, #0]
 800259c:	2300      	movs	r3, #0
 800259e:	4618      	mov	r0, r3
 80025a0:	3708      	adds	r7, #8
 80025a2:	46bd      	mov	sp, r7
 80025a4:	bd80      	pop	{r7, pc}
 80025a6:	bf00      	nop
 80025a8:	e000e010 	.word	0xe000e010

080025ac <HAL_NVIC_SetPriorityGrouping>:
 80025ac:	b580      	push	{r7, lr}
 80025ae:	b082      	sub	sp, #8
 80025b0:	af00      	add	r7, sp, #0
 80025b2:	6078      	str	r0, [r7, #4]
 80025b4:	6878      	ldr	r0, [r7, #4]
 80025b6:	f7ff ff29 	bl	800240c <__NVIC_SetPriorityGrouping>
 80025ba:	bf00      	nop
 80025bc:	3708      	adds	r7, #8
 80025be:	46bd      	mov	sp, r7
 80025c0:	bd80      	pop	{r7, pc}

080025c2 <HAL_NVIC_SetPriority>:
 80025c2:	b580      	push	{r7, lr}
 80025c4:	b086      	sub	sp, #24
 80025c6:	af00      	add	r7, sp, #0
 80025c8:	4603      	mov	r3, r0
 80025ca:	60b9      	str	r1, [r7, #8]
 80025cc:	607a      	str	r2, [r7, #4]
 80025ce:	73fb      	strb	r3, [r7, #15]
 80025d0:	f7ff ff40 	bl	8002454 <__NVIC_GetPriorityGrouping>
 80025d4:	6178      	str	r0, [r7, #20]
 80025d6:	687a      	ldr	r2, [r7, #4]
 80025d8:	68b9      	ldr	r1, [r7, #8]
 80025da:	6978      	ldr	r0, [r7, #20]
 80025dc:	f7ff ff90 	bl	8002500 <NVIC_EncodePriority>
 80025e0:	4602      	mov	r2, r0
 80025e2:	f997 300f 	ldrsb.w	r3, [r7, #15]
 80025e6:	4611      	mov	r1, r2
 80025e8:	4618      	mov	r0, r3
 80025ea:	f7ff ff5f 	bl	80024ac <__NVIC_SetPriority>
 80025ee:	bf00      	nop
 80025f0:	3718      	adds	r7, #24
 80025f2:	46bd      	mov	sp, r7
 80025f4:	bd80      	pop	{r7, pc}

080025f6 <HAL_NVIC_EnableIRQ>:
 80025f6:	b580      	push	{r7, lr}
 80025f8:	b082      	sub	sp, #8
 80025fa:	af00      	add	r7, sp, #0
 80025fc:	4603      	mov	r3, r0
 80025fe:	71fb      	strb	r3, [r7, #7]
 8002600:	f997 3007 	ldrsb.w	r3, [r7, #7]
 8002604:	4618      	mov	r0, r3
 8002606:	f7ff ff33 	bl	8002470 <__NVIC_EnableIRQ>
 800260a:	bf00      	nop
 800260c:	3708      	adds	r7, #8
 800260e:	46bd      	mov	sp, r7
 8002610:	bd80      	pop	{r7, pc}

08002612 <HAL_SYSTICK_Config>:
 8002612:	b580      	push	{r7, lr}
 8002614:	b082      	sub	sp, #8
 8002616:	af00      	add	r7, sp, #0
 8002618:	6078      	str	r0, [r7, #4]
 800261a:	6878      	ldr	r0, [r7, #4]
 800261c:	f7ff ffa4 	bl	8002568 <SysTick_Config>
 8002620:	4603      	mov	r3, r0
 8002622:	4618      	mov	r0, r3
 8002624:	3708      	adds	r7, #8
 8002626:	46bd      	mov	sp, r7
 8002628:	bd80      	pop	{r7, pc}

0800262a <HAL_DMA_Abort>:
 800262a:	b480      	push	{r7}
 800262c:	b085      	sub	sp, #20
 800262e:	af00      	add	r7, sp, #0
 8002630:	6078      	str	r0, [r7, #4]
 8002632:	2300      	movs	r3, #0
 8002634:	73fb      	strb	r3, [r7, #15]
 8002636:	687b      	ldr	r3, [r7, #4]
 8002638:	f893 3025 	ldrb.w	r3, [r3, #37]	@ 0x25
 800263c:	b2db      	uxtb	r3, r3
 800263e:	2b02      	cmp	r3, #2
 8002640:	d005      	beq.n	800264e <HAL_DMA_Abort+0x24>
 8002642:	687b      	ldr	r3, [r7, #4]
 8002644:	2204      	movs	r2, #4
 8002646:	63da      	str	r2, [r3, #60]	@ 0x3c
 8002648:	2301      	movs	r3, #1
 800264a:	73fb      	strb	r3, [r7, #15]
 800264c:	e037      	b.n	80026be <HAL_DMA_Abort+0x94>
 800264e:	687b      	ldr	r3, [r7, #4]
 8002650:	681b      	ldr	r3, [r3, #0]
 8002652:	681a      	ldr	r2, [r3, #0]
 8002654:	687b      	ldr	r3, [r7, #4]
 8002656:	681b      	ldr	r3, [r3, #0]
 8002658:	f022 020e 	bic.w	r2, r2, #14
 800265c:	601a      	str	r2, [r3, #0]
 800265e:	687b      	ldr	r3, [r7, #4]
 8002660:	6c9b      	ldr	r3, [r3, #72]	@ 0x48
 8002662:	681a      	ldr	r2, [r3, #0]
 8002664:	687b      	ldr	r3, [r7, #4]
 8002666:	6c9b      	ldr	r3, [r3, #72]	@ 0x48
 8002668:	f422 7280 	bic.w	r2, r2, #256	@ 0x100
 800266c:	601a      	str	r2, [r3, #0]
 800266e:	687b      	ldr	r3, [r7, #4]
 8002670:	681b      	ldr	r3, [r3, #0]
 8002672:	681a      	ldr	r2, [r3, #0]
 8002674:	687b      	ldr	r3, [r7, #4]
 8002676:	681b      	ldr	r3, [r3, #0]
 8002678:	f022 0201 	bic.w	r2, r2, #1
 800267c:	601a      	str	r2, [r3, #0]
 800267e:	687b      	ldr	r3, [r7, #4]
 8002680:	6c5b      	ldr	r3, [r3, #68]	@ 0x44
 8002682:	f003 021f 	and.w	r2, r3, #31
 8002686:	687b      	ldr	r3, [r7, #4]
 8002688:	6c1b      	ldr	r3, [r3, #64]	@ 0x40
 800268a:	2101      	movs	r1, #1
 800268c:	fa01 f202 	lsl.w	r2, r1, r2
 8002690:	605a      	str	r2, [r3, #4]
 8002692:	687b      	ldr	r3, [r7, #4]
 8002694:	6cdb      	ldr	r3, [r3, #76]	@ 0x4c
 8002696:	687a      	ldr	r2, [r7, #4]
 8002698:	6d12      	ldr	r2, [r2, #80]	@ 0x50
 800269a:	605a      	str	r2, [r3, #4]
 800269c:	687b      	ldr	r3, [r7, #4]
 800269e:	6d5b      	ldr	r3, [r3, #84]	@ 0x54
 80026a0:	2b00      	cmp	r3, #0
 80026a2:	d00c      	beq.n	80026be <HAL_DMA_Abort+0x94>
 80026a4:	687b      	ldr	r3, [r7, #4]
 80026a6:	6d5b      	ldr	r3, [r3, #84]	@ 0x54
 80026a8:	681a      	ldr	r2, [r3, #0]
 80026aa:	687b      	ldr	r3, [r7, #4]
 80026ac:	6d5b      	ldr	r3, [r3, #84]	@ 0x54
 80026ae:	f422 7280 	bic.w	r2, r2, #256	@ 0x100
 80026b2:	601a      	str	r2, [r3, #0]
 80026b4:	687b      	ldr	r3, [r7, #4]
 80026b6:	6d9b      	ldr	r3, [r3, #88]	@ 0x58
 80026b8:	687a      	ldr	r2, [r7, #4]
 80026ba:	6dd2      	ldr	r2, [r2, #92]	@ 0x5c
 80026bc:	605a      	str	r2, [r3, #4]
 80026be:	687b      	ldr	r3, [r7, #4]
 80026c0:	2201      	movs	r2, #1
 80026c2:	f883 2025 	strb.w	r2, [r3, #37]	@ 0x25
 80026c6:	687b      	ldr	r3, [r7, #4]
 80026c8:	2200      	movs	r2, #0
 80026ca:	f883 2024 	strb.w	r2, [r3, #36]	@ 0x24
 80026ce:	7bfb      	ldrb	r3, [r7, #15]
 80026d0:	4618      	mov	r0, r3
 80026d2:	3714      	adds	r7, #20
 80026d4:	46bd      	mov	sp, r7
 80026d6:	f85d 7b04 	ldr.w	r7, [sp], #4
 80026da:	4770      	bx	lr

080026dc <HAL_DMA_Abort_IT>:
 80026dc:	b580      	push	{r7, lr}
 80026de:	b084      	sub	sp, #16
 80026e0:	af00      	add	r7, sp, #0
 80026e2:	6078      	str	r0, [r7, #4]
 80026e4:	2300      	movs	r3, #0
 80026e6:	73fb      	strb	r3, [r7, #15]
 80026e8:	687b      	ldr	r3, [r7, #4]
 80026ea:	f893 3025 	ldrb.w	r3, [r3, #37]	@ 0x25
 80026ee:	b2db      	uxtb	r3, r3
 80026f0:	2b02      	cmp	r3, #2
 80026f2:	d00d      	beq.n	8002710 <HAL_DMA_Abort_IT+0x34>
 80026f4:	687b      	ldr	r3, [r7, #4]
 80026f6:	2204      	movs	r2, #4
 80026f8:	63da      	str	r2, [r3, #60]	@ 0x3c
 80026fa:	687b      	ldr	r3, [r7, #4]
 80026fc:	2201      	movs	r2, #1
 80026fe:	f883 2025 	strb.w	r2, [r3, #37]	@ 0x25
 8002702:	687b      	ldr	r3, [r7, #4]
 8002704:	2200      	movs	r2, #0
 8002706:	f883 2024 	strb.w	r2, [r3, #36]	@ 0x24
 800270a:	2301      	movs	r3, #1
 800270c:	73fb      	strb	r3, [r7, #15]
 800270e:	e047      	b.n	80027a0 <HAL_DMA_Abort_IT+0xc4>
 8002710:	687b      	ldr	r3, [r7, #4]
 8002712:	681b      	ldr	r3, [r3, #0]
 8002714:	681a      	ldr	r2, [r3, #0]
 8002716:	687b      	ldr	r3, [r7, #4]
 8002718:	681b      	ldr	r3, [r3, #0]
 800271a:	f022 020e 	bic.w	r2, r2, #14
 800271e:	601a      	str	r2, [r3, #0]
 8002720:	687b      	ldr	r3, [r7, #4]
 8002722:	681b      	ldr	r3, [r3, #0]
 8002724:	681a      	ldr	r2, [r3, #0]
 8002726:	687b      	ldr	r3, [r7, #4]
 8002728:	681b      	ldr	r3, [r3, #0]
 800272a:	f022 0201 	bic.w	r2, r2, #1
 800272e:	601a      	str	r2, [r3, #0]
 8002730:	687b      	ldr	r3, [r7, #4]
 8002732:	6c9b      	ldr	r3, [r3, #72]	@ 0x48
 8002734:	681a      	ldr	r2, [r3, #0]
 8002736:	687b      	ldr	r3, [r7, #4]
 8002738:	6c9b      	ldr	r3, [r3, #72]	@ 0x48
 800273a:	f422 7280 	bic.w	r2, r2, #256	@ 0x100
 800273e:	601a      	str	r2, [r3, #0]
 8002740:	687b      	ldr	r3, [r7, #4]
 8002742:	6c5b      	ldr	r3, [r3, #68]	@ 0x44
 8002744:	f003 021f 	and.w	r2, r3, #31
 8002748:	687b      	ldr	r3, [r7, #4]
 800274a:	6c1b      	ldr	r3, [r3, #64]	@ 0x40
 800274c:	2101      	movs	r1, #1
 800274e:	fa01 f202 	lsl.w	r2, r1, r2
 8002752:	605a      	str	r2, [r3, #4]
 8002754:	687b      	ldr	r3, [r7, #4]
 8002756:	6cdb      	ldr	r3, [r3, #76]	@ 0x4c
 8002758:	687a      	ldr	r2, [r7, #4]
 800275a:	6d12      	ldr	r2, [r2, #80]	@ 0x50
 800275c:	605a      	str	r2, [r3, #4]
 800275e:	687b      	ldr	r3, [r7, #4]
 8002760:	6d5b      	ldr	r3, [r3, #84]	@ 0x54
 8002762:	2b00      	cmp	r3, #0
 8002764:	d00c      	beq.n	8002780 <HAL_DMA_Abort_IT+0xa4>
 8002766:	687b      	ldr	r3, [r7, #4]
 8002768:	6d5b      	ldr	r3, [r3, #84]	@ 0x54
 800276a:	681a      	ldr	r2, [r3, #0]
 800276c:	687b      	ldr	r3, [r7, #4]
 800276e:	6d5b      	ldr	r3, [r3, #84]	@ 0x54
 8002770:	f422 7280 	bic.w	r2, r2, #256	@ 0x100
 8002774:	601a      	str	r2, [r3, #0]
 8002776:	687b      	ldr	r3, [r7, #4]
 8002778:	6d9b      	ldr	r3, [r3, #88]	@ 0x58
 800277a:	687a      	ldr	r2, [r7, #4]
 800277c:	6dd2      	ldr	r2, [r2, #92]	@ 0x5c
 800277e:	605a      	str	r2, [r3, #4]
 8002780:	687b      	ldr	r3, [r7, #4]
 8002782:	2201      	movs	r2, #1
 8002784:	f883 2025 	strb.w	r2, [r3, #37]	@ 0x25
 8002788:	687b      	ldr	r3, [r7, #4]
 800278a:	2200      	movs	r2, #0
 800278c:	f883 2024 	strb.w	r2, [r3, #36]	@ 0x24
 8002790:	687b      	ldr	r3, [r7, #4]
 8002792:	6b9b      	ldr	r3, [r3, #56]	@ 0x38
 8002794:	2b00      	cmp	r3, #0
 8002796:	d003      	beq.n	80027a0 <HAL_DMA_Abort_IT+0xc4>
 8002798:	687b      	ldr	r3, [r7, #4]
 800279a:	6b9b      	ldr	r3, [r3, #56]	@ 0x38
 800279c:	6878      	ldr	r0, [r7, #4]
 800279e:	4798      	blx	r3
 80027a0:	7bfb      	ldrb	r3, [r7, #15]
 80027a2:	4618      	mov	r0, r3
 80027a4:	3710      	adds	r7, #16
 80027a6:	46bd      	mov	sp, r7
 80027a8:	bd80      	pop	{r7, pc}
	...

080027ac <HAL_FDCAN_Init>:
 80027ac:	b580      	push	{r7, lr}
 80027ae:	b084      	sub	sp, #16
 80027b0:	af00      	add	r7, sp, #0
 80027b2:	6078      	str	r0, [r7, #4]
 80027b4:	687b      	ldr	r3, [r7, #4]
 80027b6:	2b00      	cmp	r3, #0
 80027b8:	d101      	bne.n	80027be <HAL_FDCAN_Init+0x12>
 80027ba:	2301      	movs	r3, #1
 80027bc:	e147      	b.n	8002a4e <HAL_FDCAN_Init+0x2a2>
 80027be:	687b      	ldr	r3, [r7, #4]
 80027c0:	f893 305c 	ldrb.w	r3, [r3, #92]	@ 0x5c
 80027c4:	b2db      	uxtb	r3, r3
 80027c6:	2b00      	cmp	r3, #0
 80027c8:	d106      	bne.n	80027d8 <HAL_FDCAN_Init+0x2c>
 80027ca:	687b      	ldr	r3, [r7, #4]
 80027cc:	2200      	movs	r2, #0
 80027ce:	f883 205d 	strb.w	r2, [r3, #93]	@ 0x5d
 80027d2:	6878      	ldr	r0, [r7, #4]
 80027d4:	f7ff f986 	bl	8001ae4 <HAL_FDCAN_MspInit>
 80027d8:	687b      	ldr	r3, [r7, #4]
 80027da:	681b      	ldr	r3, [r3, #0]
 80027dc:	699a      	ldr	r2, [r3, #24]
 80027de:	687b      	ldr	r3, [r7, #4]
 80027e0:	681b      	ldr	r3, [r3, #0]
 80027e2:	f022 0210 	bic.w	r2, r2, #16
 80027e6:	619a      	str	r2, [r3, #24]
 80027e8:	f7ff fde2 	bl	80023b0 <HAL_GetTick>
 80027ec:	60f8      	str	r0, [r7, #12]
 80027ee:	e012      	b.n	8002816 <HAL_FDCAN_Init+0x6a>
 80027f0:	f7ff fdde 	bl	80023b0 <HAL_GetTick>
 80027f4:	4602      	mov	r2, r0
 80027f6:	68fb      	ldr	r3, [r7, #12]
 80027f8:	1ad3      	subs	r3, r2, r3
 80027fa:	2b0a      	cmp	r3, #10
 80027fc:	d90b      	bls.n	8002816 <HAL_FDCAN_Init+0x6a>
 80027fe:	687b      	ldr	r3, [r7, #4]
 8002800:	6e1b      	ldr	r3, [r3, #96]	@ 0x60
 8002802:	f043 0201 	orr.w	r2, r3, #1
 8002806:	687b      	ldr	r3, [r7, #4]
 8002808:	661a      	str	r2, [r3, #96]	@ 0x60
 800280a:	687b      	ldr	r3, [r7, #4]
 800280c:	2203      	movs	r2, #3
 800280e:	f883 205c 	strb.w	r2, [r3, #92]	@ 0x5c
 8002812:	2301      	movs	r3, #1
 8002814:	e11b      	b.n	8002a4e <HAL_FDCAN_Init+0x2a2>
 8002816:	687b      	ldr	r3, [r7, #4]
 8002818:	681b      	ldr	r3, [r3, #0]
 800281a:	699b      	ldr	r3, [r3, #24]
 800281c:	f003 0308 	and.w	r3, r3, #8
 8002820:	2b08      	cmp	r3, #8
 8002822:	d0e5      	beq.n	80027f0 <HAL_FDCAN_Init+0x44>
 8002824:	687b      	ldr	r3, [r7, #4]
 8002826:	681b      	ldr	r3, [r3, #0]
 8002828:	699a      	ldr	r2, [r3, #24]
 800282a:	687b      	ldr	r3, [r7, #4]
 800282c:	681b      	ldr	r3, [r3, #0]
 800282e:	f042 0201 	orr.w	r2, r2, #1
 8002832:	619a      	str	r2, [r3, #24]
 8002834:	f7ff fdbc 	bl	80023b0 <HAL_GetTick>
 8002838:	60f8      	str	r0, [r7, #12]
 800283a:	e012      	b.n	8002862 <HAL_FDCAN_Init+0xb6>
 800283c:	f7ff fdb8 	bl	80023b0 <HAL_GetTick>
 8002840:	4602      	mov	r2, r0
 8002842:	68fb      	ldr	r3, [r7, #12]
 8002844:	1ad3      	subs	r3, r2, r3
 8002846:	2b0a      	cmp	r3, #10
 8002848:	d90b      	bls.n	8002862 <HAL_FDCAN_Init+0xb6>
 800284a:	687b      	ldr	r3, [r7, #4]
 800284c:	6e1b      	ldr	r3, [r3, #96]	@ 0x60
 800284e:	f043 0201 	orr.w	r2, r3, #1
 8002852:	687b      	ldr	r3, [r7, #4]
 8002854:	661a      	str	r2, [r3, #96]	@ 0x60
 8002856:	687b      	ldr	r3, [r7, #4]
 8002858:	2203      	movs	r2, #3
 800285a:	f883 205c 	strb.w	r2, [r3, #92]	@ 0x5c
 800285e:	2301      	movs	r3, #1
 8002860:	e0f5      	b.n	8002a4e <HAL_FDCAN_Init+0x2a2>
 8002862:	687b      	ldr	r3, [r7, #4]
 8002864:	681b      	ldr	r3, [r3, #0]
 8002866:	699b      	ldr	r3, [r3, #24]
 8002868:	f003 0301 	and.w	r3, r3, #1
 800286c:	2b00      	cmp	r3, #0
 800286e:	d0e5      	beq.n	800283c <HAL_FDCAN_Init+0x90>
 8002870:	687b      	ldr	r3, [r7, #4]
 8002872:	681b      	ldr	r3, [r3, #0]
 8002874:	699a      	ldr	r2, [r3, #24]
 8002876:	687b      	ldr	r3, [r7, #4]
 8002878:	681b      	ldr	r3, [r3, #0]
 800287a:	f042 0202 	orr.w	r2, r2, #2
 800287e:	619a      	str	r2, [r3, #24]
 8002880:	687b      	ldr	r3, [r7, #4]
 8002882:	681b      	ldr	r3, [r3, #0]
 8002884:	4a74      	ldr	r2, [pc, #464]	@ (8002a58 <HAL_FDCAN_Init+0x2ac>)
 8002886:	4293      	cmp	r3, r2
 8002888:	d103      	bne.n	8002892 <HAL_FDCAN_Init+0xe6>
 800288a:	4a74      	ldr	r2, [pc, #464]	@ (8002a5c <HAL_FDCAN_Init+0x2b0>)
 800288c:	687b      	ldr	r3, [r7, #4]
 800288e:	685b      	ldr	r3, [r3, #4]
 8002890:	6013      	str	r3, [r2, #0]
 8002892:	687b      	ldr	r3, [r7, #4]
 8002894:	7c1b      	ldrb	r3, [r3, #16]
 8002896:	2b01      	cmp	r3, #1
 8002898:	d108      	bne.n	80028ac <HAL_FDCAN_Init+0x100>
 800289a:	687b      	ldr	r3, [r7, #4]
 800289c:	681b      	ldr	r3, [r3, #0]
 800289e:	699a      	ldr	r2, [r3, #24]
 80028a0:	687b      	ldr	r3, [r7, #4]
 80028a2:	681b      	ldr	r3, [r3, #0]
 80028a4:	f022 0240 	bic.w	r2, r2, #64	@ 0x40
 80028a8:	619a      	str	r2, [r3, #24]
 80028aa:	e007      	b.n	80028bc <HAL_FDCAN_Init+0x110>
 80028ac:	687b      	ldr	r3, [r7, #4]
 80028ae:	681b      	ldr	r3, [r3, #0]
 80028b0:	699a      	ldr	r2, [r3, #24]
 80028b2:	687b      	ldr	r3, [r7, #4]
 80028b4:	681b      	ldr	r3, [r3, #0]
 80028b6:	f042 0240 	orr.w	r2, r2, #64	@ 0x40
 80028ba:	619a      	str	r2, [r3, #24]
 80028bc:	687b      	ldr	r3, [r7, #4]
 80028be:	7c5b      	ldrb	r3, [r3, #17]
 80028c0:	2b01      	cmp	r3, #1
 80028c2:	d108      	bne.n	80028d6 <HAL_FDCAN_Init+0x12a>
 80028c4:	687b      	ldr	r3, [r7, #4]
 80028c6:	681b      	ldr	r3, [r3, #0]
 80028c8:	699a      	ldr	r2, [r3, #24]
 80028ca:	687b      	ldr	r3, [r7, #4]
 80028cc:	681b      	ldr	r3, [r3, #0]
 80028ce:	f442 4280 	orr.w	r2, r2, #16384	@ 0x4000
 80028d2:	619a      	str	r2, [r3, #24]
 80028d4:	e007      	b.n	80028e6 <HAL_FDCAN_Init+0x13a>
 80028d6:	687b      	ldr	r3, [r7, #4]
 80028d8:	681b      	ldr	r3, [r3, #0]
 80028da:	699a      	ldr	r2, [r3, #24]
 80028dc:	687b      	ldr	r3, [r7, #4]
 80028de:	681b      	ldr	r3, [r3, #0]
 80028e0:	f422 4280 	bic.w	r2, r2, #16384	@ 0x4000
 80028e4:	619a      	str	r2, [r3, #24]
 80028e6:	687b      	ldr	r3, [r7, #4]
 80028e8:	7c9b      	ldrb	r3, [r3, #18]
 80028ea:	2b01      	cmp	r3, #1
 80028ec:	d108      	bne.n	8002900 <HAL_FDCAN_Init+0x154>
 80028ee:	687b      	ldr	r3, [r7, #4]
 80028f0:	681b      	ldr	r3, [r3, #0]
 80028f2:	699a      	ldr	r2, [r3, #24]
 80028f4:	687b      	ldr	r3, [r7, #4]
 80028f6:	681b      	ldr	r3, [r3, #0]
 80028f8:	f422 5280 	bic.w	r2, r2, #4096	@ 0x1000
 80028fc:	619a      	str	r2, [r3, #24]
 80028fe:	e007      	b.n	8002910 <HAL_FDCAN_Init+0x164>
 8002900:	687b      	ldr	r3, [r7, #4]
 8002902:	681b      	ldr	r3, [r3, #0]
 8002904:	699a      	ldr	r2, [r3, #24]
 8002906:	687b      	ldr	r3, [r7, #4]
 8002908:	681b      	ldr	r3, [r3, #0]
 800290a:	f442 5280 	orr.w	r2, r2, #4096	@ 0x1000
 800290e:	619a      	str	r2, [r3, #24]
 8002910:	687b      	ldr	r3, [r7, #4]
 8002912:	681b      	ldr	r3, [r3, #0]
 8002914:	699b      	ldr	r3, [r3, #24]
 8002916:	f423 7140 	bic.w	r1, r3, #768	@ 0x300
 800291a:	687b      	ldr	r3, [r7, #4]
 800291c:	689a      	ldr	r2, [r3, #8]
 800291e:	687b      	ldr	r3, [r7, #4]
 8002920:	681b      	ldr	r3, [r3, #0]
 8002922:	430a      	orrs	r2, r1
 8002924:	619a      	str	r2, [r3, #24]
 8002926:	687b      	ldr	r3, [r7, #4]
 8002928:	681b      	ldr	r3, [r3, #0]
 800292a:	699a      	ldr	r2, [r3, #24]
 800292c:	687b      	ldr	r3, [r7, #4]
 800292e:	681b      	ldr	r3, [r3, #0]
 8002930:	f022 02a4 	bic.w	r2, r2, #164	@ 0xa4
 8002934:	619a      	str	r2, [r3, #24]
 8002936:	687b      	ldr	r3, [r7, #4]
 8002938:	681b      	ldr	r3, [r3, #0]
 800293a:	691a      	ldr	r2, [r3, #16]
 800293c:	687b      	ldr	r3, [r7, #4]
 800293e:	681b      	ldr	r3, [r3, #0]
 8002940:	f022 0210 	bic.w	r2, r2, #16
 8002944:	611a      	str	r2, [r3, #16]
 8002946:	687b      	ldr	r3, [r7, #4]
 8002948:	68db      	ldr	r3, [r3, #12]
 800294a:	2b01      	cmp	r3, #1
 800294c:	d108      	bne.n	8002960 <HAL_FDCAN_Init+0x1b4>
 800294e:	687b      	ldr	r3, [r7, #4]
 8002950:	681b      	ldr	r3, [r3, #0]
 8002952:	699a      	ldr	r2, [r3, #24]
 8002954:	687b      	ldr	r3, [r7, #4]
 8002956:	681b      	ldr	r3, [r3, #0]
 8002958:	f042 0204 	orr.w	r2, r2, #4
 800295c:	619a      	str	r2, [r3, #24]
 800295e:	e02c      	b.n	80029ba <HAL_FDCAN_Init+0x20e>
 8002960:	687b      	ldr	r3, [r7, #4]
 8002962:	68db      	ldr	r3, [r3, #12]
 8002964:	2b00      	cmp	r3, #0
 8002966:	d028      	beq.n	80029ba <HAL_FDCAN_Init+0x20e>
 8002968:	687b      	ldr	r3, [r7, #4]
 800296a:	68db      	ldr	r3, [r3, #12]
 800296c:	2b02      	cmp	r3, #2
 800296e:	d01c      	beq.n	80029aa <HAL_FDCAN_Init+0x1fe>
 8002970:	687b      	ldr	r3, [r7, #4]
 8002972:	681b      	ldr	r3, [r3, #0]
 8002974:	699a      	ldr	r2, [r3, #24]
 8002976:	687b      	ldr	r3, [r7, #4]
 8002978:	681b      	ldr	r3, [r3, #0]
 800297a:	f042 0280 	orr.w	r2, r2, #128	@ 0x80
 800297e:	619a      	str	r2, [r3, #24]
 8002980:	687b      	ldr	r3, [r7, #4]
 8002982:	681b      	ldr	r3, [r3, #0]
 8002984:	691a      	ldr	r2, [r3, #16]
 8002986:	687b      	ldr	r3, [r7, #4]
 8002988:	681b      	ldr	r3, [r3, #0]
 800298a:	f042 0210 	orr.w	r2, r2, #16
 800298e:	611a      	str	r2, [r3, #16]
 8002990:	687b      	ldr	r3, [r7, #4]
 8002992:	68db      	ldr	r3, [r3, #12]
 8002994:	2b03      	cmp	r3, #3
 8002996:	d110      	bne.n	80029ba <HAL_FDCAN_Init+0x20e>
 8002998:	687b      	ldr	r3, [r7, #4]
 800299a:	681b      	ldr	r3, [r3, #0]
 800299c:	699a      	ldr	r2, [r3, #24]
 800299e:	687b      	ldr	r3, [r7, #4]
 80029a0:	681b      	ldr	r3, [r3, #0]
 80029a2:	f042 0220 	orr.w	r2, r2, #32
 80029a6:	619a      	str	r2, [r3, #24]
 80029a8:	e007      	b.n	80029ba <HAL_FDCAN_Init+0x20e>
 80029aa:	687b      	ldr	r3, [r7, #4]
 80029ac:	681b      	ldr	r3, [r3, #0]
 80029ae:	699a      	ldr	r2, [r3, #24]
 80029b0:	687b      	ldr	r3, [r7, #4]
 80029b2:	681b      	ldr	r3, [r3, #0]
 80029b4:	f042 0220 	orr.w	r2, r2, #32
 80029b8:	619a      	str	r2, [r3, #24]
 80029ba:	687b      	ldr	r3, [r7, #4]
 80029bc:	699b      	ldr	r3, [r3, #24]
 80029be:	3b01      	subs	r3, #1
 80029c0:	065a      	lsls	r2, r3, #25
 80029c2:	687b      	ldr	r3, [r7, #4]
 80029c4:	69db      	ldr	r3, [r3, #28]
 80029c6:	3b01      	subs	r3, #1
 80029c8:	021b      	lsls	r3, r3, #8
 80029ca:	431a      	orrs	r2, r3
 80029cc:	687b      	ldr	r3, [r7, #4]
 80029ce:	6a1b      	ldr	r3, [r3, #32]
 80029d0:	3b01      	subs	r3, #1
 80029d2:	ea42 0103 	orr.w	r1, r2, r3
 80029d6:	687b      	ldr	r3, [r7, #4]
 80029d8:	695b      	ldr	r3, [r3, #20]
 80029da:	3b01      	subs	r3, #1
 80029dc:	041a      	lsls	r2, r3, #16
 80029de:	687b      	ldr	r3, [r7, #4]
 80029e0:	681b      	ldr	r3, [r3, #0]
 80029e2:	430a      	orrs	r2, r1
 80029e4:	61da      	str	r2, [r3, #28]
 80029e6:	687b      	ldr	r3, [r7, #4]
 80029e8:	689b      	ldr	r3, [r3, #8]
 80029ea:	f5b3 7f40 	cmp.w	r3, #768	@ 0x300
 80029ee:	d115      	bne.n	8002a1c <HAL_FDCAN_Init+0x270>
 80029f0:	687b      	ldr	r3, [r7, #4]
 80029f2:	6a9b      	ldr	r3, [r3, #40]	@ 0x28
 80029f4:	1e5a      	subs	r2, r3, #1
 80029f6:	687b      	ldr	r3, [r7, #4]
 80029f8:	6adb      	ldr	r3, [r3, #44]	@ 0x2c
 80029fa:	3b01      	subs	r3, #1
 80029fc:	021b      	lsls	r3, r3, #8
 80029fe:	431a      	orrs	r2, r3
 8002a00:	687b      	ldr	r3, [r7, #4]
 8002a02:	6b1b      	ldr	r3, [r3, #48]	@ 0x30
 8002a04:	3b01      	subs	r3, #1
 8002a06:	011b      	lsls	r3, r3, #4
 8002a08:	ea42 0103 	orr.w	r1, r2, r3
 8002a0c:	687b      	ldr	r3, [r7, #4]
 8002a0e:	6a5b      	ldr	r3, [r3, #36]	@ 0x24
 8002a10:	3b01      	subs	r3, #1
 8002a12:	041a      	lsls	r2, r3, #16
 8002a14:	687b      	ldr	r3, [r7, #4]
 8002a16:	681b      	ldr	r3, [r3, #0]
 8002a18:	430a      	orrs	r2, r1
 8002a1a:	60da      	str	r2, [r3, #12]
 8002a1c:	687b      	ldr	r3, [r7, #4]
 8002a1e:	681b      	ldr	r3, [r3, #0]
 8002a20:	f8d3 10c0 	ldr.w	r1, [r3, #192]	@ 0xc0
 8002a24:	687b      	ldr	r3, [r7, #4]
 8002a26:	6bda      	ldr	r2, [r3, #60]	@ 0x3c
 8002a28:	687b      	ldr	r3, [r7, #4]
 8002a2a:	681b      	ldr	r3, [r3, #0]
 8002a2c:	430a      	orrs	r2, r1
 8002a2e:	f8c3 20c0 	str.w	r2, [r3, #192]	@ 0xc0
 8002a32:	6878      	ldr	r0, [r7, #4]
 8002a34:	f000 fc64 	bl	8003300 <FDCAN_CalcultateRamBlockAddresses>
 8002a38:	687b      	ldr	r3, [r7, #4]
 8002a3a:	2200      	movs	r2, #0
 8002a3c:	659a      	str	r2, [r3, #88]	@ 0x58
 8002a3e:	687b      	ldr	r3, [r7, #4]
 8002a40:	2200      	movs	r2, #0
 8002a42:	661a      	str	r2, [r3, #96]	@ 0x60
 8002a44:	687b      	ldr	r3, [r7, #4]
 8002a46:	2201      	movs	r2, #1
 8002a48:	f883 205c 	strb.w	r2, [r3, #92]	@ 0x5c
 8002a4c:	2300      	movs	r3, #0
 8002a4e:	4618      	mov	r0, r3
 8002a50:	3710      	adds	r7, #16
 8002a52:	46bd      	mov	sp, r7
 8002a54:	bd80      	pop	{r7, pc}
 8002a56:	bf00      	nop
 8002a58:	40006400 	.word	0x40006400
 8002a5c:	40006500 	.word	0x40006500

08002a60 <HAL_FDCAN_ConfigFilter>:
 8002a60:	b480      	push	{r7}
 8002a62:	b087      	sub	sp, #28
 8002a64:	af00      	add	r7, sp, #0
 8002a66:	6078      	str	r0, [r7, #4]
 8002a68:	6039      	str	r1, [r7, #0]
 8002a6a:	687b      	ldr	r3, [r7, #4]
 8002a6c:	f893 305c 	ldrb.w	r3, [r3, #92]	@ 0x5c
 8002a70:	75fb      	strb	r3, [r7, #23]
 8002a72:	7dfb      	ldrb	r3, [r7, #23]
 8002a74:	2b01      	cmp	r3, #1
 8002a76:	d002      	beq.n	8002a7e <HAL_FDCAN_ConfigFilter+0x1e>
 8002a78:	7dfb      	ldrb	r3, [r7, #23]
 8002a7a:	2b02      	cmp	r3, #2
 8002a7c:	d13d      	bne.n	8002afa <HAL_FDCAN_ConfigFilter+0x9a>
 8002a7e:	683b      	ldr	r3, [r7, #0]
 8002a80:	681b      	ldr	r3, [r3, #0]
 8002a82:	2b00      	cmp	r3, #0
 8002a84:	d119      	bne.n	8002aba <HAL_FDCAN_ConfigFilter+0x5a>
 8002a86:	683b      	ldr	r3, [r7, #0]
 8002a88:	689b      	ldr	r3, [r3, #8]
 8002a8a:	079a      	lsls	r2, r3, #30
 8002a8c:	683b      	ldr	r3, [r7, #0]
 8002a8e:	68db      	ldr	r3, [r3, #12]
 8002a90:	06db      	lsls	r3, r3, #27
 8002a92:	431a      	orrs	r2, r3
 8002a94:	683b      	ldr	r3, [r7, #0]
 8002a96:	691b      	ldr	r3, [r3, #16]
 8002a98:	041b      	lsls	r3, r3, #16
 8002a9a:	431a      	orrs	r2, r3
 8002a9c:	683b      	ldr	r3, [r7, #0]
 8002a9e:	695b      	ldr	r3, [r3, #20]
 8002aa0:	4313      	orrs	r3, r2
 8002aa2:	613b      	str	r3, [r7, #16]
 8002aa4:	687b      	ldr	r3, [r7, #4]
 8002aa6:	6c1a      	ldr	r2, [r3, #64]	@ 0x40
 8002aa8:	683b      	ldr	r3, [r7, #0]
 8002aaa:	685b      	ldr	r3, [r3, #4]
 8002aac:	009b      	lsls	r3, r3, #2
 8002aae:	4413      	add	r3, r2
 8002ab0:	60bb      	str	r3, [r7, #8]
 8002ab2:	68bb      	ldr	r3, [r7, #8]
 8002ab4:	693a      	ldr	r2, [r7, #16]
 8002ab6:	601a      	str	r2, [r3, #0]
 8002ab8:	e01d      	b.n	8002af6 <HAL_FDCAN_ConfigFilter+0x96>
 8002aba:	683b      	ldr	r3, [r7, #0]
 8002abc:	68db      	ldr	r3, [r3, #12]
 8002abe:	075a      	lsls	r2, r3, #29
 8002ac0:	683b      	ldr	r3, [r7, #0]
 8002ac2:	691b      	ldr	r3, [r3, #16]
 8002ac4:	4313      	orrs	r3, r2
 8002ac6:	613b      	str	r3, [r7, #16]
 8002ac8:	683b      	ldr	r3, [r7, #0]
 8002aca:	689b      	ldr	r3, [r3, #8]
 8002acc:	079a      	lsls	r2, r3, #30
 8002ace:	683b      	ldr	r3, [r7, #0]
 8002ad0:	695b      	ldr	r3, [r3, #20]
 8002ad2:	4313      	orrs	r3, r2
 8002ad4:	60fb      	str	r3, [r7, #12]
 8002ad6:	687b      	ldr	r3, [r7, #4]
 8002ad8:	6c5a      	ldr	r2, [r3, #68]	@ 0x44
 8002ada:	683b      	ldr	r3, [r7, #0]
 8002adc:	685b      	ldr	r3, [r3, #4]
 8002ade:	00db      	lsls	r3, r3, #3
 8002ae0:	4413      	add	r3, r2
 8002ae2:	60bb      	str	r3, [r7, #8]
 8002ae4:	68bb      	ldr	r3, [r7, #8]
 8002ae6:	693a      	ldr	r2, [r7, #16]
 8002ae8:	601a      	str	r2, [r3, #0]
 8002aea:	68bb      	ldr	r3, [r7, #8]
 8002aec:	3304      	adds	r3, #4
 8002aee:	60bb      	str	r3, [r7, #8]
 8002af0:	68bb      	ldr	r3, [r7, #8]
 8002af2:	68fa      	ldr	r2, [r7, #12]
 8002af4:	601a      	str	r2, [r3, #0]
 8002af6:	2300      	movs	r3, #0
 8002af8:	e006      	b.n	8002b08 <HAL_FDCAN_ConfigFilter+0xa8>
 8002afa:	687b      	ldr	r3, [r7, #4]
 8002afc:	6e1b      	ldr	r3, [r3, #96]	@ 0x60
 8002afe:	f043 0202 	orr.w	r2, r3, #2
 8002b02:	687b      	ldr	r3, [r7, #4]
 8002b04:	661a      	str	r2, [r3, #96]	@ 0x60
 8002b06:	2301      	movs	r3, #1
 8002b08:	4618      	mov	r0, r3
 8002b0a:	371c      	adds	r7, #28
 8002b0c:	46bd      	mov	sp, r7
 8002b0e:	f85d 7b04 	ldr.w	r7, [sp], #4
 8002b12:	4770      	bx	lr

08002b14 <HAL_FDCAN_Start>:
 8002b14:	b480      	push	{r7}
 8002b16:	b083      	sub	sp, #12
 8002b18:	af00      	add	r7, sp, #0
 8002b1a:	6078      	str	r0, [r7, #4]
 8002b1c:	687b      	ldr	r3, [r7, #4]
 8002b1e:	f893 305c 	ldrb.w	r3, [r3, #92]	@ 0x5c
 8002b22:	b2db      	uxtb	r3, r3
 8002b24:	2b01      	cmp	r3, #1
 8002b26:	d110      	bne.n	8002b4a <HAL_FDCAN_Start+0x36>
 8002b28:	687b      	ldr	r3, [r7, #4]
 8002b2a:	2202      	movs	r2, #2
 8002b2c:	f883 205c 	strb.w	r2, [r3, #92]	@ 0x5c
 8002b30:	687b      	ldr	r3, [r7, #4]
 8002b32:	681b      	ldr	r3, [r3, #0]
 8002b34:	699a      	ldr	r2, [r3, #24]
 8002b36:	687b      	ldr	r3, [r7, #4]
 8002b38:	681b      	ldr	r3, [r3, #0]
 8002b3a:	f022 0201 	bic.w	r2, r2, #1
 8002b3e:	619a      	str	r2, [r3, #24]
 8002b40:	687b      	ldr	r3, [r7, #4]
 8002b42:	2200      	movs	r2, #0
 8002b44:	661a      	str	r2, [r3, #96]	@ 0x60
 8002b46:	2300      	movs	r3, #0
 8002b48:	e006      	b.n	8002b58 <HAL_FDCAN_Start+0x44>
 8002b4a:	687b      	ldr	r3, [r7, #4]
 8002b4c:	6e1b      	ldr	r3, [r3, #96]	@ 0x60
 8002b4e:	f043 0204 	orr.w	r2, r3, #4
 8002b52:	687b      	ldr	r3, [r7, #4]
 8002b54:	661a      	str	r2, [r3, #96]	@ 0x60
 8002b56:	2301      	movs	r3, #1
 8002b58:	4618      	mov	r0, r3
 8002b5a:	370c      	adds	r7, #12
 8002b5c:	46bd      	mov	sp, r7
 8002b5e:	f85d 7b04 	ldr.w	r7, [sp], #4
 8002b62:	4770      	bx	lr

08002b64 <HAL_FDCAN_AddMessageToTxFifoQ>:
 8002b64:	b580      	push	{r7, lr}
 8002b66:	b086      	sub	sp, #24
 8002b68:	af00      	add	r7, sp, #0
 8002b6a:	60f8      	str	r0, [r7, #12]
 8002b6c:	60b9      	str	r1, [r7, #8]
 8002b6e:	607a      	str	r2, [r7, #4]
 8002b70:	68fb      	ldr	r3, [r7, #12]
 8002b72:	f893 305c 	ldrb.w	r3, [r3, #92]	@ 0x5c
 8002b76:	b2db      	uxtb	r3, r3
 8002b78:	2b02      	cmp	r3, #2
 8002b7a:	d12c      	bne.n	8002bd6 <HAL_FDCAN_AddMessageToTxFifoQ+0x72>
 8002b7c:	68fb      	ldr	r3, [r7, #12]
 8002b7e:	681b      	ldr	r3, [r3, #0]
 8002b80:	f8d3 30c4 	ldr.w	r3, [r3, #196]	@ 0xc4
 8002b84:	f403 1300 	and.w	r3, r3, #2097152	@ 0x200000
 8002b88:	2b00      	cmp	r3, #0
 8002b8a:	d007      	beq.n	8002b9c <HAL_FDCAN_AddMessageToTxFifoQ+0x38>
 8002b8c:	68fb      	ldr	r3, [r7, #12]
 8002b8e:	6e1b      	ldr	r3, [r3, #96]	@ 0x60
 8002b90:	f443 7200 	orr.w	r2, r3, #512	@ 0x200
 8002b94:	68fb      	ldr	r3, [r7, #12]
 8002b96:	661a      	str	r2, [r3, #96]	@ 0x60
 8002b98:	2301      	movs	r3, #1
 8002b9a:	e023      	b.n	8002be4 <HAL_FDCAN_AddMessageToTxFifoQ+0x80>
 8002b9c:	68fb      	ldr	r3, [r7, #12]
 8002b9e:	681b      	ldr	r3, [r3, #0]
 8002ba0:	f8d3 30c4 	ldr.w	r3, [r3, #196]	@ 0xc4
 8002ba4:	0c1b      	lsrs	r3, r3, #16
 8002ba6:	f003 0303 	and.w	r3, r3, #3
 8002baa:	617b      	str	r3, [r7, #20]
 8002bac:	697b      	ldr	r3, [r7, #20]
 8002bae:	687a      	ldr	r2, [r7, #4]
 8002bb0:	68b9      	ldr	r1, [r7, #8]
 8002bb2:	68f8      	ldr	r0, [r7, #12]
 8002bb4:	f000 fc10 	bl	80033d8 <FDCAN_CopyMessageToRAM>
 8002bb8:	68fb      	ldr	r3, [r7, #12]
 8002bba:	681b      	ldr	r3, [r3, #0]
 8002bbc:	2101      	movs	r1, #1
 8002bbe:	697a      	ldr	r2, [r7, #20]
 8002bc0:	fa01 f202 	lsl.w	r2, r1, r2
 8002bc4:	f8c3 20cc 	str.w	r2, [r3, #204]	@ 0xcc
 8002bc8:	2201      	movs	r2, #1
 8002bca:	697b      	ldr	r3, [r7, #20]
 8002bcc:	409a      	lsls	r2, r3
 8002bce:	68fb      	ldr	r3, [r7, #12]
 8002bd0:	659a      	str	r2, [r3, #88]	@ 0x58
 8002bd2:	2300      	movs	r3, #0
 8002bd4:	e006      	b.n	8002be4 <HAL_FDCAN_AddMessageToTxFifoQ+0x80>
 8002bd6:	68fb      	ldr	r3, [r7, #12]
 8002bd8:	6e1b      	ldr	r3, [r3, #96]	@ 0x60
 8002bda:	f043 0208 	orr.w	r2, r3, #8
 8002bde:	68fb      	ldr	r3, [r7, #12]
 8002be0:	661a      	str	r2, [r3, #96]	@ 0x60
 8002be2:	2301      	movs	r3, #1
 8002be4:	4618      	mov	r0, r3
 8002be6:	3718      	adds	r7, #24
 8002be8:	46bd      	mov	sp, r7
 8002bea:	bd80      	pop	{r7, pc}

08002bec <HAL_FDCAN_GetRxMessage>:
 8002bec:	b480      	push	{r7}
 8002bee:	b08b      	sub	sp, #44	@ 0x2c
 8002bf0:	af00      	add	r7, sp, #0
 8002bf2:	60f8      	str	r0, [r7, #12]
 8002bf4:	60b9      	str	r1, [r7, #8]
 8002bf6:	607a      	str	r2, [r7, #4]
 8002bf8:	603b      	str	r3, [r7, #0]
 8002bfa:	2300      	movs	r3, #0
 8002bfc:	61fb      	str	r3, [r7, #28]
 8002bfe:	68fb      	ldr	r3, [r7, #12]
 8002c00:	f893 305c 	ldrb.w	r3, [r3, #92]	@ 0x5c
 8002c04:	76fb      	strb	r3, [r7, #27]
 8002c06:	7efb      	ldrb	r3, [r7, #27]
 8002c08:	2b02      	cmp	r3, #2
 8002c0a:	f040 80e8 	bne.w	8002dde <HAL_FDCAN_GetRxMessage+0x1f2>
 8002c0e:	68bb      	ldr	r3, [r7, #8]
 8002c10:	2b40      	cmp	r3, #64	@ 0x40
 8002c12:	d137      	bne.n	8002c84 <HAL_FDCAN_GetRxMessage+0x98>
 8002c14:	68fb      	ldr	r3, [r7, #12]
 8002c16:	681b      	ldr	r3, [r3, #0]
 8002c18:	f8d3 3090 	ldr.w	r3, [r3, #144]	@ 0x90
 8002c1c:	f003 030f 	and.w	r3, r3, #15
 8002c20:	2b00      	cmp	r3, #0
 8002c22:	d107      	bne.n	8002c34 <HAL_FDCAN_GetRxMessage+0x48>
 8002c24:	68fb      	ldr	r3, [r7, #12]
 8002c26:	6e1b      	ldr	r3, [r3, #96]	@ 0x60
 8002c28:	f443 7280 	orr.w	r2, r3, #256	@ 0x100
 8002c2c:	68fb      	ldr	r3, [r7, #12]
 8002c2e:	661a      	str	r2, [r3, #96]	@ 0x60
 8002c30:	2301      	movs	r3, #1
 8002c32:	e0db      	b.n	8002dec <HAL_FDCAN_GetRxMessage+0x200>
 8002c34:	68fb      	ldr	r3, [r7, #12]
 8002c36:	681b      	ldr	r3, [r3, #0]
 8002c38:	f8d3 3090 	ldr.w	r3, [r3, #144]	@ 0x90
 8002c3c:	f003 7380 	and.w	r3, r3, #16777216	@ 0x1000000
 8002c40:	f1b3 7f80 	cmp.w	r3, #16777216	@ 0x1000000
 8002c44:	d10a      	bne.n	8002c5c <HAL_FDCAN_GetRxMessage+0x70>
 8002c46:	68fb      	ldr	r3, [r7, #12]
 8002c48:	681b      	ldr	r3, [r3, #0]
 8002c4a:	f8d3 3080 	ldr.w	r3, [r3, #128]	@ 0x80
 8002c4e:	f403 7300 	and.w	r3, r3, #512	@ 0x200
 8002c52:	f5b3 7f00 	cmp.w	r3, #512	@ 0x200
 8002c56:	d101      	bne.n	8002c5c <HAL_FDCAN_GetRxMessage+0x70>
 8002c58:	2301      	movs	r3, #1
 8002c5a:	61fb      	str	r3, [r7, #28]
 8002c5c:	68fb      	ldr	r3, [r7, #12]
 8002c5e:	681b      	ldr	r3, [r3, #0]
 8002c60:	f8d3 3090 	ldr.w	r3, [r3, #144]	@ 0x90
 8002c64:	0a1b      	lsrs	r3, r3, #8
 8002c66:	f003 0303 	and.w	r3, r3, #3
 8002c6a:	69fa      	ldr	r2, [r7, #28]
 8002c6c:	4413      	add	r3, r2
 8002c6e:	61fb      	str	r3, [r7, #28]
 8002c70:	68fb      	ldr	r3, [r7, #12]
 8002c72:	6c99      	ldr	r1, [r3, #72]	@ 0x48
 8002c74:	69fa      	ldr	r2, [r7, #28]
 8002c76:	4613      	mov	r3, r2
 8002c78:	00db      	lsls	r3, r3, #3
 8002c7a:	4413      	add	r3, r2
 8002c7c:	00db      	lsls	r3, r3, #3
 8002c7e:	440b      	add	r3, r1
 8002c80:	627b      	str	r3, [r7, #36]	@ 0x24
 8002c82:	e036      	b.n	8002cf2 <HAL_FDCAN_GetRxMessage+0x106>
 8002c84:	68fb      	ldr	r3, [r7, #12]
 8002c86:	681b      	ldr	r3, [r3, #0]
 8002c88:	f8d3 3098 	ldr.w	r3, [r3, #152]	@ 0x98
 8002c8c:	f003 030f 	and.w	r3, r3, #15
 8002c90:	2b00      	cmp	r3, #0
 8002c92:	d107      	bne.n	8002ca4 <HAL_FDCAN_GetRxMessage+0xb8>
 8002c94:	68fb      	ldr	r3, [r7, #12]
 8002c96:	6e1b      	ldr	r3, [r3, #96]	@ 0x60
 8002c98:	f443 7280 	orr.w	r2, r3, #256	@ 0x100
 8002c9c:	68fb      	ldr	r3, [r7, #12]
 8002c9e:	661a      	str	r2, [r3, #96]	@ 0x60
 8002ca0:	2301      	movs	r3, #1
 8002ca2:	e0a3      	b.n	8002dec <HAL_FDCAN_GetRxMessage+0x200>
 8002ca4:	68fb      	ldr	r3, [r7, #12]
 8002ca6:	681b      	ldr	r3, [r3, #0]
 8002ca8:	f8d3 3098 	ldr.w	r3, [r3, #152]	@ 0x98
 8002cac:	f003 7380 	and.w	r3, r3, #16777216	@ 0x1000000
 8002cb0:	f1b3 7f80 	cmp.w	r3, #16777216	@ 0x1000000
 8002cb4:	d10a      	bne.n	8002ccc <HAL_FDCAN_GetRxMessage+0xe0>
 8002cb6:	68fb      	ldr	r3, [r7, #12]
 8002cb8:	681b      	ldr	r3, [r3, #0]
 8002cba:	f8d3 3080 	ldr.w	r3, [r3, #128]	@ 0x80
 8002cbe:	f403 7380 	and.w	r3, r3, #256	@ 0x100
 8002cc2:	f5b3 7f80 	cmp.w	r3, #256	@ 0x100
 8002cc6:	d101      	bne.n	8002ccc <HAL_FDCAN_GetRxMessage+0xe0>
 8002cc8:	2301      	movs	r3, #1
 8002cca:	61fb      	str	r3, [r7, #28]
 8002ccc:	68fb      	ldr	r3, [r7, #12]
 8002cce:	681b      	ldr	r3, [r3, #0]
 8002cd0:	f8d3 3098 	ldr.w	r3, [r3, #152]	@ 0x98
 8002cd4:	0a1b      	lsrs	r3, r3, #8
 8002cd6:	f003 0303 	and.w	r3, r3, #3
 8002cda:	69fa      	ldr	r2, [r7, #28]
 8002cdc:	4413      	add	r3, r2
 8002cde:	61fb      	str	r3, [r7, #28]
 8002ce0:	68fb      	ldr	r3, [r7, #12]
 8002ce2:	6cd9      	ldr	r1, [r3, #76]	@ 0x4c
 8002ce4:	69fa      	ldr	r2, [r7, #28]
 8002ce6:	4613      	mov	r3, r2
 8002ce8:	00db      	lsls	r3, r3, #3
 8002cea:	4413      	add	r3, r2
 8002cec:	00db      	lsls	r3, r3, #3
 8002cee:	440b      	add	r3, r1
 8002cf0:	627b      	str	r3, [r7, #36]	@ 0x24
 8002cf2:	6a7b      	ldr	r3, [r7, #36]	@ 0x24
 8002cf4:	681b      	ldr	r3, [r3, #0]
 8002cf6:	f003 4280 	and.w	r2, r3, #1073741824	@ 0x40000000
 8002cfa:	687b      	ldr	r3, [r7, #4]
 8002cfc:	605a      	str	r2, [r3, #4]
 8002cfe:	687b      	ldr	r3, [r7, #4]
 8002d00:	685b      	ldr	r3, [r3, #4]
 8002d02:	2b00      	cmp	r3, #0
 8002d04:	d107      	bne.n	8002d16 <HAL_FDCAN_GetRxMessage+0x12a>
 8002d06:	6a7b      	ldr	r3, [r7, #36]	@ 0x24
 8002d08:	681b      	ldr	r3, [r3, #0]
 8002d0a:	0c9b      	lsrs	r3, r3, #18
 8002d0c:	f3c3 020a 	ubfx	r2, r3, #0, #11
 8002d10:	687b      	ldr	r3, [r7, #4]
 8002d12:	601a      	str	r2, [r3, #0]
 8002d14:	e005      	b.n	8002d22 <HAL_FDCAN_GetRxMessage+0x136>
 8002d16:	6a7b      	ldr	r3, [r7, #36]	@ 0x24
 8002d18:	681b      	ldr	r3, [r3, #0]
 8002d1a:	f023 4260 	bic.w	r2, r3, #3758096384	@ 0xe0000000
 8002d1e:	687b      	ldr	r3, [r7, #4]
 8002d20:	601a      	str	r2, [r3, #0]
 8002d22:	6a7b      	ldr	r3, [r7, #36]	@ 0x24
 8002d24:	681b      	ldr	r3, [r3, #0]
 8002d26:	f003 5200 	and.w	r2, r3, #536870912	@ 0x20000000
 8002d2a:	687b      	ldr	r3, [r7, #4]
 8002d2c:	609a      	str	r2, [r3, #8]
 8002d2e:	6a7b      	ldr	r3, [r7, #36]	@ 0x24
 8002d30:	681b      	ldr	r3, [r3, #0]
 8002d32:	f003 4200 	and.w	r2, r3, #2147483648	@ 0x80000000
 8002d36:	687b      	ldr	r3, [r7, #4]
 8002d38:	611a      	str	r2, [r3, #16]
 8002d3a:	6a7b      	ldr	r3, [r7, #36]	@ 0x24
 8002d3c:	3304      	adds	r3, #4
 8002d3e:	627b      	str	r3, [r7, #36]	@ 0x24
 8002d40:	6a7b      	ldr	r3, [r7, #36]	@ 0x24
 8002d42:	681b      	ldr	r3, [r3, #0]
 8002d44:	b29a      	uxth	r2, r3
 8002d46:	687b      	ldr	r3, [r7, #4]
 8002d48:	61da      	str	r2, [r3, #28]
 8002d4a:	6a7b      	ldr	r3, [r7, #36]	@ 0x24
 8002d4c:	681b      	ldr	r3, [r3, #0]
 8002d4e:	0c1b      	lsrs	r3, r3, #16
 8002d50:	f003 020f 	and.w	r2, r3, #15
 8002d54:	687b      	ldr	r3, [r7, #4]
 8002d56:	60da      	str	r2, [r3, #12]
 8002d58:	6a7b      	ldr	r3, [r7, #36]	@ 0x24
 8002d5a:	681b      	ldr	r3, [r3, #0]
 8002d5c:	f403 1280 	and.w	r2, r3, #1048576	@ 0x100000
 8002d60:	687b      	ldr	r3, [r7, #4]
 8002d62:	615a      	str	r2, [r3, #20]
 8002d64:	6a7b      	ldr	r3, [r7, #36]	@ 0x24
 8002d66:	681b      	ldr	r3, [r3, #0]
 8002d68:	f403 1200 	and.w	r2, r3, #2097152	@ 0x200000
 8002d6c:	687b      	ldr	r3, [r7, #4]
 8002d6e:	619a      	str	r2, [r3, #24]
 8002d70:	6a7b      	ldr	r3, [r7, #36]	@ 0x24
 8002d72:	681b      	ldr	r3, [r3, #0]
 8002d74:	0e1b      	lsrs	r3, r3, #24
 8002d76:	f003 027f 	and.w	r2, r3, #127	@ 0x7f
 8002d7a:	687b      	ldr	r3, [r7, #4]
 8002d7c:	621a      	str	r2, [r3, #32]
 8002d7e:	6a7b      	ldr	r3, [r7, #36]	@ 0x24
 8002d80:	681b      	ldr	r3, [r3, #0]
 8002d82:	0fda      	lsrs	r2, r3, #31
 8002d84:	687b      	ldr	r3, [r7, #4]
 8002d86:	625a      	str	r2, [r3, #36]	@ 0x24
 8002d88:	6a7b      	ldr	r3, [r7, #36]	@ 0x24
 8002d8a:	3304      	adds	r3, #4
 8002d8c:	627b      	str	r3, [r7, #36]	@ 0x24
 8002d8e:	6a7b      	ldr	r3, [r7, #36]	@ 0x24
 8002d90:	617b      	str	r3, [r7, #20]
 8002d92:	2300      	movs	r3, #0
 8002d94:	623b      	str	r3, [r7, #32]
 8002d96:	e00a      	b.n	8002dae <HAL_FDCAN_GetRxMessage+0x1c2>
 8002d98:	697a      	ldr	r2, [r7, #20]
 8002d9a:	6a3b      	ldr	r3, [r7, #32]
 8002d9c:	441a      	add	r2, r3
 8002d9e:	6839      	ldr	r1, [r7, #0]
 8002da0:	6a3b      	ldr	r3, [r7, #32]
 8002da2:	440b      	add	r3, r1
 8002da4:	7812      	ldrb	r2, [r2, #0]
 8002da6:	701a      	strb	r2, [r3, #0]
 8002da8:	6a3b      	ldr	r3, [r7, #32]
 8002daa:	3301      	adds	r3, #1
 8002dac:	623b      	str	r3, [r7, #32]
 8002dae:	687b      	ldr	r3, [r7, #4]
 8002db0:	68db      	ldr	r3, [r3, #12]
 8002db2:	4a11      	ldr	r2, [pc, #68]	@ (8002df8 <HAL_FDCAN_GetRxMessage+0x20c>)
 8002db4:	5cd3      	ldrb	r3, [r2, r3]
 8002db6:	461a      	mov	r2, r3
 8002db8:	6a3b      	ldr	r3, [r7, #32]
 8002dba:	4293      	cmp	r3, r2
 8002dbc:	d3ec      	bcc.n	8002d98 <HAL_FDCAN_GetRxMessage+0x1ac>
 8002dbe:	68bb      	ldr	r3, [r7, #8]
 8002dc0:	2b40      	cmp	r3, #64	@ 0x40
 8002dc2:	d105      	bne.n	8002dd0 <HAL_FDCAN_GetRxMessage+0x1e4>
 8002dc4:	68fb      	ldr	r3, [r7, #12]
 8002dc6:	681b      	ldr	r3, [r3, #0]
 8002dc8:	69fa      	ldr	r2, [r7, #28]
 8002dca:	f8c3 2094 	str.w	r2, [r3, #148]	@ 0x94
 8002dce:	e004      	b.n	8002dda <HAL_FDCAN_GetRxMessage+0x1ee>
 8002dd0:	68fb      	ldr	r3, [r7, #12]
 8002dd2:	681b      	ldr	r3, [r3, #0]
 8002dd4:	69fa      	ldr	r2, [r7, #28]
 8002dd6:	f8c3 209c 	str.w	r2, [r3, #156]	@ 0x9c
 8002dda:	2300      	movs	r3, #0
 8002ddc:	e006      	b.n	8002dec <HAL_FDCAN_GetRxMessage+0x200>
 8002dde:	68fb      	ldr	r3, [r7, #12]
 8002de0:	6e1b      	ldr	r3, [r3, #96]	@ 0x60
 8002de2:	f043 0208 	orr.w	r2, r3, #8
 8002de6:	68fb      	ldr	r3, [r7, #12]
 8002de8:	661a      	str	r2, [r3, #96]	@ 0x60
 8002dea:	2301      	movs	r3, #1
 8002dec:	4618      	mov	r0, r3
 8002dee:	372c      	adds	r7, #44	@ 0x2c
 8002df0:	46bd      	mov	sp, r7
 8002df2:	f85d 7b04 	ldr.w	r7, [sp], #4
 8002df6:	4770      	bx	lr
 8002df8:	0800d630 	.word	0x0800d630

08002dfc <HAL_FDCAN_ActivateNotification>:
 8002dfc:	b480      	push	{r7}
 8002dfe:	b087      	sub	sp, #28
 8002e00:	af00      	add	r7, sp, #0
 8002e02:	60f8      	str	r0, [r7, #12]
 8002e04:	60b9      	str	r1, [r7, #8]
 8002e06:	607a      	str	r2, [r7, #4]
 8002e08:	68fb      	ldr	r3, [r7, #12]
 8002e0a:	f893 305c 	ldrb.w	r3, [r3, #92]	@ 0x5c
 8002e0e:	75fb      	strb	r3, [r7, #23]
 8002e10:	7dfb      	ldrb	r3, [r7, #23]
 8002e12:	2b01      	cmp	r3, #1
 8002e14:	d003      	beq.n	8002e1e <HAL_FDCAN_ActivateNotification+0x22>
 8002e16:	7dfb      	ldrb	r3, [r7, #23]
 8002e18:	2b02      	cmp	r3, #2
 8002e1a:	f040 80c8 	bne.w	8002fae <HAL_FDCAN_ActivateNotification+0x1b2>
 8002e1e:	68fb      	ldr	r3, [r7, #12]
 8002e20:	681b      	ldr	r3, [r3, #0]
 8002e22:	6d9b      	ldr	r3, [r3, #88]	@ 0x58
 8002e24:	613b      	str	r3, [r7, #16]
 8002e26:	68bb      	ldr	r3, [r7, #8]
 8002e28:	f003 0307 	and.w	r3, r3, #7
 8002e2c:	2b00      	cmp	r3, #0
 8002e2e:	d004      	beq.n	8002e3a <HAL_FDCAN_ActivateNotification+0x3e>
 8002e30:	693b      	ldr	r3, [r7, #16]
 8002e32:	f003 0301 	and.w	r3, r3, #1
 8002e36:	2b00      	cmp	r3, #0
 8002e38:	d03b      	beq.n	8002eb2 <HAL_FDCAN_ActivateNotification+0xb6>
 8002e3a:	68bb      	ldr	r3, [r7, #8]
 8002e3c:	f003 0338 	and.w	r3, r3, #56	@ 0x38
 8002e40:	2b00      	cmp	r3, #0
 8002e42:	d004      	beq.n	8002e4e <HAL_FDCAN_ActivateNotification+0x52>
 8002e44:	693b      	ldr	r3, [r7, #16]
 8002e46:	f003 0302 	and.w	r3, r3, #2
 8002e4a:	2b00      	cmp	r3, #0
 8002e4c:	d031      	beq.n	8002eb2 <HAL_FDCAN_ActivateNotification+0xb6>
 8002e4e:	68bb      	ldr	r3, [r7, #8]
 8002e50:	f403 73e0 	and.w	r3, r3, #448	@ 0x1c0
 8002e54:	2b00      	cmp	r3, #0
 8002e56:	d004      	beq.n	8002e62 <HAL_FDCAN_ActivateNotification+0x66>
 8002e58:	693b      	ldr	r3, [r7, #16]
 8002e5a:	f003 0304 	and.w	r3, r3, #4
 8002e5e:	2b00      	cmp	r3, #0
 8002e60:	d027      	beq.n	8002eb2 <HAL_FDCAN_ActivateNotification+0xb6>
 8002e62:	68bb      	ldr	r3, [r7, #8]
 8002e64:	f403 53f0 	and.w	r3, r3, #7680	@ 0x1e00
 8002e68:	2b00      	cmp	r3, #0
 8002e6a:	d004      	beq.n	8002e76 <HAL_FDCAN_ActivateNotification+0x7a>
 8002e6c:	693b      	ldr	r3, [r7, #16]
 8002e6e:	f003 0308 	and.w	r3, r3, #8
 8002e72:	2b00      	cmp	r3, #0
 8002e74:	d01d      	beq.n	8002eb2 <HAL_FDCAN_ActivateNotification+0xb6>
 8002e76:	68bb      	ldr	r3, [r7, #8]
 8002e78:	f403 4360 	and.w	r3, r3, #57344	@ 0xe000
 8002e7c:	2b00      	cmp	r3, #0
 8002e7e:	d004      	beq.n	8002e8a <HAL_FDCAN_ActivateNotification+0x8e>
 8002e80:	693b      	ldr	r3, [r7, #16]
 8002e82:	f003 0310 	and.w	r3, r3, #16
 8002e86:	2b00      	cmp	r3, #0
 8002e88:	d013      	beq.n	8002eb2 <HAL_FDCAN_ActivateNotification+0xb6>
 8002e8a:	68bb      	ldr	r3, [r7, #8]
 8002e8c:	f403 3340 	and.w	r3, r3, #196608	@ 0x30000
 8002e90:	2b00      	cmp	r3, #0
 8002e92:	d004      	beq.n	8002e9e <HAL_FDCAN_ActivateNotification+0xa2>
 8002e94:	693b      	ldr	r3, [r7, #16]
 8002e96:	f003 0320 	and.w	r3, r3, #32
 8002e9a:	2b00      	cmp	r3, #0
 8002e9c:	d009      	beq.n	8002eb2 <HAL_FDCAN_ActivateNotification+0xb6>
 8002e9e:	68bb      	ldr	r3, [r7, #8]
 8002ea0:	f403 037c 	and.w	r3, r3, #16515072	@ 0xfc0000
 8002ea4:	2b00      	cmp	r3, #0
 8002ea6:	d00c      	beq.n	8002ec2 <HAL_FDCAN_ActivateNotification+0xc6>
 8002ea8:	693b      	ldr	r3, [r7, #16]
 8002eaa:	f003 0340 	and.w	r3, r3, #64	@ 0x40
 8002eae:	2b00      	cmp	r3, #0
 8002eb0:	d107      	bne.n	8002ec2 <HAL_FDCAN_ActivateNotification+0xc6>
 8002eb2:	68fb      	ldr	r3, [r7, #12]
 8002eb4:	681b      	ldr	r3, [r3, #0]
 8002eb6:	6dda      	ldr	r2, [r3, #92]	@ 0x5c
 8002eb8:	68fb      	ldr	r3, [r7, #12]
 8002eba:	681b      	ldr	r3, [r3, #0]
 8002ebc:	f042 0201 	orr.w	r2, r2, #1
 8002ec0:	65da      	str	r2, [r3, #92]	@ 0x5c
 8002ec2:	68bb      	ldr	r3, [r7, #8]
 8002ec4:	f003 0307 	and.w	r3, r3, #7
 8002ec8:	2b00      	cmp	r3, #0
 8002eca:	d004      	beq.n	8002ed6 <HAL_FDCAN_ActivateNotification+0xda>
 8002ecc:	693b      	ldr	r3, [r7, #16]
 8002ece:	f003 0301 	and.w	r3, r3, #1
 8002ed2:	2b00      	cmp	r3, #0
 8002ed4:	d13b      	bne.n	8002f4e <HAL_FDCAN_ActivateNotification+0x152>
 8002ed6:	68bb      	ldr	r3, [r7, #8]
 8002ed8:	f003 0338 	and.w	r3, r3, #56	@ 0x38
 8002edc:	2b00      	cmp	r3, #0
 8002ede:	d004      	beq.n	8002eea <HAL_FDCAN_ActivateNotification+0xee>
 8002ee0:	693b      	ldr	r3, [r7, #16]
 8002ee2:	f003 0302 	and.w	r3, r3, #2
 8002ee6:	2b00      	cmp	r3, #0
 8002ee8:	d131      	bne.n	8002f4e <HAL_FDCAN_ActivateNotification+0x152>
 8002eea:	68bb      	ldr	r3, [r7, #8]
 8002eec:	f403 73e0 	and.w	r3, r3, #448	@ 0x1c0
 8002ef0:	2b00      	cmp	r3, #0
 8002ef2:	d004      	beq.n	8002efe <HAL_FDCAN_ActivateNotification+0x102>
 8002ef4:	693b      	ldr	r3, [r7, #16]
 8002ef6:	f003 0304 	and.w	r3, r3, #4
 8002efa:	2b00      	cmp	r3, #0
 8002efc:	d127      	bne.n	8002f4e <HAL_FDCAN_ActivateNotification+0x152>
 8002efe:	68bb      	ldr	r3, [r7, #8]
 8002f00:	f403 53f0 	and.w	r3, r3, #7680	@ 0x1e00
 8002f04:	2b00      	cmp	r3, #0
 8002f06:	d004      	beq.n	8002f12 <HAL_FDCAN_ActivateNotification+0x116>
 8002f08:	693b      	ldr	r3, [r7, #16]
 8002f0a:	f003 0308 	and.w	r3, r3, #8
 8002f0e:	2b00      	cmp	r3, #0
 8002f10:	d11d      	bne.n	8002f4e <HAL_FDCAN_ActivateNotification+0x152>
 8002f12:	68bb      	ldr	r3, [r7, #8]
 8002f14:	f403 4360 	and.w	r3, r3, #57344	@ 0xe000
 8002f18:	2b00      	cmp	r3, #0
 8002f1a:	d004      	beq.n	8002f26 <HAL_FDCAN_ActivateNotification+0x12a>
 8002f1c:	693b      	ldr	r3, [r7, #16]
 8002f1e:	f003 0310 	and.w	r3, r3, #16
 8002f22:	2b00      	cmp	r3, #0
 8002f24:	d113      	bne.n	8002f4e <HAL_FDCAN_ActivateNotification+0x152>
 8002f26:	68bb      	ldr	r3, [r7, #8]
 8002f28:	f403 3340 	and.w	r3, r3, #196608	@ 0x30000
 8002f2c:	2b00      	cmp	r3, #0
 8002f2e:	d004      	beq.n	8002f3a <HAL_FDCAN_ActivateNotification+0x13e>
 8002f30:	693b      	ldr	r3, [r7, #16]
 8002f32:	f003 0320 	and.w	r3, r3, #32
 8002f36:	2b00      	cmp	r3, #0
 8002f38:	d109      	bne.n	8002f4e <HAL_FDCAN_ActivateNotification+0x152>
 8002f3a:	68bb      	ldr	r3, [r7, #8]
 8002f3c:	f403 037c 	and.w	r3, r3, #16515072	@ 0xfc0000
 8002f40:	2b00      	cmp	r3, #0
 8002f42:	d00c      	beq.n	8002f5e <HAL_FDCAN_ActivateNotification+0x162>
 8002f44:	693b      	ldr	r3, [r7, #16]
 8002f46:	f003 0340 	and.w	r3, r3, #64	@ 0x40
 8002f4a:	2b00      	cmp	r3, #0
 8002f4c:	d007      	beq.n	8002f5e <HAL_FDCAN_ActivateNotification+0x162>
 8002f4e:	68fb      	ldr	r3, [r7, #12]
 8002f50:	681b      	ldr	r3, [r3, #0]
 8002f52:	6dda      	ldr	r2, [r3, #92]	@ 0x5c
 8002f54:	68fb      	ldr	r3, [r7, #12]
 8002f56:	681b      	ldr	r3, [r3, #0]
 8002f58:	f042 0202 	orr.w	r2, r2, #2
 8002f5c:	65da      	str	r2, [r3, #92]	@ 0x5c
 8002f5e:	68bb      	ldr	r3, [r7, #8]
 8002f60:	f003 0380 	and.w	r3, r3, #128	@ 0x80
 8002f64:	2b00      	cmp	r3, #0
 8002f66:	d009      	beq.n	8002f7c <HAL_FDCAN_ActivateNotification+0x180>
 8002f68:	68fb      	ldr	r3, [r7, #12]
 8002f6a:	681b      	ldr	r3, [r3, #0]
 8002f6c:	f8d3 10dc 	ldr.w	r1, [r3, #220]	@ 0xdc
 8002f70:	68fb      	ldr	r3, [r7, #12]
 8002f72:	681b      	ldr	r3, [r3, #0]
 8002f74:	687a      	ldr	r2, [r7, #4]
 8002f76:	430a      	orrs	r2, r1
 8002f78:	f8c3 20dc 	str.w	r2, [r3, #220]	@ 0xdc
 8002f7c:	68bb      	ldr	r3, [r7, #8]
 8002f7e:	f403 7380 	and.w	r3, r3, #256	@ 0x100
 8002f82:	2b00      	cmp	r3, #0
 8002f84:	d009      	beq.n	8002f9a <HAL_FDCAN_ActivateNotification+0x19e>
 8002f86:	68fb      	ldr	r3, [r7, #12]
 8002f88:	681b      	ldr	r3, [r3, #0]
 8002f8a:	f8d3 10e0 	ldr.w	r1, [r3, #224]	@ 0xe0
 8002f8e:	68fb      	ldr	r3, [r7, #12]
 8002f90:	681b      	ldr	r3, [r3, #0]
 8002f92:	687a      	ldr	r2, [r7, #4]
 8002f94:	430a      	orrs	r2, r1
 8002f96:	f8c3 20e0 	str.w	r2, [r3, #224]	@ 0xe0
 8002f9a:	68fb      	ldr	r3, [r7, #12]
 8002f9c:	681b      	ldr	r3, [r3, #0]
 8002f9e:	6d59      	ldr	r1, [r3, #84]	@ 0x54
 8002fa0:	68fb      	ldr	r3, [r7, #12]
 8002fa2:	681b      	ldr	r3, [r3, #0]
 8002fa4:	68ba      	ldr	r2, [r7, #8]
 8002fa6:	430a      	orrs	r2, r1
 8002fa8:	655a      	str	r2, [r3, #84]	@ 0x54
 8002faa:	2300      	movs	r3, #0
 8002fac:	e006      	b.n	8002fbc <HAL_FDCAN_ActivateNotification+0x1c0>
 8002fae:	68fb      	ldr	r3, [r7, #12]
 8002fb0:	6e1b      	ldr	r3, [r3, #96]	@ 0x60
 8002fb2:	f043 0202 	orr.w	r2, r3, #2
 8002fb6:	68fb      	ldr	r3, [r7, #12]
 8002fb8:	661a      	str	r2, [r3, #96]	@ 0x60
 8002fba:	2301      	movs	r3, #1
 8002fbc:	4618      	mov	r0, r3
 8002fbe:	371c      	adds	r7, #28
 8002fc0:	46bd      	mov	sp, r7
 8002fc2:	f85d 7b04 	ldr.w	r7, [sp], #4
 8002fc6:	4770      	bx	lr

08002fc8 <HAL_FDCAN_IRQHandler>:
 8002fc8:	b580      	push	{r7, lr}
 8002fca:	b08c      	sub	sp, #48	@ 0x30
 8002fcc:	af00      	add	r7, sp, #0
 8002fce:	6078      	str	r0, [r7, #4]
 8002fd0:	687b      	ldr	r3, [r7, #4]
 8002fd2:	681b      	ldr	r3, [r3, #0]
 8002fd4:	6d1b      	ldr	r3, [r3, #80]	@ 0x50
 8002fd6:	f403 53e0 	and.w	r3, r3, #7168	@ 0x1c00
 8002fda:	62fb      	str	r3, [r7, #44]	@ 0x2c
 8002fdc:	687b      	ldr	r3, [r7, #4]
 8002fde:	681b      	ldr	r3, [r3, #0]
 8002fe0:	6d5b      	ldr	r3, [r3, #84]	@ 0x54
 8002fe2:	6afa      	ldr	r2, [r7, #44]	@ 0x2c
 8002fe4:	4013      	ands	r3, r2
 8002fe6:	62fb      	str	r3, [r7, #44]	@ 0x2c
 8002fe8:	687b      	ldr	r3, [r7, #4]
 8002fea:	681b      	ldr	r3, [r3, #0]
 8002fec:	6d1b      	ldr	r3, [r3, #80]	@ 0x50
 8002fee:	f003 0307 	and.w	r3, r3, #7
 8002ff2:	62bb      	str	r3, [r7, #40]	@ 0x28
 8002ff4:	687b      	ldr	r3, [r7, #4]
 8002ff6:	681b      	ldr	r3, [r3, #0]
 8002ff8:	6d5b      	ldr	r3, [r3, #84]	@ 0x54
 8002ffa:	6aba      	ldr	r2, [r7, #40]	@ 0x28
 8002ffc:	4013      	ands	r3, r2
 8002ffe:	62bb      	str	r3, [r7, #40]	@ 0x28
 8003000:	687b      	ldr	r3, [r7, #4]
 8003002:	681b      	ldr	r3, [r3, #0]
 8003004:	6d1b      	ldr	r3, [r3, #80]	@ 0x50
 8003006:	f003 0338 	and.w	r3, r3, #56	@ 0x38
 800300a:	627b      	str	r3, [r7, #36]	@ 0x24
 800300c:	687b      	ldr	r3, [r7, #4]
 800300e:	681b      	ldr	r3, [r3, #0]
 8003010:	6d5b      	ldr	r3, [r3, #84]	@ 0x54
 8003012:	6a7a      	ldr	r2, [r7, #36]	@ 0x24
 8003014:	4013      	ands	r3, r2
 8003016:	627b      	str	r3, [r7, #36]	@ 0x24
 8003018:	687b      	ldr	r3, [r7, #4]
 800301a:	681b      	ldr	r3, [r3, #0]
 800301c:	6d1b      	ldr	r3, [r3, #80]	@ 0x50
 800301e:	f403 0371 	and.w	r3, r3, #15794176	@ 0xf10000
 8003022:	623b      	str	r3, [r7, #32]
 8003024:	687b      	ldr	r3, [r7, #4]
 8003026:	681b      	ldr	r3, [r3, #0]
 8003028:	6d5b      	ldr	r3, [r3, #84]	@ 0x54
 800302a:	6a3a      	ldr	r2, [r7, #32]
 800302c:	4013      	ands	r3, r2
 800302e:	623b      	str	r3, [r7, #32]
 8003030:	687b      	ldr	r3, [r7, #4]
 8003032:	681b      	ldr	r3, [r3, #0]
 8003034:	6d1b      	ldr	r3, [r3, #80]	@ 0x50
 8003036:	f403 2360 	and.w	r3, r3, #917504	@ 0xe0000
 800303a:	61fb      	str	r3, [r7, #28]
 800303c:	687b      	ldr	r3, [r7, #4]
 800303e:	681b      	ldr	r3, [r3, #0]
 8003040:	6d5b      	ldr	r3, [r3, #84]	@ 0x54
 8003042:	69fa      	ldr	r2, [r7, #28]
 8003044:	4013      	ands	r3, r2
 8003046:	61fb      	str	r3, [r7, #28]
 8003048:	687b      	ldr	r3, [r7, #4]
 800304a:	681b      	ldr	r3, [r3, #0]
 800304c:	6d5b      	ldr	r3, [r3, #84]	@ 0x54
 800304e:	61bb      	str	r3, [r7, #24]
 8003050:	687b      	ldr	r3, [r7, #4]
 8003052:	681b      	ldr	r3, [r3, #0]
 8003054:	6d1b      	ldr	r3, [r3, #80]	@ 0x50
 8003056:	617b      	str	r3, [r7, #20]
 8003058:	697b      	ldr	r3, [r7, #20]
 800305a:	099b      	lsrs	r3, r3, #6
 800305c:	f003 0301 	and.w	r3, r3, #1
 8003060:	2b00      	cmp	r3, #0
 8003062:	d00c      	beq.n	800307e <HAL_FDCAN_IRQHandler+0xb6>
 8003064:	69bb      	ldr	r3, [r7, #24]
 8003066:	099b      	lsrs	r3, r3, #6
 8003068:	f003 0301 	and.w	r3, r3, #1
 800306c:	2b00      	cmp	r3, #0
 800306e:	d006      	beq.n	800307e <HAL_FDCAN_IRQHandler+0xb6>
 8003070:	687b      	ldr	r3, [r7, #4]
 8003072:	681b      	ldr	r3, [r3, #0]
 8003074:	2240      	movs	r2, #64	@ 0x40
 8003076:	651a      	str	r2, [r3, #80]	@ 0x50
 8003078:	6878      	ldr	r0, [r7, #4]
 800307a:	f000 f922 	bl	80032c2 <HAL_FDCAN_HighPriorityMessageCallback>
 800307e:	697b      	ldr	r3, [r7, #20]
 8003080:	0a1b      	lsrs	r3, r3, #8
 8003082:	f003 0301 	and.w	r3, r3, #1
 8003086:	2b00      	cmp	r3, #0
 8003088:	d01a      	beq.n	80030c0 <HAL_FDCAN_IRQHandler+0xf8>
 800308a:	69bb      	ldr	r3, [r7, #24]
 800308c:	0a1b      	lsrs	r3, r3, #8
 800308e:	f003 0301 	and.w	r3, r3, #1
 8003092:	2b00      	cmp	r3, #0
 8003094:	d014      	beq.n	80030c0 <HAL_FDCAN_IRQHandler+0xf8>
 8003096:	687b      	ldr	r3, [r7, #4]
 8003098:	681b      	ldr	r3, [r3, #0]
 800309a:	f8d3 30d8 	ldr.w	r3, [r3, #216]	@ 0xd8
 800309e:	613b      	str	r3, [r7, #16]
 80030a0:	687b      	ldr	r3, [r7, #4]
 80030a2:	681b      	ldr	r3, [r3, #0]
 80030a4:	f8d3 30e0 	ldr.w	r3, [r3, #224]	@ 0xe0
 80030a8:	693a      	ldr	r2, [r7, #16]
 80030aa:	4013      	ands	r3, r2
 80030ac:	613b      	str	r3, [r7, #16]
 80030ae:	687b      	ldr	r3, [r7, #4]
 80030b0:	681b      	ldr	r3, [r3, #0]
 80030b2:	f44f 7280 	mov.w	r2, #256	@ 0x100
 80030b6:	651a      	str	r2, [r3, #80]	@ 0x50
 80030b8:	6939      	ldr	r1, [r7, #16]
 80030ba:	6878      	ldr	r0, [r7, #4]
 80030bc:	f000 f8e2 	bl	8003284 <HAL_FDCAN_TxBufferAbortCallback>
 80030c0:	6afb      	ldr	r3, [r7, #44]	@ 0x2c
 80030c2:	2b00      	cmp	r3, #0
 80030c4:	d007      	beq.n	80030d6 <HAL_FDCAN_IRQHandler+0x10e>
 80030c6:	687b      	ldr	r3, [r7, #4]
 80030c8:	681b      	ldr	r3, [r3, #0]
 80030ca:	6afa      	ldr	r2, [r7, #44]	@ 0x2c
 80030cc:	651a      	str	r2, [r3, #80]	@ 0x50
 80030ce:	6af9      	ldr	r1, [r7, #44]	@ 0x2c
 80030d0:	6878      	ldr	r0, [r7, #4]
 80030d2:	f000 f8ac 	bl	800322e <HAL_FDCAN_TxEventFifoCallback>
 80030d6:	6abb      	ldr	r3, [r7, #40]	@ 0x28
 80030d8:	2b00      	cmp	r3, #0
 80030da:	d007      	beq.n	80030ec <HAL_FDCAN_IRQHandler+0x124>
 80030dc:	687b      	ldr	r3, [r7, #4]
 80030de:	681b      	ldr	r3, [r3, #0]
 80030e0:	6aba      	ldr	r2, [r7, #40]	@ 0x28
 80030e2:	651a      	str	r2, [r3, #80]	@ 0x50
 80030e4:	6ab9      	ldr	r1, [r7, #40]	@ 0x28
 80030e6:	6878      	ldr	r0, [r7, #4]
 80030e8:	f7fd ff1a 	bl	8000f20 <HAL_FDCAN_RxFifo0Callback>
 80030ec:	6a7b      	ldr	r3, [r7, #36]	@ 0x24
 80030ee:	2b00      	cmp	r3, #0
 80030f0:	d007      	beq.n	8003102 <HAL_FDCAN_IRQHandler+0x13a>
 80030f2:	687b      	ldr	r3, [r7, #4]
 80030f4:	681b      	ldr	r3, [r3, #0]
 80030f6:	6a7a      	ldr	r2, [r7, #36]	@ 0x24
 80030f8:	651a      	str	r2, [r3, #80]	@ 0x50
 80030fa:	6a79      	ldr	r1, [r7, #36]	@ 0x24
 80030fc:	6878      	ldr	r0, [r7, #4]
 80030fe:	f000 f8a1 	bl	8003244 <HAL_FDCAN_RxFifo1Callback>
 8003102:	697b      	ldr	r3, [r7, #20]
 8003104:	0a5b      	lsrs	r3, r3, #9
 8003106:	f003 0301 	and.w	r3, r3, #1
 800310a:	2b00      	cmp	r3, #0
 800310c:	d00d      	beq.n	800312a <HAL_FDCAN_IRQHandler+0x162>
 800310e:	69bb      	ldr	r3, [r7, #24]
 8003110:	0a5b      	lsrs	r3, r3, #9
 8003112:	f003 0301 	and.w	r3, r3, #1
 8003116:	2b00      	cmp	r3, #0
 8003118:	d007      	beq.n	800312a <HAL_FDCAN_IRQHandler+0x162>
 800311a:	687b      	ldr	r3, [r7, #4]
 800311c:	681b      	ldr	r3, [r3, #0]
 800311e:	f44f 7200 	mov.w	r2, #512	@ 0x200
 8003122:	651a      	str	r2, [r3, #80]	@ 0x50
 8003124:	6878      	ldr	r0, [r7, #4]
 8003126:	f000 f898 	bl	800325a <HAL_FDCAN_TxFifoEmptyCallback>
 800312a:	697b      	ldr	r3, [r7, #20]
 800312c:	09db      	lsrs	r3, r3, #7
 800312e:	f003 0301 	and.w	r3, r3, #1
 8003132:	2b00      	cmp	r3, #0
 8003134:	d019      	beq.n	800316a <HAL_FDCAN_IRQHandler+0x1a2>
 8003136:	69bb      	ldr	r3, [r7, #24]
 8003138:	09db      	lsrs	r3, r3, #7
 800313a:	f003 0301 	and.w	r3, r3, #1
 800313e:	2b00      	cmp	r3, #0
 8003140:	d013      	beq.n	800316a <HAL_FDCAN_IRQHandler+0x1a2>
 8003142:	687b      	ldr	r3, [r7, #4]
 8003144:	681b      	ldr	r3, [r3, #0]
 8003146:	f8d3 30d4 	ldr.w	r3, [r3, #212]	@ 0xd4
 800314a:	60fb      	str	r3, [r7, #12]
 800314c:	687b      	ldr	r3, [r7, #4]
 800314e:	681b      	ldr	r3, [r3, #0]
 8003150:	f8d3 30dc 	ldr.w	r3, [r3, #220]	@ 0xdc
 8003154:	68fa      	ldr	r2, [r7, #12]
 8003156:	4013      	ands	r3, r2
 8003158:	60fb      	str	r3, [r7, #12]
 800315a:	687b      	ldr	r3, [r7, #4]
 800315c:	681b      	ldr	r3, [r3, #0]
 800315e:	2280      	movs	r2, #128	@ 0x80
 8003160:	651a      	str	r2, [r3, #80]	@ 0x50
 8003162:	68f9      	ldr	r1, [r7, #12]
 8003164:	6878      	ldr	r0, [r7, #4]
 8003166:	f000 f882 	bl	800326e <HAL_FDCAN_TxBufferCompleteCallback>
 800316a:	697b      	ldr	r3, [r7, #20]
 800316c:	0b5b      	lsrs	r3, r3, #13
 800316e:	f003 0301 	and.w	r3, r3, #1
 8003172:	2b00      	cmp	r3, #0
 8003174:	d00d      	beq.n	8003192 <HAL_FDCAN_IRQHandler+0x1ca>
 8003176:	69bb      	ldr	r3, [r7, #24]
 8003178:	0b5b      	lsrs	r3, r3, #13
 800317a:	f003 0301 	and.w	r3, r3, #1
 800317e:	2b00      	cmp	r3, #0
 8003180:	d007      	beq.n	8003192 <HAL_FDCAN_IRQHandler+0x1ca>
 8003182:	687b      	ldr	r3, [r7, #4]
 8003184:	681b      	ldr	r3, [r3, #0]
 8003186:	f44f 5200 	mov.w	r2, #8192	@ 0x2000
 800318a:	651a      	str	r2, [r3, #80]	@ 0x50
 800318c:	6878      	ldr	r0, [r7, #4]
 800318e:	f000 f884 	bl	800329a <HAL_FDCAN_TimestampWraparoundCallback>
 8003192:	697b      	ldr	r3, [r7, #20]
 8003194:	0bdb      	lsrs	r3, r3, #15
 8003196:	f003 0301 	and.w	r3, r3, #1
 800319a:	2b00      	cmp	r3, #0
 800319c:	d00d      	beq.n	80031ba <HAL_FDCAN_IRQHandler+0x1f2>
 800319e:	69bb      	ldr	r3, [r7, #24]
 80031a0:	0bdb      	lsrs	r3, r3, #15
 80031a2:	f003 0301 	and.w	r3, r3, #1
 80031a6:	2b00      	cmp	r3, #0
 80031a8:	d007      	beq.n	80031ba <HAL_FDCAN_IRQHandler+0x1f2>
 80031aa:	687b      	ldr	r3, [r7, #4]
 80031ac:	681b      	ldr	r3, [r3, #0]
 80031ae:	f44f 4200 	mov.w	r2, #32768	@ 0x8000
 80031b2:	651a      	str	r2, [r3, #80]	@ 0x50
 80031b4:	6878      	ldr	r0, [r7, #4]
 80031b6:	f000 f87a 	bl	80032ae <HAL_FDCAN_TimeoutOccurredCallback>
 80031ba:	697b      	ldr	r3, [r7, #20]
 80031bc:	0b9b      	lsrs	r3, r3, #14
 80031be:	f003 0301 	and.w	r3, r3, #1
 80031c2:	2b00      	cmp	r3, #0
 80031c4:	d010      	beq.n	80031e8 <HAL_FDCAN_IRQHandler+0x220>
 80031c6:	69bb      	ldr	r3, [r7, #24]
 80031c8:	0b9b      	lsrs	r3, r3, #14
 80031ca:	f003 0301 	and.w	r3, r3, #1
 80031ce:	2b00      	cmp	r3, #0
 80031d0:	d00a      	beq.n	80031e8 <HAL_FDCAN_IRQHandler+0x220>
 80031d2:	687b      	ldr	r3, [r7, #4]
 80031d4:	681b      	ldr	r3, [r3, #0]
 80031d6:	f44f 4280 	mov.w	r2, #16384	@ 0x4000
 80031da:	651a      	str	r2, [r3, #80]	@ 0x50
 80031dc:	687b      	ldr	r3, [r7, #4]
 80031de:	6e1b      	ldr	r3, [r3, #96]	@ 0x60
 80031e0:	f043 0280 	orr.w	r2, r3, #128	@ 0x80
 80031e4:	687b      	ldr	r3, [r7, #4]
 80031e6:	661a      	str	r2, [r3, #96]	@ 0x60
 80031e8:	69fb      	ldr	r3, [r7, #28]
 80031ea:	2b00      	cmp	r3, #0
 80031ec:	d007      	beq.n	80031fe <HAL_FDCAN_IRQHandler+0x236>
 80031ee:	687b      	ldr	r3, [r7, #4]
 80031f0:	681b      	ldr	r3, [r3, #0]
 80031f2:	69fa      	ldr	r2, [r7, #28]
 80031f4:	651a      	str	r2, [r3, #80]	@ 0x50
 80031f6:	69f9      	ldr	r1, [r7, #28]
 80031f8:	6878      	ldr	r0, [r7, #4]
 80031fa:	f000 f876 	bl	80032ea <HAL_FDCAN_ErrorStatusCallback>
 80031fe:	6a3b      	ldr	r3, [r7, #32]
 8003200:	2b00      	cmp	r3, #0
 8003202:	d009      	beq.n	8003218 <HAL_FDCAN_IRQHandler+0x250>
 8003204:	687b      	ldr	r3, [r7, #4]
 8003206:	681b      	ldr	r3, [r3, #0]
 8003208:	6a3a      	ldr	r2, [r7, #32]
 800320a:	651a      	str	r2, [r3, #80]	@ 0x50
 800320c:	687b      	ldr	r3, [r7, #4]
 800320e:	6e1a      	ldr	r2, [r3, #96]	@ 0x60
 8003210:	6a3b      	ldr	r3, [r7, #32]
 8003212:	431a      	orrs	r2, r3
 8003214:	687b      	ldr	r3, [r7, #4]
 8003216:	661a      	str	r2, [r3, #96]	@ 0x60
 8003218:	687b      	ldr	r3, [r7, #4]
 800321a:	6e1b      	ldr	r3, [r3, #96]	@ 0x60
 800321c:	2b00      	cmp	r3, #0
 800321e:	d002      	beq.n	8003226 <HAL_FDCAN_IRQHandler+0x25e>
 8003220:	6878      	ldr	r0, [r7, #4]
 8003222:	f000 f858 	bl	80032d6 <HAL_FDCAN_ErrorCallback>
 8003226:	bf00      	nop
 8003228:	3730      	adds	r7, #48	@ 0x30
 800322a:	46bd      	mov	sp, r7
 800322c:	bd80      	pop	{r7, pc}

0800322e <HAL_FDCAN_TxEventFifoCallback>:
 800322e:	b480      	push	{r7}
 8003230:	b083      	sub	sp, #12
 8003232:	af00      	add	r7, sp, #0
 8003234:	6078      	str	r0, [r7, #4]
 8003236:	6039      	str	r1, [r7, #0]
 8003238:	bf00      	nop
 800323a:	370c      	adds	r7, #12
 800323c:	46bd      	mov	sp, r7
 800323e:	f85d 7b04 	ldr.w	r7, [sp], #4
 8003242:	4770      	bx	lr

08003244 <HAL_FDCAN_RxFifo1Callback>:
 8003244:	b480      	push	{r7}
 8003246:	b083      	sub	sp, #12
 8003248:	af00      	add	r7, sp, #0
 800324a:	6078      	str	r0, [r7, #4]
 800324c:	6039      	str	r1, [r7, #0]
 800324e:	bf00      	nop
 8003250:	370c      	adds	r7, #12
 8003252:	46bd      	mov	sp, r7
 8003254:	f85d 7b04 	ldr.w	r7, [sp], #4
 8003258:	4770      	bx	lr

0800325a <HAL_FDCAN_TxFifoEmptyCallback>:
 800325a:	b480      	push	{r7}
 800325c:	b083      	sub	sp, #12
 800325e:	af00      	add	r7, sp, #0
 8003260:	6078      	str	r0, [r7, #4]
 8003262:	bf00      	nop
 8003264:	370c      	adds	r7, #12
 8003266:	46bd      	mov	sp, r7
 8003268:	f85d 7b04 	ldr.w	r7, [sp], #4
 800326c:	4770      	bx	lr

0800326e <HAL_FDCAN_TxBufferCompleteCallback>:
 800326e:	b480      	push	{r7}
 8003270:	b083      	sub	sp, #12
 8003272:	af00      	add	r7, sp, #0
 8003274:	6078      	str	r0, [r7, #4]
 8003276:	6039      	str	r1, [r7, #0]
 8003278:	bf00      	nop
 800327a:	370c      	adds	r7, #12
 800327c:	46bd      	mov	sp, r7
 800327e:	f85d 7b04 	ldr.w	r7, [sp], #4
 8003282:	4770      	bx	lr

08003284 <HAL_FDCAN_TxBufferAbortCallback>:
 8003284:	b480      	push	{r7}
 8003286:	b083      	sub	sp, #12
 8003288:	af00      	add	r7, sp, #0
 800328a:	6078      	str	r0, [r7, #4]
 800328c:	6039      	str	r1, [r7, #0]
 800328e:	bf00      	nop
 8003290:	370c      	adds	r7, #12
 8003292:	46bd      	mov	sp, r7
 8003294:	f85d 7b04 	ldr.w	r7, [sp], #4
 8003298:	4770      	bx	lr

0800329a <HAL_FDCAN_TimestampWraparoundCallback>:
 800329a:	b480      	push	{r7}
 800329c:	b083      	sub	sp, #12
 800329e:	af00      	add	r7, sp, #0
 80032a0:	6078      	str	r0, [r7, #4]
 80032a2:	bf00      	nop
 80032a4:	370c      	adds	r7, #12
 80032a6:	46bd      	mov	sp, r7
 80032a8:	f85d 7b04 	ldr.w	r7, [sp], #4
 80032ac:	4770      	bx	lr

080032ae <HAL_FDCAN_TimeoutOccurredCallback>:
 80032ae:	b480      	push	{r7}
 80032b0:	b083      	sub	sp, #12
 80032b2:	af00      	add	r7, sp, #0
 80032b4:	6078      	str	r0, [r7, #4]
 80032b6:	bf00      	nop
 80032b8:	370c      	adds	r7, #12
 80032ba:	46bd      	mov	sp, r7
 80032bc:	f85d 7b04 	ldr.w	r7, [sp], #4
 80032c0:	4770      	bx	lr

080032c2 <HAL_FDCAN_HighPriorityMessageCallback>:
 80032c2:	b480      	push	{r7}
 80032c4:	b083      	sub	sp, #12
 80032c6:	af00      	add	r7, sp, #0
 80032c8:	6078      	str	r0, [r7, #4]
 80032ca:	bf00      	nop
 80032cc:	370c      	adds	r7, #12
 80032ce:	46bd      	mov	sp, r7
 80032d0:	f85d 7b04 	ldr.w	r7, [sp], #4
 80032d4:	4770      	bx	lr

080032d6 <HAL_FDCAN_ErrorCallback>:
 80032d6:	b480      	push	{r7}
 80032d8:	b083      	sub	sp, #12
 80032da:	af00      	add	r7, sp, #0
 80032dc:	6078      	str	r0, [r7, #4]
 80032de:	bf00      	nop
 80032e0:	370c      	adds	r7, #12
 80032e2:	46bd      	mov	sp, r7
 80032e4:	f85d 7b04 	ldr.w	r7, [sp], #4
 80032e8:	4770      	bx	lr

080032ea <HAL_FDCAN_ErrorStatusCallback>:
 80032ea:	b480      	push	{r7}
 80032ec:	b083      	sub	sp, #12
 80032ee:	af00      	add	r7, sp, #0
 80032f0:	6078      	str	r0, [r7, #4]
 80032f2:	6039      	str	r1, [r7, #0]
 80032f4:	bf00      	nop
 80032f6:	370c      	adds	r7, #12
 80032f8:	46bd      	mov	sp, r7
 80032fa:	f85d 7b04 	ldr.w	r7, [sp], #4
 80032fe:	4770      	bx	lr

08003300 <FDCAN_CalcultateRamBlockAddresses>:
 8003300:	b480      	push	{r7}
 8003302:	b085      	sub	sp, #20
 8003304:	af00      	add	r7, sp, #0
 8003306:	6078      	str	r0, [r7, #4]
 8003308:	4b30      	ldr	r3, [pc, #192]	@ (80033cc <FDCAN_CalcultateRamBlockAddresses+0xcc>)
 800330a:	60bb      	str	r3, [r7, #8]
 800330c:	687b      	ldr	r3, [r7, #4]
 800330e:	681b      	ldr	r3, [r3, #0]
 8003310:	4a2f      	ldr	r2, [pc, #188]	@ (80033d0 <FDCAN_CalcultateRamBlockAddresses+0xd0>)
 8003312:	4293      	cmp	r3, r2
 8003314:	d103      	bne.n	800331e <FDCAN_CalcultateRamBlockAddresses+0x1e>
 8003316:	68bb      	ldr	r3, [r7, #8]
 8003318:	f503 7354 	add.w	r3, r3, #848	@ 0x350
 800331c:	60bb      	str	r3, [r7, #8]
 800331e:	687b      	ldr	r3, [r7, #4]
 8003320:	681b      	ldr	r3, [r3, #0]
 8003322:	4a2c      	ldr	r2, [pc, #176]	@ (80033d4 <FDCAN_CalcultateRamBlockAddresses+0xd4>)
 8003324:	4293      	cmp	r3, r2
 8003326:	d103      	bne.n	8003330 <FDCAN_CalcultateRamBlockAddresses+0x30>
 8003328:	68bb      	ldr	r3, [r7, #8]
 800332a:	f503 63d4 	add.w	r3, r3, #1696	@ 0x6a0
 800332e:	60bb      	str	r3, [r7, #8]
 8003330:	687b      	ldr	r3, [r7, #4]
 8003332:	68ba      	ldr	r2, [r7, #8]
 8003334:	641a      	str	r2, [r3, #64]	@ 0x40
 8003336:	687b      	ldr	r3, [r7, #4]
 8003338:	681b      	ldr	r3, [r3, #0]
 800333a:	f8d3 3080 	ldr.w	r3, [r3, #128]	@ 0x80
 800333e:	f423 11f8 	bic.w	r1, r3, #2031616	@ 0x1f0000
 8003342:	687b      	ldr	r3, [r7, #4]
 8003344:	6b5b      	ldr	r3, [r3, #52]	@ 0x34
 8003346:	041a      	lsls	r2, r3, #16
 8003348:	687b      	ldr	r3, [r7, #4]
 800334a:	681b      	ldr	r3, [r3, #0]
 800334c:	430a      	orrs	r2, r1
 800334e:	f8c3 2080 	str.w	r2, [r3, #128]	@ 0x80
 8003352:	68bb      	ldr	r3, [r7, #8]
 8003354:	f103 0270 	add.w	r2, r3, #112	@ 0x70
 8003358:	687b      	ldr	r3, [r7, #4]
 800335a:	645a      	str	r2, [r3, #68]	@ 0x44
 800335c:	687b      	ldr	r3, [r7, #4]
 800335e:	681b      	ldr	r3, [r3, #0]
 8003360:	f8d3 3080 	ldr.w	r3, [r3, #128]	@ 0x80
 8003364:	f023 6170 	bic.w	r1, r3, #251658240	@ 0xf000000
 8003368:	687b      	ldr	r3, [r7, #4]
 800336a:	6b9b      	ldr	r3, [r3, #56]	@ 0x38
 800336c:	061a      	lsls	r2, r3, #24
 800336e:	687b      	ldr	r3, [r7, #4]
 8003370:	681b      	ldr	r3, [r3, #0]
 8003372:	430a      	orrs	r2, r1
 8003374:	f8c3 2080 	str.w	r2, [r3, #128]	@ 0x80
 8003378:	68bb      	ldr	r3, [r7, #8]
 800337a:	f103 02b0 	add.w	r2, r3, #176	@ 0xb0
 800337e:	687b      	ldr	r3, [r7, #4]
 8003380:	649a      	str	r2, [r3, #72]	@ 0x48
 8003382:	68bb      	ldr	r3, [r7, #8]
 8003384:	f503 72c4 	add.w	r2, r3, #392	@ 0x188
 8003388:	687b      	ldr	r3, [r7, #4]
 800338a:	64da      	str	r2, [r3, #76]	@ 0x4c
 800338c:	68bb      	ldr	r3, [r7, #8]
 800338e:	f503 7218 	add.w	r2, r3, #608	@ 0x260
 8003392:	687b      	ldr	r3, [r7, #4]
 8003394:	651a      	str	r2, [r3, #80]	@ 0x50
 8003396:	68bb      	ldr	r3, [r7, #8]
 8003398:	f503 721e 	add.w	r2, r3, #632	@ 0x278
 800339c:	687b      	ldr	r3, [r7, #4]
 800339e:	655a      	str	r2, [r3, #84]	@ 0x54
 80033a0:	68bb      	ldr	r3, [r7, #8]
 80033a2:	60fb      	str	r3, [r7, #12]
 80033a4:	e005      	b.n	80033b2 <FDCAN_CalcultateRamBlockAddresses+0xb2>
 80033a6:	68fb      	ldr	r3, [r7, #12]
 80033a8:	2200      	movs	r2, #0
 80033aa:	601a      	str	r2, [r3, #0]
 80033ac:	68fb      	ldr	r3, [r7, #12]
 80033ae:	3304      	adds	r3, #4
 80033b0:	60fb      	str	r3, [r7, #12]
 80033b2:	68bb      	ldr	r3, [r7, #8]
 80033b4:	f503 7354 	add.w	r3, r3, #848	@ 0x350
 80033b8:	68fa      	ldr	r2, [r7, #12]
 80033ba:	429a      	cmp	r2, r3
 80033bc:	d3f3      	bcc.n	80033a6 <FDCAN_CalcultateRamBlockAddresses+0xa6>
 80033be:	bf00      	nop
 80033c0:	bf00      	nop
 80033c2:	3714      	adds	r7, #20
 80033c4:	46bd      	mov	sp, r7
 80033c6:	f85d 7b04 	ldr.w	r7, [sp], #4
 80033ca:	4770      	bx	lr
 80033cc:	4000a400 	.word	0x4000a400
 80033d0:	40006800 	.word	0x40006800
 80033d4:	40006c00 	.word	0x40006c00

080033d8 <FDCAN_CopyMessageToRAM>:
 80033d8:	b480      	push	{r7}
 80033da:	b089      	sub	sp, #36	@ 0x24
 80033dc:	af00      	add	r7, sp, #0
 80033de:	60f8      	str	r0, [r7, #12]
 80033e0:	60b9      	str	r1, [r7, #8]
 80033e2:	607a      	str	r2, [r7, #4]
 80033e4:	603b      	str	r3, [r7, #0]
 80033e6:	68bb      	ldr	r3, [r7, #8]
 80033e8:	685b      	ldr	r3, [r3, #4]
 80033ea:	2b00      	cmp	r3, #0
 80033ec:	d10a      	bne.n	8003404 <FDCAN_CopyMessageToRAM+0x2c>
 80033ee:	68bb      	ldr	r3, [r7, #8]
 80033f0:	691a      	ldr	r2, [r3, #16]
 80033f2:	68bb      	ldr	r3, [r7, #8]
 80033f4:	689b      	ldr	r3, [r3, #8]
 80033f6:	431a      	orrs	r2, r3
 80033f8:	68bb      	ldr	r3, [r7, #8]
 80033fa:	681b      	ldr	r3, [r3, #0]
 80033fc:	049b      	lsls	r3, r3, #18
 80033fe:	4313      	orrs	r3, r2
 8003400:	61fb      	str	r3, [r7, #28]
 8003402:	e00a      	b.n	800341a <FDCAN_CopyMessageToRAM+0x42>
 8003404:	68bb      	ldr	r3, [r7, #8]
 8003406:	691a      	ldr	r2, [r3, #16]
 8003408:	68bb      	ldr	r3, [r7, #8]
 800340a:	689b      	ldr	r3, [r3, #8]
 800340c:	431a      	orrs	r2, r3
 800340e:	68bb      	ldr	r3, [r7, #8]
 8003410:	681b      	ldr	r3, [r3, #0]
 8003412:	4313      	orrs	r3, r2
 8003414:	f043 4380 	orr.w	r3, r3, #1073741824	@ 0x40000000
 8003418:	61fb      	str	r3, [r7, #28]
 800341a:	68bb      	ldr	r3, [r7, #8]
 800341c:	6a1b      	ldr	r3, [r3, #32]
 800341e:	061a      	lsls	r2, r3, #24
 8003420:	68bb      	ldr	r3, [r7, #8]
 8003422:	69db      	ldr	r3, [r3, #28]
 8003424:	431a      	orrs	r2, r3
 8003426:	68bb      	ldr	r3, [r7, #8]
 8003428:	699b      	ldr	r3, [r3, #24]
 800342a:	431a      	orrs	r2, r3
 800342c:	68bb      	ldr	r3, [r7, #8]
 800342e:	695b      	ldr	r3, [r3, #20]
 8003430:	431a      	orrs	r2, r3
 8003432:	68bb      	ldr	r3, [r7, #8]
 8003434:	68db      	ldr	r3, [r3, #12]
 8003436:	041b      	lsls	r3, r3, #16
 8003438:	4313      	orrs	r3, r2
 800343a:	613b      	str	r3, [r7, #16]
 800343c:	68fb      	ldr	r3, [r7, #12]
 800343e:	6d59      	ldr	r1, [r3, #84]	@ 0x54
 8003440:	683a      	ldr	r2, [r7, #0]
 8003442:	4613      	mov	r3, r2
 8003444:	00db      	lsls	r3, r3, #3
 8003446:	4413      	add	r3, r2
 8003448:	00db      	lsls	r3, r3, #3
 800344a:	440b      	add	r3, r1
 800344c:	61bb      	str	r3, [r7, #24]
 800344e:	69bb      	ldr	r3, [r7, #24]
 8003450:	69fa      	ldr	r2, [r7, #28]
 8003452:	601a      	str	r2, [r3, #0]
 8003454:	69bb      	ldr	r3, [r7, #24]
 8003456:	3304      	adds	r3, #4
 8003458:	61bb      	str	r3, [r7, #24]
 800345a:	69bb      	ldr	r3, [r7, #24]
 800345c:	693a      	ldr	r2, [r7, #16]
 800345e:	601a      	str	r2, [r3, #0]
 8003460:	69bb      	ldr	r3, [r7, #24]
 8003462:	3304      	adds	r3, #4
 8003464:	61bb      	str	r3, [r7, #24]
 8003466:	2300      	movs	r3, #0
 8003468:	617b      	str	r3, [r7, #20]
 800346a:	e020      	b.n	80034ae <FDCAN_CopyMessageToRAM+0xd6>
 800346c:	697b      	ldr	r3, [r7, #20]
 800346e:	3303      	adds	r3, #3
 8003470:	687a      	ldr	r2, [r7, #4]
 8003472:	4413      	add	r3, r2
 8003474:	781b      	ldrb	r3, [r3, #0]
 8003476:	061a      	lsls	r2, r3, #24
 8003478:	697b      	ldr	r3, [r7, #20]
 800347a:	3302      	adds	r3, #2
 800347c:	6879      	ldr	r1, [r7, #4]
 800347e:	440b      	add	r3, r1
 8003480:	781b      	ldrb	r3, [r3, #0]
 8003482:	041b      	lsls	r3, r3, #16
 8003484:	431a      	orrs	r2, r3
 8003486:	697b      	ldr	r3, [r7, #20]
 8003488:	3301      	adds	r3, #1
 800348a:	6879      	ldr	r1, [r7, #4]
 800348c:	440b      	add	r3, r1
 800348e:	781b      	ldrb	r3, [r3, #0]
 8003490:	021b      	lsls	r3, r3, #8
 8003492:	4313      	orrs	r3, r2
 8003494:	6879      	ldr	r1, [r7, #4]
 8003496:	697a      	ldr	r2, [r7, #20]
 8003498:	440a      	add	r2, r1
 800349a:	7812      	ldrb	r2, [r2, #0]
 800349c:	431a      	orrs	r2, r3
 800349e:	69bb      	ldr	r3, [r7, #24]
 80034a0:	601a      	str	r2, [r3, #0]
 80034a2:	69bb      	ldr	r3, [r7, #24]
 80034a4:	3304      	adds	r3, #4
 80034a6:	61bb      	str	r3, [r7, #24]
 80034a8:	697b      	ldr	r3, [r7, #20]
 80034aa:	3304      	adds	r3, #4
 80034ac:	617b      	str	r3, [r7, #20]
 80034ae:	68bb      	ldr	r3, [r7, #8]
 80034b0:	68db      	ldr	r3, [r3, #12]
 80034b2:	4a06      	ldr	r2, [pc, #24]	@ (80034cc <FDCAN_CopyMessageToRAM+0xf4>)
 80034b4:	5cd3      	ldrb	r3, [r2, r3]
 80034b6:	461a      	mov	r2, r3
 80034b8:	697b      	ldr	r3, [r7, #20]
 80034ba:	4293      	cmp	r3, r2
 80034bc:	d3d6      	bcc.n	800346c <FDCAN_CopyMessageToRAM+0x94>
 80034be:	bf00      	nop
 80034c0:	bf00      	nop
 80034c2:	3724      	adds	r7, #36	@ 0x24
 80034c4:	46bd      	mov	sp, r7
 80034c6:	f85d 7b04 	ldr.w	r7, [sp], #4
 80034ca:	4770      	bx	lr
 80034cc:	0800d630 	.word	0x0800d630

080034d0 <HAL_GPIO_Init>:
 80034d0:	b480      	push	{r7}
 80034d2:	b087      	sub	sp, #28
 80034d4:	af00      	add	r7, sp, #0
 80034d6:	6078      	str	r0, [r7, #4]
 80034d8:	6039      	str	r1, [r7, #0]
 80034da:	2300      	movs	r3, #0
 80034dc:	617b      	str	r3, [r7, #20]
 80034de:	e15a      	b.n	8003796 <HAL_GPIO_Init+0x2c6>
 80034e0:	683b      	ldr	r3, [r7, #0]
 80034e2:	681a      	ldr	r2, [r3, #0]
 80034e4:	2101      	movs	r1, #1
 80034e6:	697b      	ldr	r3, [r7, #20]
 80034e8:	fa01 f303 	lsl.w	r3, r1, r3
 80034ec:	4013      	ands	r3, r2
 80034ee:	60fb      	str	r3, [r7, #12]
 80034f0:	68fb      	ldr	r3, [r7, #12]
 80034f2:	2b00      	cmp	r3, #0
 80034f4:	f000 814c 	beq.w	8003790 <HAL_GPIO_Init+0x2c0>
 80034f8:	683b      	ldr	r3, [r7, #0]
 80034fa:	685b      	ldr	r3, [r3, #4]
 80034fc:	f003 0303 	and.w	r3, r3, #3
 8003500:	2b01      	cmp	r3, #1
 8003502:	d005      	beq.n	8003510 <HAL_GPIO_Init+0x40>
 8003504:	683b      	ldr	r3, [r7, #0]
 8003506:	685b      	ldr	r3, [r3, #4]
 8003508:	f003 0303 	and.w	r3, r3, #3
 800350c:	2b02      	cmp	r3, #2
 800350e:	d130      	bne.n	8003572 <HAL_GPIO_Init+0xa2>
 8003510:	687b      	ldr	r3, [r7, #4]
 8003512:	689b      	ldr	r3, [r3, #8]
 8003514:	613b      	str	r3, [r7, #16]
 8003516:	697b      	ldr	r3, [r7, #20]
 8003518:	005b      	lsls	r3, r3, #1
 800351a:	2203      	movs	r2, #3
 800351c:	fa02 f303 	lsl.w	r3, r2, r3
 8003520:	43db      	mvns	r3, r3
 8003522:	693a      	ldr	r2, [r7, #16]
 8003524:	4013      	ands	r3, r2
 8003526:	613b      	str	r3, [r7, #16]
 8003528:	683b      	ldr	r3, [r7, #0]
 800352a:	68da      	ldr	r2, [r3, #12]
 800352c:	697b      	ldr	r3, [r7, #20]
 800352e:	005b      	lsls	r3, r3, #1
 8003530:	fa02 f303 	lsl.w	r3, r2, r3
 8003534:	693a      	ldr	r2, [r7, #16]
 8003536:	4313      	orrs	r3, r2
 8003538:	613b      	str	r3, [r7, #16]
 800353a:	687b      	ldr	r3, [r7, #4]
 800353c:	693a      	ldr	r2, [r7, #16]
 800353e:	609a      	str	r2, [r3, #8]
 8003540:	687b      	ldr	r3, [r7, #4]
 8003542:	685b      	ldr	r3, [r3, #4]
 8003544:	613b      	str	r3, [r7, #16]
 8003546:	2201      	movs	r2, #1
 8003548:	697b      	ldr	r3, [r7, #20]
 800354a:	fa02 f303 	lsl.w	r3, r2, r3
 800354e:	43db      	mvns	r3, r3
 8003550:	693a      	ldr	r2, [r7, #16]
 8003552:	4013      	ands	r3, r2
 8003554:	613b      	str	r3, [r7, #16]
 8003556:	683b      	ldr	r3, [r7, #0]
 8003558:	685b      	ldr	r3, [r3, #4]
 800355a:	091b      	lsrs	r3, r3, #4
 800355c:	f003 0201 	and.w	r2, r3, #1
 8003560:	697b      	ldr	r3, [r7, #20]
 8003562:	fa02 f303 	lsl.w	r3, r2, r3
 8003566:	693a      	ldr	r2, [r7, #16]
 8003568:	4313      	orrs	r3, r2
 800356a:	613b      	str	r3, [r7, #16]
 800356c:	687b      	ldr	r3, [r7, #4]
 800356e:	693a      	ldr	r2, [r7, #16]
 8003570:	605a      	str	r2, [r3, #4]
 8003572:	683b      	ldr	r3, [r7, #0]
 8003574:	685b      	ldr	r3, [r3, #4]
 8003576:	f003 0303 	and.w	r3, r3, #3
 800357a:	2b03      	cmp	r3, #3
 800357c:	d017      	beq.n	80035ae <HAL_GPIO_Init+0xde>
 800357e:	687b      	ldr	r3, [r7, #4]
 8003580:	68db      	ldr	r3, [r3, #12]
 8003582:	613b      	str	r3, [r7, #16]
 8003584:	697b      	ldr	r3, [r7, #20]
 8003586:	005b      	lsls	r3, r3, #1
 8003588:	2203      	movs	r2, #3
 800358a:	fa02 f303 	lsl.w	r3, r2, r3
 800358e:	43db      	mvns	r3, r3
 8003590:	693a      	ldr	r2, [r7, #16]
 8003592:	4013      	ands	r3, r2
 8003594:	613b      	str	r3, [r7, #16]
 8003596:	683b      	ldr	r3, [r7, #0]
 8003598:	689a      	ldr	r2, [r3, #8]
 800359a:	697b      	ldr	r3, [r7, #20]
 800359c:	005b      	lsls	r3, r3, #1
 800359e:	fa02 f303 	lsl.w	r3, r2, r3
 80035a2:	693a      	ldr	r2, [r7, #16]
 80035a4:	4313      	orrs	r3, r2
 80035a6:	613b      	str	r3, [r7, #16]
 80035a8:	687b      	ldr	r3, [r7, #4]
 80035aa:	693a      	ldr	r2, [r7, #16]
 80035ac:	60da      	str	r2, [r3, #12]
 80035ae:	683b      	ldr	r3, [r7, #0]
 80035b0:	685b      	ldr	r3, [r3, #4]
 80035b2:	f003 0303 	and.w	r3, r3, #3
 80035b6:	2b02      	cmp	r3, #2
 80035b8:	d123      	bne.n	8003602 <HAL_GPIO_Init+0x132>
 80035ba:	697b      	ldr	r3, [r7, #20]
 80035bc:	08da      	lsrs	r2, r3, #3
 80035be:	687b      	ldr	r3, [r7, #4]
 80035c0:	3208      	adds	r2, #8
 80035c2:	f853 3022 	ldr.w	r3, [r3, r2, lsl #2]
 80035c6:	613b      	str	r3, [r7, #16]
 80035c8:	697b      	ldr	r3, [r7, #20]
 80035ca:	f003 0307 	and.w	r3, r3, #7
 80035ce:	009b      	lsls	r3, r3, #2
 80035d0:	220f      	movs	r2, #15
 80035d2:	fa02 f303 	lsl.w	r3, r2, r3
 80035d6:	43db      	mvns	r3, r3
 80035d8:	693a      	ldr	r2, [r7, #16]
 80035da:	4013      	ands	r3, r2
 80035dc:	613b      	str	r3, [r7, #16]
 80035de:	683b      	ldr	r3, [r7, #0]
 80035e0:	691a      	ldr	r2, [r3, #16]
 80035e2:	697b      	ldr	r3, [r7, #20]
 80035e4:	f003 0307 	and.w	r3, r3, #7
 80035e8:	009b      	lsls	r3, r3, #2
 80035ea:	fa02 f303 	lsl.w	r3, r2, r3
 80035ee:	693a      	ldr	r2, [r7, #16]
 80035f0:	4313      	orrs	r3, r2
 80035f2:	613b      	str	r3, [r7, #16]
 80035f4:	697b      	ldr	r3, [r7, #20]
 80035f6:	08da      	lsrs	r2, r3, #3
 80035f8:	687b      	ldr	r3, [r7, #4]
 80035fa:	3208      	adds	r2, #8
 80035fc:	6939      	ldr	r1, [r7, #16]
 80035fe:	f843 1022 	str.w	r1, [r3, r2, lsl #2]
 8003602:	687b      	ldr	r3, [r7, #4]
 8003604:	681b      	ldr	r3, [r3, #0]
 8003606:	613b      	str	r3, [r7, #16]
 8003608:	697b      	ldr	r3, [r7, #20]
 800360a:	005b      	lsls	r3, r3, #1
 800360c:	2203      	movs	r2, #3
 800360e:	fa02 f303 	lsl.w	r3, r2, r3
 8003612:	43db      	mvns	r3, r3
 8003614:	693a      	ldr	r2, [r7, #16]
 8003616:	4013      	ands	r3, r2
 8003618:	613b      	str	r3, [r7, #16]
 800361a:	683b      	ldr	r3, [r7, #0]
 800361c:	685b      	ldr	r3, [r3, #4]
 800361e:	f003 0203 	and.w	r2, r3, #3
 8003622:	697b      	ldr	r3, [r7, #20]
 8003624:	005b      	lsls	r3, r3, #1
 8003626:	fa02 f303 	lsl.w	r3, r2, r3
 800362a:	693a      	ldr	r2, [r7, #16]
 800362c:	4313      	orrs	r3, r2
 800362e:	613b      	str	r3, [r7, #16]
 8003630:	687b      	ldr	r3, [r7, #4]
 8003632:	693a      	ldr	r2, [r7, #16]
 8003634:	601a      	str	r2, [r3, #0]
 8003636:	683b      	ldr	r3, [r7, #0]
 8003638:	685b      	ldr	r3, [r3, #4]
 800363a:	f403 3340 	and.w	r3, r3, #196608	@ 0x30000
 800363e:	2b00      	cmp	r3, #0
 8003640:	f000 80a6 	beq.w	8003790 <HAL_GPIO_Init+0x2c0>
 8003644:	4b5b      	ldr	r3, [pc, #364]	@ (80037b4 <HAL_GPIO_Init+0x2e4>)
 8003646:	6e1b      	ldr	r3, [r3, #96]	@ 0x60
 8003648:	4a5a      	ldr	r2, [pc, #360]	@ (80037b4 <HAL_GPIO_Init+0x2e4>)
 800364a:	f043 0301 	orr.w	r3, r3, #1
 800364e:	6613      	str	r3, [r2, #96]	@ 0x60
 8003650:	4b58      	ldr	r3, [pc, #352]	@ (80037b4 <HAL_GPIO_Init+0x2e4>)
 8003652:	6e1b      	ldr	r3, [r3, #96]	@ 0x60
 8003654:	f003 0301 	and.w	r3, r3, #1
 8003658:	60bb      	str	r3, [r7, #8]
 800365a:	68bb      	ldr	r3, [r7, #8]
 800365c:	4a56      	ldr	r2, [pc, #344]	@ (80037b8 <HAL_GPIO_Init+0x2e8>)
 800365e:	697b      	ldr	r3, [r7, #20]
 8003660:	089b      	lsrs	r3, r3, #2
 8003662:	3302      	adds	r3, #2
 8003664:	f852 3023 	ldr.w	r3, [r2, r3, lsl #2]
 8003668:	613b      	str	r3, [r7, #16]
 800366a:	697b      	ldr	r3, [r7, #20]
 800366c:	f003 0303 	and.w	r3, r3, #3
 8003670:	009b      	lsls	r3, r3, #2
 8003672:	220f      	movs	r2, #15
 8003674:	fa02 f303 	lsl.w	r3, r2, r3
 8003678:	43db      	mvns	r3, r3
 800367a:	693a      	ldr	r2, [r7, #16]
 800367c:	4013      	ands	r3, r2
 800367e:	613b      	str	r3, [r7, #16]
 8003680:	687b      	ldr	r3, [r7, #4]
 8003682:	f1b3 4f90 	cmp.w	r3, #1207959552	@ 0x48000000
 8003686:	d01f      	beq.n	80036c8 <HAL_GPIO_Init+0x1f8>
 8003688:	687b      	ldr	r3, [r7, #4]
 800368a:	4a4c      	ldr	r2, [pc, #304]	@ (80037bc <HAL_GPIO_Init+0x2ec>)
 800368c:	4293      	cmp	r3, r2
 800368e:	d019      	beq.n	80036c4 <HAL_GPIO_Init+0x1f4>
 8003690:	687b      	ldr	r3, [r7, #4]
 8003692:	4a4b      	ldr	r2, [pc, #300]	@ (80037c0 <HAL_GPIO_Init+0x2f0>)
 8003694:	4293      	cmp	r3, r2
 8003696:	d013      	beq.n	80036c0 <HAL_GPIO_Init+0x1f0>
 8003698:	687b      	ldr	r3, [r7, #4]
 800369a:	4a4a      	ldr	r2, [pc, #296]	@ (80037c4 <HAL_GPIO_Init+0x2f4>)
 800369c:	4293      	cmp	r3, r2
 800369e:	d00d      	beq.n	80036bc <HAL_GPIO_Init+0x1ec>
 80036a0:	687b      	ldr	r3, [r7, #4]
 80036a2:	4a49      	ldr	r2, [pc, #292]	@ (80037c8 <HAL_GPIO_Init+0x2f8>)
 80036a4:	4293      	cmp	r3, r2
 80036a6:	d007      	beq.n	80036b8 <HAL_GPIO_Init+0x1e8>
 80036a8:	687b      	ldr	r3, [r7, #4]
 80036aa:	4a48      	ldr	r2, [pc, #288]	@ (80037cc <HAL_GPIO_Init+0x2fc>)
 80036ac:	4293      	cmp	r3, r2
 80036ae:	d101      	bne.n	80036b4 <HAL_GPIO_Init+0x1e4>
 80036b0:	2305      	movs	r3, #5
 80036b2:	e00a      	b.n	80036ca <HAL_GPIO_Init+0x1fa>
 80036b4:	2306      	movs	r3, #6
 80036b6:	e008      	b.n	80036ca <HAL_GPIO_Init+0x1fa>
 80036b8:	2304      	movs	r3, #4
 80036ba:	e006      	b.n	80036ca <HAL_GPIO_Init+0x1fa>
 80036bc:	2303      	movs	r3, #3
 80036be:	e004      	b.n	80036ca <HAL_GPIO_Init+0x1fa>
 80036c0:	2302      	movs	r3, #2
 80036c2:	e002      	b.n	80036ca <HAL_GPIO_Init+0x1fa>
 80036c4:	2301      	movs	r3, #1
 80036c6:	e000      	b.n	80036ca <HAL_GPIO_Init+0x1fa>
 80036c8:	2300      	movs	r3, #0
 80036ca:	697a      	ldr	r2, [r7, #20]
 80036cc:	f002 0203 	and.w	r2, r2, #3
 80036d0:	0092      	lsls	r2, r2, #2
 80036d2:	4093      	lsls	r3, r2
 80036d4:	693a      	ldr	r2, [r7, #16]
 80036d6:	4313      	orrs	r3, r2
 80036d8:	613b      	str	r3, [r7, #16]
 80036da:	4937      	ldr	r1, [pc, #220]	@ (80037b8 <HAL_GPIO_Init+0x2e8>)
 80036dc:	697b      	ldr	r3, [r7, #20]
 80036de:	089b      	lsrs	r3, r3, #2
 80036e0:	3302      	adds	r3, #2
 80036e2:	693a      	ldr	r2, [r7, #16]
 80036e4:	f841 2023 	str.w	r2, [r1, r3, lsl #2]
 80036e8:	4b39      	ldr	r3, [pc, #228]	@ (80037d0 <HAL_GPIO_Init+0x300>)
 80036ea:	689b      	ldr	r3, [r3, #8]
 80036ec:	613b      	str	r3, [r7, #16]
 80036ee:	68fb      	ldr	r3, [r7, #12]
 80036f0:	43db      	mvns	r3, r3
 80036f2:	693a      	ldr	r2, [r7, #16]
 80036f4:	4013      	ands	r3, r2
 80036f6:	613b      	str	r3, [r7, #16]
 80036f8:	683b      	ldr	r3, [r7, #0]
 80036fa:	685b      	ldr	r3, [r3, #4]
 80036fc:	f403 1380 	and.w	r3, r3, #1048576	@ 0x100000
 8003700:	2b00      	cmp	r3, #0
 8003702:	d003      	beq.n	800370c <HAL_GPIO_Init+0x23c>
 8003704:	693a      	ldr	r2, [r7, #16]
 8003706:	68fb      	ldr	r3, [r7, #12]
 8003708:	4313      	orrs	r3, r2
 800370a:	613b      	str	r3, [r7, #16]
 800370c:	4a30      	ldr	r2, [pc, #192]	@ (80037d0 <HAL_GPIO_Init+0x300>)
 800370e:	693b      	ldr	r3, [r7, #16]
 8003710:	6093      	str	r3, [r2, #8]
 8003712:	4b2f      	ldr	r3, [pc, #188]	@ (80037d0 <HAL_GPIO_Init+0x300>)
 8003714:	68db      	ldr	r3, [r3, #12]
 8003716:	613b      	str	r3, [r7, #16]
 8003718:	68fb      	ldr	r3, [r7, #12]
 800371a:	43db      	mvns	r3, r3
 800371c:	693a      	ldr	r2, [r7, #16]
 800371e:	4013      	ands	r3, r2
 8003720:	613b      	str	r3, [r7, #16]
 8003722:	683b      	ldr	r3, [r7, #0]
 8003724:	685b      	ldr	r3, [r3, #4]
 8003726:	f403 1300 	and.w	r3, r3, #2097152	@ 0x200000
 800372a:	2b00      	cmp	r3, #0
 800372c:	d003      	beq.n	8003736 <HAL_GPIO_Init+0x266>
 800372e:	693a      	ldr	r2, [r7, #16]
 8003730:	68fb      	ldr	r3, [r7, #12]
 8003732:	4313      	orrs	r3, r2
 8003734:	613b      	str	r3, [r7, #16]
 8003736:	4a26      	ldr	r2, [pc, #152]	@ (80037d0 <HAL_GPIO_Init+0x300>)
 8003738:	693b      	ldr	r3, [r7, #16]
 800373a:	60d3      	str	r3, [r2, #12]
 800373c:	4b24      	ldr	r3, [pc, #144]	@ (80037d0 <HAL_GPIO_Init+0x300>)
 800373e:	685b      	ldr	r3, [r3, #4]
 8003740:	613b      	str	r3, [r7, #16]
 8003742:	68fb      	ldr	r3, [r7, #12]
 8003744:	43db      	mvns	r3, r3
 8003746:	693a      	ldr	r2, [r7, #16]
 8003748:	4013      	ands	r3, r2
 800374a:	613b      	str	r3, [r7, #16]
 800374c:	683b      	ldr	r3, [r7, #0]
 800374e:	685b      	ldr	r3, [r3, #4]
 8003750:	f403 3300 	and.w	r3, r3, #131072	@ 0x20000
 8003754:	2b00      	cmp	r3, #0
 8003756:	d003      	beq.n	8003760 <HAL_GPIO_Init+0x290>
 8003758:	693a      	ldr	r2, [r7, #16]
 800375a:	68fb      	ldr	r3, [r7, #12]
 800375c:	4313      	orrs	r3, r2
 800375e:	613b      	str	r3, [r7, #16]
 8003760:	4a1b      	ldr	r2, [pc, #108]	@ (80037d0 <HAL_GPIO_Init+0x300>)
 8003762:	693b      	ldr	r3, [r7, #16]
 8003764:	6053      	str	r3, [r2, #4]
 8003766:	4b1a      	ldr	r3, [pc, #104]	@ (80037d0 <HAL_GPIO_Init+0x300>)
 8003768:	681b      	ldr	r3, [r3, #0]
 800376a:	613b      	str	r3, [r7, #16]
 800376c:	68fb      	ldr	r3, [r7, #12]
 800376e:	43db      	mvns	r3, r3
 8003770:	693a      	ldr	r2, [r7, #16]
 8003772:	4013      	ands	r3, r2
 8003774:	613b      	str	r3, [r7, #16]
 8003776:	683b      	ldr	r3, [r7, #0]
 8003778:	685b      	ldr	r3, [r3, #4]
 800377a:	f403 3380 	and.w	r3, r3, #65536	@ 0x10000
 800377e:	2b00      	cmp	r3, #0
 8003780:	d003      	beq.n	800378a <HAL_GPIO_Init+0x2ba>
 8003782:	693a      	ldr	r2, [r7, #16]
 8003784:	68fb      	ldr	r3, [r7, #12]
 8003786:	4313      	orrs	r3, r2
 8003788:	613b      	str	r3, [r7, #16]
 800378a:	4a11      	ldr	r2, [pc, #68]	@ (80037d0 <HAL_GPIO_Init+0x300>)
 800378c:	693b      	ldr	r3, [r7, #16]
 800378e:	6013      	str	r3, [r2, #0]
 8003790:	697b      	ldr	r3, [r7, #20]
 8003792:	3301      	adds	r3, #1
 8003794:	617b      	str	r3, [r7, #20]
 8003796:	683b      	ldr	r3, [r7, #0]
 8003798:	681a      	ldr	r2, [r3, #0]
 800379a:	697b      	ldr	r3, [r7, #20]
 800379c:	fa22 f303 	lsr.w	r3, r2, r3
 80037a0:	2b00      	cmp	r3, #0
 80037a2:	f47f ae9d 	bne.w	80034e0 <HAL_GPIO_Init+0x10>
 80037a6:	bf00      	nop
 80037a8:	bf00      	nop
 80037aa:	371c      	adds	r7, #28
 80037ac:	46bd      	mov	sp, r7
 80037ae:	f85d 7b04 	ldr.w	r7, [sp], #4
 80037b2:	4770      	bx	lr
 80037b4:	40021000 	.word	0x40021000
 80037b8:	40010000 	.word	0x40010000
 80037bc:	48000400 	.word	0x48000400
 80037c0:	48000800 	.word	0x48000800
 80037c4:	48000c00 	.word	0x48000c00
 80037c8:	48001000 	.word	0x48001000
 80037cc:	48001400 	.word	0x48001400
 80037d0:	40010400 	.word	0x40010400

080037d4 <HAL_GPIO_WritePin>:
 80037d4:	b480      	push	{r7}
 80037d6:	b083      	sub	sp, #12
 80037d8:	af00      	add	r7, sp, #0
 80037da:	6078      	str	r0, [r7, #4]
 80037dc:	460b      	mov	r3, r1
 80037de:	807b      	strh	r3, [r7, #2]
 80037e0:	4613      	mov	r3, r2
 80037e2:	707b      	strb	r3, [r7, #1]
 80037e4:	787b      	ldrb	r3, [r7, #1]
 80037e6:	2b00      	cmp	r3, #0
 80037e8:	d003      	beq.n	80037f2 <HAL_GPIO_WritePin+0x1e>
 80037ea:	887a      	ldrh	r2, [r7, #2]
 80037ec:	687b      	ldr	r3, [r7, #4]
 80037ee:	619a      	str	r2, [r3, #24]
 80037f0:	e002      	b.n	80037f8 <HAL_GPIO_WritePin+0x24>
 80037f2:	887a      	ldrh	r2, [r7, #2]
 80037f4:	687b      	ldr	r3, [r7, #4]
 80037f6:	629a      	str	r2, [r3, #40]	@ 0x28
 80037f8:	bf00      	nop
 80037fa:	370c      	adds	r7, #12
 80037fc:	46bd      	mov	sp, r7
 80037fe:	f85d 7b04 	ldr.w	r7, [sp], #4
 8003802:	4770      	bx	lr

08003804 <HAL_PCD_Init>:
 8003804:	b580      	push	{r7, lr}
 8003806:	b084      	sub	sp, #16
 8003808:	af00      	add	r7, sp, #0
 800380a:	6078      	str	r0, [r7, #4]
 800380c:	687b      	ldr	r3, [r7, #4]
 800380e:	2b00      	cmp	r3, #0
 8003810:	d101      	bne.n	8003816 <HAL_PCD_Init+0x12>
 8003812:	2301      	movs	r3, #1
 8003814:	e0c0      	b.n	8003998 <HAL_PCD_Init+0x194>
 8003816:	687b      	ldr	r3, [r7, #4]
 8003818:	f893 3291 	ldrb.w	r3, [r3, #657]	@ 0x291
 800381c:	b2db      	uxtb	r3, r3
 800381e:	2b00      	cmp	r3, #0
 8003820:	d106      	bne.n	8003830 <HAL_PCD_Init+0x2c>
 8003822:	687b      	ldr	r3, [r7, #4]
 8003824:	2200      	movs	r2, #0
 8003826:	f883 2290 	strb.w	r2, [r3, #656]	@ 0x290
 800382a:	6878      	ldr	r0, [r7, #4]
 800382c:	f008 fb0a 	bl	800be44 <HAL_PCD_MspInit>
 8003830:	687b      	ldr	r3, [r7, #4]
 8003832:	2203      	movs	r2, #3
 8003834:	f883 2291 	strb.w	r2, [r3, #657]	@ 0x291
 8003838:	687b      	ldr	r3, [r7, #4]
 800383a:	681b      	ldr	r3, [r3, #0]
 800383c:	4618      	mov	r0, r3
 800383e:	f004 fe74 	bl	800852a <USB_DisableGlobalInt>
 8003842:	2300      	movs	r3, #0
 8003844:	73fb      	strb	r3, [r7, #15]
 8003846:	e03e      	b.n	80038c6 <HAL_PCD_Init+0xc2>
 8003848:	7bfa      	ldrb	r2, [r7, #15]
 800384a:	6879      	ldr	r1, [r7, #4]
 800384c:	4613      	mov	r3, r2
 800384e:	009b      	lsls	r3, r3, #2
 8003850:	4413      	add	r3, r2
 8003852:	00db      	lsls	r3, r3, #3
 8003854:	440b      	add	r3, r1
 8003856:	3311      	adds	r3, #17
 8003858:	2201      	movs	r2, #1
 800385a:	701a      	strb	r2, [r3, #0]
 800385c:	7bfa      	ldrb	r2, [r7, #15]
 800385e:	6879      	ldr	r1, [r7, #4]
 8003860:	4613      	mov	r3, r2
 8003862:	009b      	lsls	r3, r3, #2
 8003864:	4413      	add	r3, r2
 8003866:	00db      	lsls	r3, r3, #3
 8003868:	440b      	add	r3, r1
 800386a:	3310      	adds	r3, #16
 800386c:	7bfa      	ldrb	r2, [r7, #15]
 800386e:	701a      	strb	r2, [r3, #0]
 8003870:	7bfa      	ldrb	r2, [r7, #15]
 8003872:	6879      	ldr	r1, [r7, #4]
 8003874:	4613      	mov	r3, r2
 8003876:	009b      	lsls	r3, r3, #2
 8003878:	4413      	add	r3, r2
 800387a:	00db      	lsls	r3, r3, #3
 800387c:	440b      	add	r3, r1
 800387e:	3313      	adds	r3, #19
 8003880:	2200      	movs	r2, #0
 8003882:	701a      	strb	r2, [r3, #0]
 8003884:	7bfa      	ldrb	r2, [r7, #15]
 8003886:	6879      	ldr	r1, [r7, #4]
 8003888:	4613      	mov	r3, r2
 800388a:	009b      	lsls	r3, r3, #2
 800388c:	4413      	add	r3, r2
 800388e:	00db      	lsls	r3, r3, #3
 8003890:	440b      	add	r3, r1
 8003892:	3320      	adds	r3, #32
 8003894:	2200      	movs	r2, #0
 8003896:	601a      	str	r2, [r3, #0]
 8003898:	7bfa      	ldrb	r2, [r7, #15]
 800389a:	6879      	ldr	r1, [r7, #4]
 800389c:	4613      	mov	r3, r2
 800389e:	009b      	lsls	r3, r3, #2
 80038a0:	4413      	add	r3, r2
 80038a2:	00db      	lsls	r3, r3, #3
 80038a4:	440b      	add	r3, r1
 80038a6:	3324      	adds	r3, #36	@ 0x24
 80038a8:	2200      	movs	r2, #0
 80038aa:	601a      	str	r2, [r3, #0]
 80038ac:	7bfb      	ldrb	r3, [r7, #15]
 80038ae:	6879      	ldr	r1, [r7, #4]
 80038b0:	1c5a      	adds	r2, r3, #1
 80038b2:	4613      	mov	r3, r2
 80038b4:	009b      	lsls	r3, r3, #2
 80038b6:	4413      	add	r3, r2
 80038b8:	00db      	lsls	r3, r3, #3
 80038ba:	440b      	add	r3, r1
 80038bc:	2200      	movs	r2, #0
 80038be:	601a      	str	r2, [r3, #0]
 80038c0:	7bfb      	ldrb	r3, [r7, #15]
 80038c2:	3301      	adds	r3, #1
 80038c4:	73fb      	strb	r3, [r7, #15]
 80038c6:	687b      	ldr	r3, [r7, #4]
 80038c8:	791b      	ldrb	r3, [r3, #4]
 80038ca:	7bfa      	ldrb	r2, [r7, #15]
 80038cc:	429a      	cmp	r2, r3
 80038ce:	d3bb      	bcc.n	8003848 <HAL_PCD_Init+0x44>
 80038d0:	2300      	movs	r3, #0
 80038d2:	73fb      	strb	r3, [r7, #15]
 80038d4:	e044      	b.n	8003960 <HAL_PCD_Init+0x15c>
 80038d6:	7bfa      	ldrb	r2, [r7, #15]
 80038d8:	6879      	ldr	r1, [r7, #4]
 80038da:	4613      	mov	r3, r2
 80038dc:	009b      	lsls	r3, r3, #2
 80038de:	4413      	add	r3, r2
 80038e0:	00db      	lsls	r3, r3, #3
 80038e2:	440b      	add	r3, r1
 80038e4:	f203 1351 	addw	r3, r3, #337	@ 0x151
 80038e8:	2200      	movs	r2, #0
 80038ea:	701a      	strb	r2, [r3, #0]
 80038ec:	7bfa      	ldrb	r2, [r7, #15]
 80038ee:	6879      	ldr	r1, [r7, #4]
 80038f0:	4613      	mov	r3, r2
 80038f2:	009b      	lsls	r3, r3, #2
 80038f4:	4413      	add	r3, r2
 80038f6:	00db      	lsls	r3, r3, #3
 80038f8:	440b      	add	r3, r1
 80038fa:	f503 73a8 	add.w	r3, r3, #336	@ 0x150
 80038fe:	7bfa      	ldrb	r2, [r7, #15]
 8003900:	701a      	strb	r2, [r3, #0]
 8003902:	7bfa      	ldrb	r2, [r7, #15]
 8003904:	6879      	ldr	r1, [r7, #4]
 8003906:	4613      	mov	r3, r2
 8003908:	009b      	lsls	r3, r3, #2
 800390a:	4413      	add	r3, r2
 800390c:	00db      	lsls	r3, r3, #3
 800390e:	440b      	add	r3, r1
 8003910:	f203 1353 	addw	r3, r3, #339	@ 0x153
 8003914:	2200      	movs	r2, #0
 8003916:	701a      	strb	r2, [r3, #0]
 8003918:	7bfa      	ldrb	r2, [r7, #15]
 800391a:	6879      	ldr	r1, [r7, #4]
 800391c:	4613      	mov	r3, r2
 800391e:	009b      	lsls	r3, r3, #2
 8003920:	4413      	add	r3, r2
 8003922:	00db      	lsls	r3, r3, #3
 8003924:	440b      	add	r3, r1
 8003926:	f503 73b0 	add.w	r3, r3, #352	@ 0x160
 800392a:	2200      	movs	r2, #0
 800392c:	601a      	str	r2, [r3, #0]
 800392e:	7bfa      	ldrb	r2, [r7, #15]
 8003930:	6879      	ldr	r1, [r7, #4]
 8003932:	4613      	mov	r3, r2
 8003934:	009b      	lsls	r3, r3, #2
 8003936:	4413      	add	r3, r2
 8003938:	00db      	lsls	r3, r3, #3
 800393a:	440b      	add	r3, r1
 800393c:	f503 73b2 	add.w	r3, r3, #356	@ 0x164
 8003940:	2200      	movs	r2, #0
 8003942:	601a      	str	r2, [r3, #0]
 8003944:	7bfa      	ldrb	r2, [r7, #15]
 8003946:	6879      	ldr	r1, [r7, #4]
 8003948:	4613      	mov	r3, r2
 800394a:	009b      	lsls	r3, r3, #2
 800394c:	4413      	add	r3, r2
 800394e:	00db      	lsls	r3, r3, #3
 8003950:	440b      	add	r3, r1
 8003952:	f503 73b4 	add.w	r3, r3, #360	@ 0x168
 8003956:	2200      	movs	r2, #0
 8003958:	601a      	str	r2, [r3, #0]
 800395a:	7bfb      	ldrb	r3, [r7, #15]
 800395c:	3301      	adds	r3, #1
 800395e:	73fb      	strb	r3, [r7, #15]
 8003960:	687b      	ldr	r3, [r7, #4]
 8003962:	791b      	ldrb	r3, [r3, #4]
 8003964:	7bfa      	ldrb	r2, [r7, #15]
 8003966:	429a      	cmp	r2, r3
 8003968:	d3b5      	bcc.n	80038d6 <HAL_PCD_Init+0xd2>
 800396a:	687b      	ldr	r3, [r7, #4]
 800396c:	6818      	ldr	r0, [r3, #0]
 800396e:	687b      	ldr	r3, [r7, #4]
 8003970:	3304      	adds	r3, #4
 8003972:	e893 0006 	ldmia.w	r3, {r1, r2}
 8003976:	f004 fdf3 	bl	8008560 <USB_DevInit>
 800397a:	687b      	ldr	r3, [r7, #4]
 800397c:	2200      	movs	r2, #0
 800397e:	731a      	strb	r2, [r3, #12]
 8003980:	687b      	ldr	r3, [r7, #4]
 8003982:	2201      	movs	r2, #1
 8003984:	f883 2291 	strb.w	r2, [r3, #657]	@ 0x291
 8003988:	687b      	ldr	r3, [r7, #4]
 800398a:	7a9b      	ldrb	r3, [r3, #10]
 800398c:	2b01      	cmp	r3, #1
 800398e:	d102      	bne.n	8003996 <HAL_PCD_Init+0x192>
 8003990:	6878      	ldr	r0, [r7, #4]
 8003992:	f001 fc0e 	bl	80051b2 <HAL_PCDEx_ActivateLPM>
 8003996:	2300      	movs	r3, #0
 8003998:	4618      	mov	r0, r3
 800399a:	3710      	adds	r7, #16
 800399c:	46bd      	mov	sp, r7
 800399e:	bd80      	pop	{r7, pc}

080039a0 <HAL_PCD_Start>:
 80039a0:	b580      	push	{r7, lr}
 80039a2:	b082      	sub	sp, #8
 80039a4:	af00      	add	r7, sp, #0
 80039a6:	6078      	str	r0, [r7, #4]
 80039a8:	687b      	ldr	r3, [r7, #4]
 80039aa:	f893 3290 	ldrb.w	r3, [r3, #656]	@ 0x290
 80039ae:	2b01      	cmp	r3, #1
 80039b0:	d101      	bne.n	80039b6 <HAL_PCD_Start+0x16>
 80039b2:	2302      	movs	r3, #2
 80039b4:	e012      	b.n	80039dc <HAL_PCD_Start+0x3c>
 80039b6:	687b      	ldr	r3, [r7, #4]
 80039b8:	2201      	movs	r2, #1
 80039ba:	f883 2290 	strb.w	r2, [r3, #656]	@ 0x290
 80039be:	687b      	ldr	r3, [r7, #4]
 80039c0:	681b      	ldr	r3, [r3, #0]
 80039c2:	4618      	mov	r0, r3
 80039c4:	f004 fd9a 	bl	80084fc <USB_EnableGlobalInt>
 80039c8:	687b      	ldr	r3, [r7, #4]
 80039ca:	681b      	ldr	r3, [r3, #0]
 80039cc:	4618      	mov	r0, r3
 80039ce:	f006 fb77 	bl	800a0c0 <USB_DevConnect>
 80039d2:	687b      	ldr	r3, [r7, #4]
 80039d4:	2200      	movs	r2, #0
 80039d6:	f883 2290 	strb.w	r2, [r3, #656]	@ 0x290
 80039da:	2300      	movs	r3, #0
 80039dc:	4618      	mov	r0, r3
 80039de:	3708      	adds	r7, #8
 80039e0:	46bd      	mov	sp, r7
 80039e2:	bd80      	pop	{r7, pc}

080039e4 <HAL_PCD_IRQHandler>:
 80039e4:	b580      	push	{r7, lr}
 80039e6:	b084      	sub	sp, #16
 80039e8:	af00      	add	r7, sp, #0
 80039ea:	6078      	str	r0, [r7, #4]
 80039ec:	687b      	ldr	r3, [r7, #4]
 80039ee:	681b      	ldr	r3, [r3, #0]
 80039f0:	4618      	mov	r0, r3
 80039f2:	f006 fb7c 	bl	800a0ee <USB_ReadInterrupts>
 80039f6:	60f8      	str	r0, [r7, #12]
 80039f8:	68fb      	ldr	r3, [r7, #12]
 80039fa:	f403 4300 	and.w	r3, r3, #32768	@ 0x8000
 80039fe:	2b00      	cmp	r3, #0
 8003a00:	d003      	beq.n	8003a0a <HAL_PCD_IRQHandler+0x26>
 8003a02:	6878      	ldr	r0, [r7, #4]
 8003a04:	f000 fb06 	bl	8004014 <PCD_EP_ISR_Handler>
 8003a08:	e110      	b.n	8003c2c <HAL_PCD_IRQHandler+0x248>
 8003a0a:	68fb      	ldr	r3, [r7, #12]
 8003a0c:	f403 6380 	and.w	r3, r3, #1024	@ 0x400
 8003a10:	2b00      	cmp	r3, #0
 8003a12:	d013      	beq.n	8003a3c <HAL_PCD_IRQHandler+0x58>
 8003a14:	687b      	ldr	r3, [r7, #4]
 8003a16:	681b      	ldr	r3, [r3, #0]
 8003a18:	f8b3 3044 	ldrh.w	r3, [r3, #68]	@ 0x44
 8003a1c:	b29a      	uxth	r2, r3
 8003a1e:	687b      	ldr	r3, [r7, #4]
 8003a20:	681b      	ldr	r3, [r3, #0]
 8003a22:	f422 6280 	bic.w	r2, r2, #1024	@ 0x400
 8003a26:	b292      	uxth	r2, r2
 8003a28:	f8a3 2044 	strh.w	r2, [r3, #68]	@ 0x44
 8003a2c:	6878      	ldr	r0, [r7, #4]
 8003a2e:	f008 fa9a 	bl	800bf66 <HAL_PCD_ResetCallback>
 8003a32:	2100      	movs	r1, #0
 8003a34:	6878      	ldr	r0, [r7, #4]
 8003a36:	f000 f8fc 	bl	8003c32 <HAL_PCD_SetAddress>
 8003a3a:	e0f7      	b.n	8003c2c <HAL_PCD_IRQHandler+0x248>
 8003a3c:	68fb      	ldr	r3, [r7, #12]
 8003a3e:	f403 4380 	and.w	r3, r3, #16384	@ 0x4000
 8003a42:	2b00      	cmp	r3, #0
 8003a44:	d00c      	beq.n	8003a60 <HAL_PCD_IRQHandler+0x7c>
 8003a46:	687b      	ldr	r3, [r7, #4]
 8003a48:	681b      	ldr	r3, [r3, #0]
 8003a4a:	f8b3 3044 	ldrh.w	r3, [r3, #68]	@ 0x44
 8003a4e:	b29a      	uxth	r2, r3
 8003a50:	687b      	ldr	r3, [r7, #4]
 8003a52:	681b      	ldr	r3, [r3, #0]
 8003a54:	f422 4280 	bic.w	r2, r2, #16384	@ 0x4000
 8003a58:	b292      	uxth	r2, r2
 8003a5a:	f8a3 2044 	strh.w	r2, [r3, #68]	@ 0x44
 8003a5e:	e0e5      	b.n	8003c2c <HAL_PCD_IRQHandler+0x248>
 8003a60:	68fb      	ldr	r3, [r7, #12]
 8003a62:	f403 5300 	and.w	r3, r3, #8192	@ 0x2000
 8003a66:	2b00      	cmp	r3, #0
 8003a68:	d00c      	beq.n	8003a84 <HAL_PCD_IRQHandler+0xa0>
 8003a6a:	687b      	ldr	r3, [r7, #4]
 8003a6c:	681b      	ldr	r3, [r3, #0]
 8003a6e:	f8b3 3044 	ldrh.w	r3, [r3, #68]	@ 0x44
 8003a72:	b29a      	uxth	r2, r3
 8003a74:	687b      	ldr	r3, [r7, #4]
 8003a76:	681b      	ldr	r3, [r3, #0]
 8003a78:	f422 5200 	bic.w	r2, r2, #8192	@ 0x2000
 8003a7c:	b292      	uxth	r2, r2
 8003a7e:	f8a3 2044 	strh.w	r2, [r3, #68]	@ 0x44
 8003a82:	e0d3      	b.n	8003c2c <HAL_PCD_IRQHandler+0x248>
 8003a84:	68fb      	ldr	r3, [r7, #12]
 8003a86:	f403 5380 	and.w	r3, r3, #4096	@ 0x1000
 8003a8a:	2b00      	cmp	r3, #0
 8003a8c:	d034      	beq.n	8003af8 <HAL_PCD_IRQHandler+0x114>
 8003a8e:	687b      	ldr	r3, [r7, #4]
 8003a90:	681b      	ldr	r3, [r3, #0]
 8003a92:	f8b3 3040 	ldrh.w	r3, [r3, #64]	@ 0x40
 8003a96:	b29a      	uxth	r2, r3
 8003a98:	687b      	ldr	r3, [r7, #4]
 8003a9a:	681b      	ldr	r3, [r3, #0]
 8003a9c:	f022 0204 	bic.w	r2, r2, #4
 8003aa0:	b292      	uxth	r2, r2
 8003aa2:	f8a3 2040 	strh.w	r2, [r3, #64]	@ 0x40
 8003aa6:	687b      	ldr	r3, [r7, #4]
 8003aa8:	681b      	ldr	r3, [r3, #0]
 8003aaa:	f8b3 3040 	ldrh.w	r3, [r3, #64]	@ 0x40
 8003aae:	b29a      	uxth	r2, r3
 8003ab0:	687b      	ldr	r3, [r7, #4]
 8003ab2:	681b      	ldr	r3, [r3, #0]
 8003ab4:	f022 0208 	bic.w	r2, r2, #8
 8003ab8:	b292      	uxth	r2, r2
 8003aba:	f8a3 2040 	strh.w	r2, [r3, #64]	@ 0x40
 8003abe:	687b      	ldr	r3, [r7, #4]
 8003ac0:	f893 32c8 	ldrb.w	r3, [r3, #712]	@ 0x2c8
 8003ac4:	2b01      	cmp	r3, #1
 8003ac6:	d107      	bne.n	8003ad8 <HAL_PCD_IRQHandler+0xf4>
 8003ac8:	687b      	ldr	r3, [r7, #4]
 8003aca:	2200      	movs	r2, #0
 8003acc:	f883 22c8 	strb.w	r2, [r3, #712]	@ 0x2c8
 8003ad0:	2100      	movs	r1, #0
 8003ad2:	6878      	ldr	r0, [r7, #4]
 8003ad4:	f008 fc3a 	bl	800c34c <HAL_PCDEx_LPM_Callback>
 8003ad8:	6878      	ldr	r0, [r7, #4]
 8003ada:	f008 fa7d 	bl	800bfd8 <HAL_PCD_ResumeCallback>
 8003ade:	687b      	ldr	r3, [r7, #4]
 8003ae0:	681b      	ldr	r3, [r3, #0]
 8003ae2:	f8b3 3044 	ldrh.w	r3, [r3, #68]	@ 0x44
 8003ae6:	b29a      	uxth	r2, r3
 8003ae8:	687b      	ldr	r3, [r7, #4]
 8003aea:	681b      	ldr	r3, [r3, #0]
 8003aec:	f422 5280 	bic.w	r2, r2, #4096	@ 0x1000
 8003af0:	b292      	uxth	r2, r2
 8003af2:	f8a3 2044 	strh.w	r2, [r3, #68]	@ 0x44
 8003af6:	e099      	b.n	8003c2c <HAL_PCD_IRQHandler+0x248>
 8003af8:	68fb      	ldr	r3, [r7, #12]
 8003afa:	f403 6300 	and.w	r3, r3, #2048	@ 0x800
 8003afe:	2b00      	cmp	r3, #0
 8003b00:	d027      	beq.n	8003b52 <HAL_PCD_IRQHandler+0x16e>
 8003b02:	687b      	ldr	r3, [r7, #4]
 8003b04:	681b      	ldr	r3, [r3, #0]
 8003b06:	f8b3 3040 	ldrh.w	r3, [r3, #64]	@ 0x40
 8003b0a:	b29a      	uxth	r2, r3
 8003b0c:	687b      	ldr	r3, [r7, #4]
 8003b0e:	681b      	ldr	r3, [r3, #0]
 8003b10:	f042 0208 	orr.w	r2, r2, #8
 8003b14:	b292      	uxth	r2, r2
 8003b16:	f8a3 2040 	strh.w	r2, [r3, #64]	@ 0x40
 8003b1a:	687b      	ldr	r3, [r7, #4]
 8003b1c:	681b      	ldr	r3, [r3, #0]
 8003b1e:	f8b3 3044 	ldrh.w	r3, [r3, #68]	@ 0x44
 8003b22:	b29a      	uxth	r2, r3
 8003b24:	687b      	ldr	r3, [r7, #4]
 8003b26:	681b      	ldr	r3, [r3, #0]
 8003b28:	f422 6200 	bic.w	r2, r2, #2048	@ 0x800
 8003b2c:	b292      	uxth	r2, r2
 8003b2e:	f8a3 2044 	strh.w	r2, [r3, #68]	@ 0x44
 8003b32:	687b      	ldr	r3, [r7, #4]
 8003b34:	681b      	ldr	r3, [r3, #0]
 8003b36:	f8b3 3040 	ldrh.w	r3, [r3, #64]	@ 0x40
 8003b3a:	b29a      	uxth	r2, r3
 8003b3c:	687b      	ldr	r3, [r7, #4]
 8003b3e:	681b      	ldr	r3, [r3, #0]
 8003b40:	f042 0204 	orr.w	r2, r2, #4
 8003b44:	b292      	uxth	r2, r2
 8003b46:	f8a3 2040 	strh.w	r2, [r3, #64]	@ 0x40
 8003b4a:	6878      	ldr	r0, [r7, #4]
 8003b4c:	f008 fa2a 	bl	800bfa4 <HAL_PCD_SuspendCallback>
 8003b50:	e06c      	b.n	8003c2c <HAL_PCD_IRQHandler+0x248>
 8003b52:	68fb      	ldr	r3, [r7, #12]
 8003b54:	f003 0380 	and.w	r3, r3, #128	@ 0x80
 8003b58:	2b00      	cmp	r3, #0
 8003b5a:	d040      	beq.n	8003bde <HAL_PCD_IRQHandler+0x1fa>
 8003b5c:	687b      	ldr	r3, [r7, #4]
 8003b5e:	681b      	ldr	r3, [r3, #0]
 8003b60:	f8b3 3044 	ldrh.w	r3, [r3, #68]	@ 0x44
 8003b64:	b29a      	uxth	r2, r3
 8003b66:	687b      	ldr	r3, [r7, #4]
 8003b68:	681b      	ldr	r3, [r3, #0]
 8003b6a:	f022 0280 	bic.w	r2, r2, #128	@ 0x80
 8003b6e:	b292      	uxth	r2, r2
 8003b70:	f8a3 2044 	strh.w	r2, [r3, #68]	@ 0x44
 8003b74:	687b      	ldr	r3, [r7, #4]
 8003b76:	f893 32c8 	ldrb.w	r3, [r3, #712]	@ 0x2c8
 8003b7a:	2b00      	cmp	r3, #0
 8003b7c:	d12b      	bne.n	8003bd6 <HAL_PCD_IRQHandler+0x1f2>
 8003b7e:	687b      	ldr	r3, [r7, #4]
 8003b80:	681b      	ldr	r3, [r3, #0]
 8003b82:	f8b3 3040 	ldrh.w	r3, [r3, #64]	@ 0x40
 8003b86:	b29a      	uxth	r2, r3
 8003b88:	687b      	ldr	r3, [r7, #4]
 8003b8a:	681b      	ldr	r3, [r3, #0]
 8003b8c:	f042 0204 	orr.w	r2, r2, #4
 8003b90:	b292      	uxth	r2, r2
 8003b92:	f8a3 2040 	strh.w	r2, [r3, #64]	@ 0x40
 8003b96:	687b      	ldr	r3, [r7, #4]
 8003b98:	681b      	ldr	r3, [r3, #0]
 8003b9a:	f8b3 3040 	ldrh.w	r3, [r3, #64]	@ 0x40
 8003b9e:	b29a      	uxth	r2, r3
 8003ba0:	687b      	ldr	r3, [r7, #4]
 8003ba2:	681b      	ldr	r3, [r3, #0]
 8003ba4:	f042 0208 	orr.w	r2, r2, #8
 8003ba8:	b292      	uxth	r2, r2
 8003baa:	f8a3 2040 	strh.w	r2, [r3, #64]	@ 0x40
 8003bae:	687b      	ldr	r3, [r7, #4]
 8003bb0:	2201      	movs	r2, #1
 8003bb2:	f883 22c8 	strb.w	r2, [r3, #712]	@ 0x2c8
 8003bb6:	687b      	ldr	r3, [r7, #4]
 8003bb8:	681b      	ldr	r3, [r3, #0]
 8003bba:	f8b3 3054 	ldrh.w	r3, [r3, #84]	@ 0x54
 8003bbe:	b29b      	uxth	r3, r3
 8003bc0:	089b      	lsrs	r3, r3, #2
 8003bc2:	f003 023c 	and.w	r2, r3, #60	@ 0x3c
 8003bc6:	687b      	ldr	r3, [r7, #4]
 8003bc8:	f8c3 22cc 	str.w	r2, [r3, #716]	@ 0x2cc
 8003bcc:	2101      	movs	r1, #1
 8003bce:	6878      	ldr	r0, [r7, #4]
 8003bd0:	f008 fbbc 	bl	800c34c <HAL_PCDEx_LPM_Callback>
 8003bd4:	e02a      	b.n	8003c2c <HAL_PCD_IRQHandler+0x248>
 8003bd6:	6878      	ldr	r0, [r7, #4]
 8003bd8:	f008 f9e4 	bl	800bfa4 <HAL_PCD_SuspendCallback>
 8003bdc:	e026      	b.n	8003c2c <HAL_PCD_IRQHandler+0x248>
 8003bde:	68fb      	ldr	r3, [r7, #12]
 8003be0:	f403 7300 	and.w	r3, r3, #512	@ 0x200
 8003be4:	2b00      	cmp	r3, #0
 8003be6:	d00f      	beq.n	8003c08 <HAL_PCD_IRQHandler+0x224>
 8003be8:	687b      	ldr	r3, [r7, #4]
 8003bea:	681b      	ldr	r3, [r3, #0]
 8003bec:	f8b3 3044 	ldrh.w	r3, [r3, #68]	@ 0x44
 8003bf0:	b29a      	uxth	r2, r3
 8003bf2:	687b      	ldr	r3, [r7, #4]
 8003bf4:	681b      	ldr	r3, [r3, #0]
 8003bf6:	f422 7200 	bic.w	r2, r2, #512	@ 0x200
 8003bfa:	b292      	uxth	r2, r2
 8003bfc:	f8a3 2044 	strh.w	r2, [r3, #68]	@ 0x44
 8003c00:	6878      	ldr	r0, [r7, #4]
 8003c02:	f008 f9a2 	bl	800bf4a <HAL_PCD_SOFCallback>
 8003c06:	e011      	b.n	8003c2c <HAL_PCD_IRQHandler+0x248>
 8003c08:	68fb      	ldr	r3, [r7, #12]
 8003c0a:	f403 7380 	and.w	r3, r3, #256	@ 0x100
 8003c0e:	2b00      	cmp	r3, #0
 8003c10:	d00c      	beq.n	8003c2c <HAL_PCD_IRQHandler+0x248>
 8003c12:	687b      	ldr	r3, [r7, #4]
 8003c14:	681b      	ldr	r3, [r3, #0]
 8003c16:	f8b3 3044 	ldrh.w	r3, [r3, #68]	@ 0x44
 8003c1a:	b29a      	uxth	r2, r3
 8003c1c:	687b      	ldr	r3, [r7, #4]
 8003c1e:	681b      	ldr	r3, [r3, #0]
 8003c20:	f422 7280 	bic.w	r2, r2, #256	@ 0x100
 8003c24:	b292      	uxth	r2, r2
 8003c26:	f8a3 2044 	strh.w	r2, [r3, #68]	@ 0x44
 8003c2a:	bf00      	nop
 8003c2c:	3710      	adds	r7, #16
 8003c2e:	46bd      	mov	sp, r7
 8003c30:	bd80      	pop	{r7, pc}

08003c32 <HAL_PCD_SetAddress>:
 8003c32:	b580      	push	{r7, lr}
 8003c34:	b082      	sub	sp, #8
 8003c36:	af00      	add	r7, sp, #0
 8003c38:	6078      	str	r0, [r7, #4]
 8003c3a:	460b      	mov	r3, r1
 8003c3c:	70fb      	strb	r3, [r7, #3]
 8003c3e:	687b      	ldr	r3, [r7, #4]
 8003c40:	f893 3290 	ldrb.w	r3, [r3, #656]	@ 0x290
 8003c44:	2b01      	cmp	r3, #1
 8003c46:	d101      	bne.n	8003c4c <HAL_PCD_SetAddress+0x1a>
 8003c48:	2302      	movs	r3, #2
 8003c4a:	e012      	b.n	8003c72 <HAL_PCD_SetAddress+0x40>
 8003c4c:	687b      	ldr	r3, [r7, #4]
 8003c4e:	2201      	movs	r2, #1
 8003c50:	f883 2290 	strb.w	r2, [r3, #656]	@ 0x290
 8003c54:	687b      	ldr	r3, [r7, #4]
 8003c56:	78fa      	ldrb	r2, [r7, #3]
 8003c58:	731a      	strb	r2, [r3, #12]
 8003c5a:	687b      	ldr	r3, [r7, #4]
 8003c5c:	681b      	ldr	r3, [r3, #0]
 8003c5e:	78fa      	ldrb	r2, [r7, #3]
 8003c60:	4611      	mov	r1, r2
 8003c62:	4618      	mov	r0, r3
 8003c64:	f006 fa18 	bl	800a098 <USB_SetDevAddress>
 8003c68:	687b      	ldr	r3, [r7, #4]
 8003c6a:	2200      	movs	r2, #0
 8003c6c:	f883 2290 	strb.w	r2, [r3, #656]	@ 0x290
 8003c70:	2300      	movs	r3, #0
 8003c72:	4618      	mov	r0, r3
 8003c74:	3708      	adds	r7, #8
 8003c76:	46bd      	mov	sp, r7
 8003c78:	bd80      	pop	{r7, pc}

08003c7a <HAL_PCD_EP_Open>:
 8003c7a:	b580      	push	{r7, lr}
 8003c7c:	b084      	sub	sp, #16
 8003c7e:	af00      	add	r7, sp, #0
 8003c80:	6078      	str	r0, [r7, #4]
 8003c82:	4608      	mov	r0, r1
 8003c84:	4611      	mov	r1, r2
 8003c86:	461a      	mov	r2, r3
 8003c88:	4603      	mov	r3, r0
 8003c8a:	70fb      	strb	r3, [r7, #3]
 8003c8c:	460b      	mov	r3, r1
 8003c8e:	803b      	strh	r3, [r7, #0]
 8003c90:	4613      	mov	r3, r2
 8003c92:	70bb      	strb	r3, [r7, #2]
 8003c94:	2300      	movs	r3, #0
 8003c96:	72fb      	strb	r3, [r7, #11]
 8003c98:	f997 3003 	ldrsb.w	r3, [r7, #3]
 8003c9c:	2b00      	cmp	r3, #0
 8003c9e:	da0e      	bge.n	8003cbe <HAL_PCD_EP_Open+0x44>
 8003ca0:	78fb      	ldrb	r3, [r7, #3]
 8003ca2:	f003 0207 	and.w	r2, r3, #7
 8003ca6:	4613      	mov	r3, r2
 8003ca8:	009b      	lsls	r3, r3, #2
 8003caa:	4413      	add	r3, r2
 8003cac:	00db      	lsls	r3, r3, #3
 8003cae:	3310      	adds	r3, #16
 8003cb0:	687a      	ldr	r2, [r7, #4]
 8003cb2:	4413      	add	r3, r2
 8003cb4:	60fb      	str	r3, [r7, #12]
 8003cb6:	68fb      	ldr	r3, [r7, #12]
 8003cb8:	2201      	movs	r2, #1
 8003cba:	705a      	strb	r2, [r3, #1]
 8003cbc:	e00e      	b.n	8003cdc <HAL_PCD_EP_Open+0x62>
 8003cbe:	78fb      	ldrb	r3, [r7, #3]
 8003cc0:	f003 0207 	and.w	r2, r3, #7
 8003cc4:	4613      	mov	r3, r2
 8003cc6:	009b      	lsls	r3, r3, #2
 8003cc8:	4413      	add	r3, r2
 8003cca:	00db      	lsls	r3, r3, #3
 8003ccc:	f503 73a8 	add.w	r3, r3, #336	@ 0x150
 8003cd0:	687a      	ldr	r2, [r7, #4]
 8003cd2:	4413      	add	r3, r2
 8003cd4:	60fb      	str	r3, [r7, #12]
 8003cd6:	68fb      	ldr	r3, [r7, #12]
 8003cd8:	2200      	movs	r2, #0
 8003cda:	705a      	strb	r2, [r3, #1]
 8003cdc:	78fb      	ldrb	r3, [r7, #3]
 8003cde:	f003 0307 	and.w	r3, r3, #7
 8003ce2:	b2da      	uxtb	r2, r3
 8003ce4:	68fb      	ldr	r3, [r7, #12]
 8003ce6:	701a      	strb	r2, [r3, #0]
 8003ce8:	883b      	ldrh	r3, [r7, #0]
 8003cea:	f3c3 020a 	ubfx	r2, r3, #0, #11
 8003cee:	68fb      	ldr	r3, [r7, #12]
 8003cf0:	611a      	str	r2, [r3, #16]
 8003cf2:	68fb      	ldr	r3, [r7, #12]
 8003cf4:	78ba      	ldrb	r2, [r7, #2]
 8003cf6:	70da      	strb	r2, [r3, #3]
 8003cf8:	78bb      	ldrb	r3, [r7, #2]
 8003cfa:	2b02      	cmp	r3, #2
 8003cfc:	d102      	bne.n	8003d04 <HAL_PCD_EP_Open+0x8a>
 8003cfe:	68fb      	ldr	r3, [r7, #12]
 8003d00:	2200      	movs	r2, #0
 8003d02:	711a      	strb	r2, [r3, #4]
 8003d04:	687b      	ldr	r3, [r7, #4]
 8003d06:	f893 3290 	ldrb.w	r3, [r3, #656]	@ 0x290
 8003d0a:	2b01      	cmp	r3, #1
 8003d0c:	d101      	bne.n	8003d12 <HAL_PCD_EP_Open+0x98>
 8003d0e:	2302      	movs	r3, #2
 8003d10:	e00e      	b.n	8003d30 <HAL_PCD_EP_Open+0xb6>
 8003d12:	687b      	ldr	r3, [r7, #4]
 8003d14:	2201      	movs	r2, #1
 8003d16:	f883 2290 	strb.w	r2, [r3, #656]	@ 0x290
 8003d1a:	687b      	ldr	r3, [r7, #4]
 8003d1c:	681b      	ldr	r3, [r3, #0]
 8003d1e:	68f9      	ldr	r1, [r7, #12]
 8003d20:	4618      	mov	r0, r3
 8003d22:	f004 fc3b 	bl	800859c <USB_ActivateEndpoint>
 8003d26:	687b      	ldr	r3, [r7, #4]
 8003d28:	2200      	movs	r2, #0
 8003d2a:	f883 2290 	strb.w	r2, [r3, #656]	@ 0x290
 8003d2e:	7afb      	ldrb	r3, [r7, #11]
 8003d30:	4618      	mov	r0, r3
 8003d32:	3710      	adds	r7, #16
 8003d34:	46bd      	mov	sp, r7
 8003d36:	bd80      	pop	{r7, pc}

08003d38 <HAL_PCD_EP_Close>:
 8003d38:	b580      	push	{r7, lr}
 8003d3a:	b084      	sub	sp, #16
 8003d3c:	af00      	add	r7, sp, #0
 8003d3e:	6078      	str	r0, [r7, #4]
 8003d40:	460b      	mov	r3, r1
 8003d42:	70fb      	strb	r3, [r7, #3]
 8003d44:	f997 3003 	ldrsb.w	r3, [r7, #3]
 8003d48:	2b00      	cmp	r3, #0
 8003d4a:	da0e      	bge.n	8003d6a <HAL_PCD_EP_Close+0x32>
 8003d4c:	78fb      	ldrb	r3, [r7, #3]
 8003d4e:	f003 0207 	and.w	r2, r3, #7
 8003d52:	4613      	mov	r3, r2
 8003d54:	009b      	lsls	r3, r3, #2
 8003d56:	4413      	add	r3, r2
 8003d58:	00db      	lsls	r3, r3, #3
 8003d5a:	3310      	adds	r3, #16
 8003d5c:	687a      	ldr	r2, [r7, #4]
 8003d5e:	4413      	add	r3, r2
 8003d60:	60fb      	str	r3, [r7, #12]
 8003d62:	68fb      	ldr	r3, [r7, #12]
 8003d64:	2201      	movs	r2, #1
 8003d66:	705a      	strb	r2, [r3, #1]
 8003d68:	e00e      	b.n	8003d88 <HAL_PCD_EP_Close+0x50>
 8003d6a:	78fb      	ldrb	r3, [r7, #3]
 8003d6c:	f003 0207 	and.w	r2, r3, #7
 8003d70:	4613      	mov	r3, r2
 8003d72:	009b      	lsls	r3, r3, #2
 8003d74:	4413      	add	r3, r2
 8003d76:	00db      	lsls	r3, r3, #3
 8003d78:	f503 73a8 	add.w	r3, r3, #336	@ 0x150
 8003d7c:	687a      	ldr	r2, [r7, #4]
 8003d7e:	4413      	add	r3, r2
 8003d80:	60fb      	str	r3, [r7, #12]
 8003d82:	68fb      	ldr	r3, [r7, #12]
 8003d84:	2200      	movs	r2, #0
 8003d86:	705a      	strb	r2, [r3, #1]
 8003d88:	78fb      	ldrb	r3, [r7, #3]
 8003d8a:	f003 0307 	and.w	r3, r3, #7
 8003d8e:	b2da      	uxtb	r2, r3
 8003d90:	68fb      	ldr	r3, [r7, #12]
 8003d92:	701a      	strb	r2, [r3, #0]
 8003d94:	687b      	ldr	r3, [r7, #4]
 8003d96:	f893 3290 	ldrb.w	r3, [r3, #656]	@ 0x290
 8003d9a:	2b01      	cmp	r3, #1
 8003d9c:	d101      	bne.n	8003da2 <HAL_PCD_EP_Close+0x6a>
 8003d9e:	2302      	movs	r3, #2
 8003da0:	e00e      	b.n	8003dc0 <HAL_PCD_EP_Close+0x88>
 8003da2:	687b      	ldr	r3, [r7, #4]
 8003da4:	2201      	movs	r2, #1
 8003da6:	f883 2290 	strb.w	r2, [r3, #656]	@ 0x290
 8003daa:	687b      	ldr	r3, [r7, #4]
 8003dac:	681b      	ldr	r3, [r3, #0]
 8003dae:	68f9      	ldr	r1, [r7, #12]
 8003db0:	4618      	mov	r0, r3
 8003db2:	f005 f8db 	bl	8008f6c <USB_DeactivateEndpoint>
 8003db6:	687b      	ldr	r3, [r7, #4]
 8003db8:	2200      	movs	r2, #0
 8003dba:	f883 2290 	strb.w	r2, [r3, #656]	@ 0x290
 8003dbe:	2300      	movs	r3, #0
 8003dc0:	4618      	mov	r0, r3
 8003dc2:	3710      	adds	r7, #16
 8003dc4:	46bd      	mov	sp, r7
 8003dc6:	bd80      	pop	{r7, pc}

08003dc8 <HAL_PCD_EP_Receive>:
 8003dc8:	b580      	push	{r7, lr}
 8003dca:	b086      	sub	sp, #24
 8003dcc:	af00      	add	r7, sp, #0
 8003dce:	60f8      	str	r0, [r7, #12]
 8003dd0:	607a      	str	r2, [r7, #4]
 8003dd2:	603b      	str	r3, [r7, #0]
 8003dd4:	460b      	mov	r3, r1
 8003dd6:	72fb      	strb	r3, [r7, #11]
 8003dd8:	7afb      	ldrb	r3, [r7, #11]
 8003dda:	f003 0207 	and.w	r2, r3, #7
 8003dde:	4613      	mov	r3, r2
 8003de0:	009b      	lsls	r3, r3, #2
 8003de2:	4413      	add	r3, r2
 8003de4:	00db      	lsls	r3, r3, #3
 8003de6:	f503 73a8 	add.w	r3, r3, #336	@ 0x150
 8003dea:	68fa      	ldr	r2, [r7, #12]
 8003dec:	4413      	add	r3, r2
 8003dee:	617b      	str	r3, [r7, #20]
 8003df0:	697b      	ldr	r3, [r7, #20]
 8003df2:	687a      	ldr	r2, [r7, #4]
 8003df4:	615a      	str	r2, [r3, #20]
 8003df6:	697b      	ldr	r3, [r7, #20]
 8003df8:	683a      	ldr	r2, [r7, #0]
 8003dfa:	619a      	str	r2, [r3, #24]
 8003dfc:	697b      	ldr	r3, [r7, #20]
 8003dfe:	2200      	movs	r2, #0
 8003e00:	61da      	str	r2, [r3, #28]
 8003e02:	697b      	ldr	r3, [r7, #20]
 8003e04:	2200      	movs	r2, #0
 8003e06:	705a      	strb	r2, [r3, #1]
 8003e08:	7afb      	ldrb	r3, [r7, #11]
 8003e0a:	f003 0307 	and.w	r3, r3, #7
 8003e0e:	b2da      	uxtb	r2, r3
 8003e10:	697b      	ldr	r3, [r7, #20]
 8003e12:	701a      	strb	r2, [r3, #0]
 8003e14:	68fb      	ldr	r3, [r7, #12]
 8003e16:	681b      	ldr	r3, [r3, #0]
 8003e18:	6979      	ldr	r1, [r7, #20]
 8003e1a:	4618      	mov	r0, r3
 8003e1c:	f005 fa93 	bl	8009346 <USB_EPStartXfer>
 8003e20:	2300      	movs	r3, #0
 8003e22:	4618      	mov	r0, r3
 8003e24:	3718      	adds	r7, #24
 8003e26:	46bd      	mov	sp, r7
 8003e28:	bd80      	pop	{r7, pc}

08003e2a <HAL_PCD_EP_GetRxCount>:
 8003e2a:	b480      	push	{r7}
 8003e2c:	b083      	sub	sp, #12
 8003e2e:	af00      	add	r7, sp, #0
 8003e30:	6078      	str	r0, [r7, #4]
 8003e32:	460b      	mov	r3, r1
 8003e34:	70fb      	strb	r3, [r7, #3]
 8003e36:	78fb      	ldrb	r3, [r7, #3]
 8003e38:	f003 0207 	and.w	r2, r3, #7
 8003e3c:	6879      	ldr	r1, [r7, #4]
 8003e3e:	4613      	mov	r3, r2
 8003e40:	009b      	lsls	r3, r3, #2
 8003e42:	4413      	add	r3, r2
 8003e44:	00db      	lsls	r3, r3, #3
 8003e46:	440b      	add	r3, r1
 8003e48:	f503 73b6 	add.w	r3, r3, #364	@ 0x16c
 8003e4c:	681b      	ldr	r3, [r3, #0]
 8003e4e:	4618      	mov	r0, r3
 8003e50:	370c      	adds	r7, #12
 8003e52:	46bd      	mov	sp, r7
 8003e54:	f85d 7b04 	ldr.w	r7, [sp], #4
 8003e58:	4770      	bx	lr

08003e5a <HAL_PCD_EP_Transmit>:
 8003e5a:	b580      	push	{r7, lr}
 8003e5c:	b086      	sub	sp, #24
 8003e5e:	af00      	add	r7, sp, #0
 8003e60:	60f8      	str	r0, [r7, #12]
 8003e62:	607a      	str	r2, [r7, #4]
 8003e64:	603b      	str	r3, [r7, #0]
 8003e66:	460b      	mov	r3, r1
 8003e68:	72fb      	strb	r3, [r7, #11]
 8003e6a:	7afb      	ldrb	r3, [r7, #11]
 8003e6c:	f003 0207 	and.w	r2, r3, #7
 8003e70:	4613      	mov	r3, r2
 8003e72:	009b      	lsls	r3, r3, #2
 8003e74:	4413      	add	r3, r2
 8003e76:	00db      	lsls	r3, r3, #3
 8003e78:	3310      	adds	r3, #16
 8003e7a:	68fa      	ldr	r2, [r7, #12]
 8003e7c:	4413      	add	r3, r2
 8003e7e:	617b      	str	r3, [r7, #20]
 8003e80:	697b      	ldr	r3, [r7, #20]
 8003e82:	687a      	ldr	r2, [r7, #4]
 8003e84:	615a      	str	r2, [r3, #20]
 8003e86:	697b      	ldr	r3, [r7, #20]
 8003e88:	683a      	ldr	r2, [r7, #0]
 8003e8a:	619a      	str	r2, [r3, #24]
 8003e8c:	697b      	ldr	r3, [r7, #20]
 8003e8e:	2201      	movs	r2, #1
 8003e90:	f883 2024 	strb.w	r2, [r3, #36]	@ 0x24
 8003e94:	697b      	ldr	r3, [r7, #20]
 8003e96:	683a      	ldr	r2, [r7, #0]
 8003e98:	621a      	str	r2, [r3, #32]
 8003e9a:	697b      	ldr	r3, [r7, #20]
 8003e9c:	2200      	movs	r2, #0
 8003e9e:	61da      	str	r2, [r3, #28]
 8003ea0:	697b      	ldr	r3, [r7, #20]
 8003ea2:	2201      	movs	r2, #1
 8003ea4:	705a      	strb	r2, [r3, #1]
 8003ea6:	7afb      	ldrb	r3, [r7, #11]
 8003ea8:	f003 0307 	and.w	r3, r3, #7
 8003eac:	b2da      	uxtb	r2, r3
 8003eae:	697b      	ldr	r3, [r7, #20]
 8003eb0:	701a      	strb	r2, [r3, #0]
 8003eb2:	68fb      	ldr	r3, [r7, #12]
 8003eb4:	681b      	ldr	r3, [r3, #0]
 8003eb6:	6979      	ldr	r1, [r7, #20]
 8003eb8:	4618      	mov	r0, r3
 8003eba:	f005 fa44 	bl	8009346 <USB_EPStartXfer>
 8003ebe:	2300      	movs	r3, #0
 8003ec0:	4618      	mov	r0, r3
 8003ec2:	3718      	adds	r7, #24
 8003ec4:	46bd      	mov	sp, r7
 8003ec6:	bd80      	pop	{r7, pc}

08003ec8 <HAL_PCD_EP_SetStall>:
 8003ec8:	b580      	push	{r7, lr}
 8003eca:	b084      	sub	sp, #16
 8003ecc:	af00      	add	r7, sp, #0
 8003ece:	6078      	str	r0, [r7, #4]
 8003ed0:	460b      	mov	r3, r1
 8003ed2:	70fb      	strb	r3, [r7, #3]
 8003ed4:	78fb      	ldrb	r3, [r7, #3]
 8003ed6:	f003 0307 	and.w	r3, r3, #7
 8003eda:	687a      	ldr	r2, [r7, #4]
 8003edc:	7912      	ldrb	r2, [r2, #4]
 8003ede:	4293      	cmp	r3, r2
 8003ee0:	d901      	bls.n	8003ee6 <HAL_PCD_EP_SetStall+0x1e>
 8003ee2:	2301      	movs	r3, #1
 8003ee4:	e03e      	b.n	8003f64 <HAL_PCD_EP_SetStall+0x9c>
 8003ee6:	f997 3003 	ldrsb.w	r3, [r7, #3]
 8003eea:	2b00      	cmp	r3, #0
 8003eec:	da0e      	bge.n	8003f0c <HAL_PCD_EP_SetStall+0x44>
 8003eee:	78fb      	ldrb	r3, [r7, #3]
 8003ef0:	f003 0207 	and.w	r2, r3, #7
 8003ef4:	4613      	mov	r3, r2
 8003ef6:	009b      	lsls	r3, r3, #2
 8003ef8:	4413      	add	r3, r2
 8003efa:	00db      	lsls	r3, r3, #3
 8003efc:	3310      	adds	r3, #16
 8003efe:	687a      	ldr	r2, [r7, #4]
 8003f00:	4413      	add	r3, r2
 8003f02:	60fb      	str	r3, [r7, #12]
 8003f04:	68fb      	ldr	r3, [r7, #12]
 8003f06:	2201      	movs	r2, #1
 8003f08:	705a      	strb	r2, [r3, #1]
 8003f0a:	e00c      	b.n	8003f26 <HAL_PCD_EP_SetStall+0x5e>
 8003f0c:	78fa      	ldrb	r2, [r7, #3]
 8003f0e:	4613      	mov	r3, r2
 8003f10:	009b      	lsls	r3, r3, #2
 8003f12:	4413      	add	r3, r2
 8003f14:	00db      	lsls	r3, r3, #3
 8003f16:	f503 73a8 	add.w	r3, r3, #336	@ 0x150
 8003f1a:	687a      	ldr	r2, [r7, #4]
 8003f1c:	4413      	add	r3, r2
 8003f1e:	60fb      	str	r3, [r7, #12]
 8003f20:	68fb      	ldr	r3, [r7, #12]
 8003f22:	2200      	movs	r2, #0
 8003f24:	705a      	strb	r2, [r3, #1]
 8003f26:	68fb      	ldr	r3, [r7, #12]
 8003f28:	2201      	movs	r2, #1
 8003f2a:	709a      	strb	r2, [r3, #2]
 8003f2c:	78fb      	ldrb	r3, [r7, #3]
 8003f2e:	f003 0307 	and.w	r3, r3, #7
 8003f32:	b2da      	uxtb	r2, r3
 8003f34:	68fb      	ldr	r3, [r7, #12]
 8003f36:	701a      	strb	r2, [r3, #0]
 8003f38:	687b      	ldr	r3, [r7, #4]
 8003f3a:	f893 3290 	ldrb.w	r3, [r3, #656]	@ 0x290
 8003f3e:	2b01      	cmp	r3, #1
 8003f40:	d101      	bne.n	8003f46 <HAL_PCD_EP_SetStall+0x7e>
 8003f42:	2302      	movs	r3, #2
 8003f44:	e00e      	b.n	8003f64 <HAL_PCD_EP_SetStall+0x9c>
 8003f46:	687b      	ldr	r3, [r7, #4]
 8003f48:	2201      	movs	r2, #1
 8003f4a:	f883 2290 	strb.w	r2, [r3, #656]	@ 0x290
 8003f4e:	687b      	ldr	r3, [r7, #4]
 8003f50:	681b      	ldr	r3, [r3, #0]
 8003f52:	68f9      	ldr	r1, [r7, #12]
 8003f54:	4618      	mov	r0, r3
 8003f56:	f005 ffa5 	bl	8009ea4 <USB_EPSetStall>
 8003f5a:	687b      	ldr	r3, [r7, #4]
 8003f5c:	2200      	movs	r2, #0
 8003f5e:	f883 2290 	strb.w	r2, [r3, #656]	@ 0x290
 8003f62:	2300      	movs	r3, #0
 8003f64:	4618      	mov	r0, r3
 8003f66:	3710      	adds	r7, #16
 8003f68:	46bd      	mov	sp, r7
 8003f6a:	bd80      	pop	{r7, pc}

08003f6c <HAL_PCD_EP_ClrStall>:
 8003f6c:	b580      	push	{r7, lr}
 8003f6e:	b084      	sub	sp, #16
 8003f70:	af00      	add	r7, sp, #0
 8003f72:	6078      	str	r0, [r7, #4]
 8003f74:	460b      	mov	r3, r1
 8003f76:	70fb      	strb	r3, [r7, #3]
 8003f78:	78fb      	ldrb	r3, [r7, #3]
 8003f7a:	f003 030f 	and.w	r3, r3, #15
 8003f7e:	687a      	ldr	r2, [r7, #4]
 8003f80:	7912      	ldrb	r2, [r2, #4]
 8003f82:	4293      	cmp	r3, r2
 8003f84:	d901      	bls.n	8003f8a <HAL_PCD_EP_ClrStall+0x1e>
 8003f86:	2301      	movs	r3, #1
 8003f88:	e040      	b.n	800400c <HAL_PCD_EP_ClrStall+0xa0>
 8003f8a:	f997 3003 	ldrsb.w	r3, [r7, #3]
 8003f8e:	2b00      	cmp	r3, #0
 8003f90:	da0e      	bge.n	8003fb0 <HAL_PCD_EP_ClrStall+0x44>
 8003f92:	78fb      	ldrb	r3, [r7, #3]
 8003f94:	f003 0207 	and.w	r2, r3, #7
 8003f98:	4613      	mov	r3, r2
 8003f9a:	009b      	lsls	r3, r3, #2
 8003f9c:	4413      	add	r3, r2
 8003f9e:	00db      	lsls	r3, r3, #3
 8003fa0:	3310      	adds	r3, #16
 8003fa2:	687a      	ldr	r2, [r7, #4]
 8003fa4:	4413      	add	r3, r2
 8003fa6:	60fb      	str	r3, [r7, #12]
 8003fa8:	68fb      	ldr	r3, [r7, #12]
 8003faa:	2201      	movs	r2, #1
 8003fac:	705a      	strb	r2, [r3, #1]
 8003fae:	e00e      	b.n	8003fce <HAL_PCD_EP_ClrStall+0x62>
 8003fb0:	78fb      	ldrb	r3, [r7, #3]
 8003fb2:	f003 0207 	and.w	r2, r3, #7
 8003fb6:	4613      	mov	r3, r2
 8003fb8:	009b      	lsls	r3, r3, #2
 8003fba:	4413      	add	r3, r2
 8003fbc:	00db      	lsls	r3, r3, #3
 8003fbe:	f503 73a8 	add.w	r3, r3, #336	@ 0x150
 8003fc2:	687a      	ldr	r2, [r7, #4]
 8003fc4:	4413      	add	r3, r2
 8003fc6:	60fb      	str	r3, [r7, #12]
 8003fc8:	68fb      	ldr	r3, [r7, #12]
 8003fca:	2200      	movs	r2, #0
 8003fcc:	705a      	strb	r2, [r3, #1]
 8003fce:	68fb      	ldr	r3, [r7, #12]
 8003fd0:	2200      	movs	r2, #0
 8003fd2:	709a      	strb	r2, [r3, #2]
 8003fd4:	78fb      	ldrb	r3, [r7, #3]
 8003fd6:	f003 0307 	and.w	r3, r3, #7
 8003fda:	b2da      	uxtb	r2, r3
 8003fdc:	68fb      	ldr	r3, [r7, #12]
 8003fde:	701a      	strb	r2, [r3, #0]
 8003fe0:	687b      	ldr	r3, [r7, #4]
 8003fe2:	f893 3290 	ldrb.w	r3, [r3, #656]	@ 0x290
 8003fe6:	2b01      	cmp	r3, #1
 8003fe8:	d101      	bne.n	8003fee <HAL_PCD_EP_ClrStall+0x82>
 8003fea:	2302      	movs	r3, #2
 8003fec:	e00e      	b.n	800400c <HAL_PCD_EP_ClrStall+0xa0>
 8003fee:	687b      	ldr	r3, [r7, #4]
 8003ff0:	2201      	movs	r2, #1
 8003ff2:	f883 2290 	strb.w	r2, [r3, #656]	@ 0x290
 8003ff6:	687b      	ldr	r3, [r7, #4]
 8003ff8:	681b      	ldr	r3, [r3, #0]
 8003ffa:	68f9      	ldr	r1, [r7, #12]
 8003ffc:	4618      	mov	r0, r3
 8003ffe:	f005 ffa2 	bl	8009f46 <USB_EPClearStall>
 8004002:	687b      	ldr	r3, [r7, #4]
 8004004:	2200      	movs	r2, #0
 8004006:	f883 2290 	strb.w	r2, [r3, #656]	@ 0x290
 800400a:	2300      	movs	r3, #0
 800400c:	4618      	mov	r0, r3
 800400e:	3710      	adds	r7, #16
 8004010:	46bd      	mov	sp, r7
 8004012:	bd80      	pop	{r7, pc}

08004014 <PCD_EP_ISR_Handler>:
 8004014:	b580      	push	{r7, lr}
 8004016:	b092      	sub	sp, #72	@ 0x48
 8004018:	af00      	add	r7, sp, #0
 800401a:	6078      	str	r0, [r7, #4]
 800401c:	e333      	b.n	8004686 <PCD_EP_ISR_Handler+0x672>
 800401e:	687b      	ldr	r3, [r7, #4]
 8004020:	681b      	ldr	r3, [r3, #0]
 8004022:	f8b3 3044 	ldrh.w	r3, [r3, #68]	@ 0x44
 8004026:	877b      	strh	r3, [r7, #58]	@ 0x3a
 8004028:	8f7b      	ldrh	r3, [r7, #58]	@ 0x3a
 800402a:	b2db      	uxtb	r3, r3
 800402c:	f003 030f 	and.w	r3, r3, #15
 8004030:	f887 3039 	strb.w	r3, [r7, #57]	@ 0x39
 8004034:	f897 3039 	ldrb.w	r3, [r7, #57]	@ 0x39
 8004038:	2b00      	cmp	r3, #0
 800403a:	f040 8108 	bne.w	800424e <PCD_EP_ISR_Handler+0x23a>
 800403e:	8f7b      	ldrh	r3, [r7, #58]	@ 0x3a
 8004040:	f003 0310 	and.w	r3, r3, #16
 8004044:	2b00      	cmp	r3, #0
 8004046:	d14c      	bne.n	80040e2 <PCD_EP_ISR_Handler+0xce>
 8004048:	687b      	ldr	r3, [r7, #4]
 800404a:	681b      	ldr	r3, [r3, #0]
 800404c:	881b      	ldrh	r3, [r3, #0]
 800404e:	b29b      	uxth	r3, r3
 8004050:	f423 43e1 	bic.w	r3, r3, #28800	@ 0x7080
 8004054:	f023 0370 	bic.w	r3, r3, #112	@ 0x70
 8004058:	813b      	strh	r3, [r7, #8]
 800405a:	687b      	ldr	r3, [r7, #4]
 800405c:	681a      	ldr	r2, [r3, #0]
 800405e:	893b      	ldrh	r3, [r7, #8]
 8004060:	ea6f 4343 	mvn.w	r3, r3, lsl #17
 8004064:	ea6f 4353 	mvn.w	r3, r3, lsr #17
 8004068:	b29b      	uxth	r3, r3
 800406a:	8013      	strh	r3, [r2, #0]
 800406c:	687b      	ldr	r3, [r7, #4]
 800406e:	3310      	adds	r3, #16
 8004070:	643b      	str	r3, [r7, #64]	@ 0x40
 8004072:	687b      	ldr	r3, [r7, #4]
 8004074:	681b      	ldr	r3, [r3, #0]
 8004076:	f8b3 3050 	ldrh.w	r3, [r3, #80]	@ 0x50
 800407a:	b29b      	uxth	r3, r3
 800407c:	461a      	mov	r2, r3
 800407e:	6c3b      	ldr	r3, [r7, #64]	@ 0x40
 8004080:	781b      	ldrb	r3, [r3, #0]
 8004082:	00db      	lsls	r3, r3, #3
 8004084:	4413      	add	r3, r2
 8004086:	687a      	ldr	r2, [r7, #4]
 8004088:	6812      	ldr	r2, [r2, #0]
 800408a:	4413      	add	r3, r2
 800408c:	f203 4302 	addw	r3, r3, #1026	@ 0x402
 8004090:	881b      	ldrh	r3, [r3, #0]
 8004092:	f3c3 0209 	ubfx	r2, r3, #0, #10
 8004096:	6c3b      	ldr	r3, [r7, #64]	@ 0x40
 8004098:	61da      	str	r2, [r3, #28]
 800409a:	6c3b      	ldr	r3, [r7, #64]	@ 0x40
 800409c:	695a      	ldr	r2, [r3, #20]
 800409e:	6c3b      	ldr	r3, [r7, #64]	@ 0x40
 80040a0:	69db      	ldr	r3, [r3, #28]
 80040a2:	441a      	add	r2, r3
 80040a4:	6c3b      	ldr	r3, [r7, #64]	@ 0x40
 80040a6:	615a      	str	r2, [r3, #20]
 80040a8:	2100      	movs	r1, #0
 80040aa:	6878      	ldr	r0, [r7, #4]
 80040ac:	f007 ff33 	bl	800bf16 <HAL_PCD_DataInStageCallback>
 80040b0:	687b      	ldr	r3, [r7, #4]
 80040b2:	7b1b      	ldrb	r3, [r3, #12]
 80040b4:	b2db      	uxtb	r3, r3
 80040b6:	2b00      	cmp	r3, #0
 80040b8:	f000 82e5 	beq.w	8004686 <PCD_EP_ISR_Handler+0x672>
 80040bc:	6c3b      	ldr	r3, [r7, #64]	@ 0x40
 80040be:	699b      	ldr	r3, [r3, #24]
 80040c0:	2b00      	cmp	r3, #0
 80040c2:	f040 82e0 	bne.w	8004686 <PCD_EP_ISR_Handler+0x672>
 80040c6:	687b      	ldr	r3, [r7, #4]
 80040c8:	7b1b      	ldrb	r3, [r3, #12]
 80040ca:	b2db      	uxtb	r3, r3
 80040cc:	f063 037f 	orn	r3, r3, #127	@ 0x7f
 80040d0:	b2da      	uxtb	r2, r3
 80040d2:	687b      	ldr	r3, [r7, #4]
 80040d4:	681b      	ldr	r3, [r3, #0]
 80040d6:	f8a3 204c 	strh.w	r2, [r3, #76]	@ 0x4c
 80040da:	687b      	ldr	r3, [r7, #4]
 80040dc:	2200      	movs	r2, #0
 80040de:	731a      	strb	r2, [r3, #12]
 80040e0:	e2d1      	b.n	8004686 <PCD_EP_ISR_Handler+0x672>
 80040e2:	687b      	ldr	r3, [r7, #4]
 80040e4:	f503 73a8 	add.w	r3, r3, #336	@ 0x150
 80040e8:	643b      	str	r3, [r7, #64]	@ 0x40
 80040ea:	687b      	ldr	r3, [r7, #4]
 80040ec:	681b      	ldr	r3, [r3, #0]
 80040ee:	881b      	ldrh	r3, [r3, #0]
 80040f0:	86fb      	strh	r3, [r7, #54]	@ 0x36
 80040f2:	8efb      	ldrh	r3, [r7, #54]	@ 0x36
 80040f4:	f403 6300 	and.w	r3, r3, #2048	@ 0x800
 80040f8:	2b00      	cmp	r3, #0
 80040fa:	d032      	beq.n	8004162 <PCD_EP_ISR_Handler+0x14e>
 80040fc:	687b      	ldr	r3, [r7, #4]
 80040fe:	681b      	ldr	r3, [r3, #0]
 8004100:	f8b3 3050 	ldrh.w	r3, [r3, #80]	@ 0x50
 8004104:	b29b      	uxth	r3, r3
 8004106:	461a      	mov	r2, r3
 8004108:	6c3b      	ldr	r3, [r7, #64]	@ 0x40
 800410a:	781b      	ldrb	r3, [r3, #0]
 800410c:	00db      	lsls	r3, r3, #3
 800410e:	4413      	add	r3, r2
 8004110:	687a      	ldr	r2, [r7, #4]
 8004112:	6812      	ldr	r2, [r2, #0]
 8004114:	4413      	add	r3, r2
 8004116:	f203 4306 	addw	r3, r3, #1030	@ 0x406
 800411a:	881b      	ldrh	r3, [r3, #0]
 800411c:	f3c3 0209 	ubfx	r2, r3, #0, #10
 8004120:	6c3b      	ldr	r3, [r7, #64]	@ 0x40
 8004122:	61da      	str	r2, [r3, #28]
 8004124:	687b      	ldr	r3, [r7, #4]
 8004126:	6818      	ldr	r0, [r3, #0]
 8004128:	687b      	ldr	r3, [r7, #4]
 800412a:	f503 7126 	add.w	r1, r3, #664	@ 0x298
 800412e:	6c3b      	ldr	r3, [r7, #64]	@ 0x40
 8004130:	88da      	ldrh	r2, [r3, #6]
 8004132:	6c3b      	ldr	r3, [r7, #64]	@ 0x40
 8004134:	69db      	ldr	r3, [r3, #28]
 8004136:	b29b      	uxth	r3, r3
 8004138:	f006 f82c 	bl	800a194 <USB_ReadPMA>
 800413c:	687b      	ldr	r3, [r7, #4]
 800413e:	681b      	ldr	r3, [r3, #0]
 8004140:	881b      	ldrh	r3, [r3, #0]
 8004142:	b29a      	uxth	r2, r3
 8004144:	f640 738f 	movw	r3, #3983	@ 0xf8f
 8004148:	4013      	ands	r3, r2
 800414a:	817b      	strh	r3, [r7, #10]
 800414c:	687b      	ldr	r3, [r7, #4]
 800414e:	681b      	ldr	r3, [r3, #0]
 8004150:	897a      	ldrh	r2, [r7, #10]
 8004152:	f042 0280 	orr.w	r2, r2, #128	@ 0x80
 8004156:	b292      	uxth	r2, r2
 8004158:	801a      	strh	r2, [r3, #0]
 800415a:	6878      	ldr	r0, [r7, #4]
 800415c:	f007 feae 	bl	800bebc <HAL_PCD_SetupStageCallback>
 8004160:	e291      	b.n	8004686 <PCD_EP_ISR_Handler+0x672>
 8004162:	f9b7 3036 	ldrsh.w	r3, [r7, #54]	@ 0x36
 8004166:	2b00      	cmp	r3, #0
 8004168:	f280 828d 	bge.w	8004686 <PCD_EP_ISR_Handler+0x672>
 800416c:	687b      	ldr	r3, [r7, #4]
 800416e:	681b      	ldr	r3, [r3, #0]
 8004170:	881b      	ldrh	r3, [r3, #0]
 8004172:	b29a      	uxth	r2, r3
 8004174:	f640 738f 	movw	r3, #3983	@ 0xf8f
 8004178:	4013      	ands	r3, r2
 800417a:	81fb      	strh	r3, [r7, #14]
 800417c:	687b      	ldr	r3, [r7, #4]
 800417e:	681b      	ldr	r3, [r3, #0]
 8004180:	89fa      	ldrh	r2, [r7, #14]
 8004182:	f042 0280 	orr.w	r2, r2, #128	@ 0x80
 8004186:	b292      	uxth	r2, r2
 8004188:	801a      	strh	r2, [r3, #0]
 800418a:	687b      	ldr	r3, [r7, #4]
 800418c:	681b      	ldr	r3, [r3, #0]
 800418e:	f8b3 3050 	ldrh.w	r3, [r3, #80]	@ 0x50
 8004192:	b29b      	uxth	r3, r3
 8004194:	461a      	mov	r2, r3
 8004196:	6c3b      	ldr	r3, [r7, #64]	@ 0x40
 8004198:	781b      	ldrb	r3, [r3, #0]
 800419a:	00db      	lsls	r3, r3, #3
 800419c:	4413      	add	r3, r2
 800419e:	687a      	ldr	r2, [r7, #4]
 80041a0:	6812      	ldr	r2, [r2, #0]
 80041a2:	4413      	add	r3, r2
 80041a4:	f203 4306 	addw	r3, r3, #1030	@ 0x406
 80041a8:	881b      	ldrh	r3, [r3, #0]
 80041aa:	f3c3 0209 	ubfx	r2, r3, #0, #10
 80041ae:	6c3b      	ldr	r3, [r7, #64]	@ 0x40
 80041b0:	61da      	str	r2, [r3, #28]
 80041b2:	6c3b      	ldr	r3, [r7, #64]	@ 0x40
 80041b4:	69db      	ldr	r3, [r3, #28]
 80041b6:	2b00      	cmp	r3, #0
 80041b8:	d019      	beq.n	80041ee <PCD_EP_ISR_Handler+0x1da>
 80041ba:	6c3b      	ldr	r3, [r7, #64]	@ 0x40
 80041bc:	695b      	ldr	r3, [r3, #20]
 80041be:	2b00      	cmp	r3, #0
 80041c0:	d015      	beq.n	80041ee <PCD_EP_ISR_Handler+0x1da>
 80041c2:	687b      	ldr	r3, [r7, #4]
 80041c4:	6818      	ldr	r0, [r3, #0]
 80041c6:	6c3b      	ldr	r3, [r7, #64]	@ 0x40
 80041c8:	6959      	ldr	r1, [r3, #20]
 80041ca:	6c3b      	ldr	r3, [r7, #64]	@ 0x40
 80041cc:	88da      	ldrh	r2, [r3, #6]
 80041ce:	6c3b      	ldr	r3, [r7, #64]	@ 0x40
 80041d0:	69db      	ldr	r3, [r3, #28]
 80041d2:	b29b      	uxth	r3, r3
 80041d4:	f005 ffde 	bl	800a194 <USB_ReadPMA>
 80041d8:	6c3b      	ldr	r3, [r7, #64]	@ 0x40
 80041da:	695a      	ldr	r2, [r3, #20]
 80041dc:	6c3b      	ldr	r3, [r7, #64]	@ 0x40
 80041de:	69db      	ldr	r3, [r3, #28]
 80041e0:	441a      	add	r2, r3
 80041e2:	6c3b      	ldr	r3, [r7, #64]	@ 0x40
 80041e4:	615a      	str	r2, [r3, #20]
 80041e6:	2100      	movs	r1, #0
 80041e8:	6878      	ldr	r0, [r7, #4]
 80041ea:	f007 fe79 	bl	800bee0 <HAL_PCD_DataOutStageCallback>
 80041ee:	687b      	ldr	r3, [r7, #4]
 80041f0:	681b      	ldr	r3, [r3, #0]
 80041f2:	881b      	ldrh	r3, [r3, #0]
 80041f4:	86fb      	strh	r3, [r7, #54]	@ 0x36
 80041f6:	8efb      	ldrh	r3, [r7, #54]	@ 0x36
 80041f8:	f403 6300 	and.w	r3, r3, #2048	@ 0x800
 80041fc:	2b00      	cmp	r3, #0
 80041fe:	f040 8242 	bne.w	8004686 <PCD_EP_ISR_Handler+0x672>
 8004202:	8efb      	ldrh	r3, [r7, #54]	@ 0x36
 8004204:	f403 5340 	and.w	r3, r3, #12288	@ 0x3000
 8004208:	f5b3 5f40 	cmp.w	r3, #12288	@ 0x3000
 800420c:	f000 823b 	beq.w	8004686 <PCD_EP_ISR_Handler+0x672>
 8004210:	687b      	ldr	r3, [r7, #4]
 8004212:	681b      	ldr	r3, [r3, #0]
 8004214:	881b      	ldrh	r3, [r3, #0]
 8004216:	b29b      	uxth	r3, r3
 8004218:	f423 4380 	bic.w	r3, r3, #16384	@ 0x4000
 800421c:	f023 0370 	bic.w	r3, r3, #112	@ 0x70
 8004220:	81bb      	strh	r3, [r7, #12]
 8004222:	89bb      	ldrh	r3, [r7, #12]
 8004224:	f483 5380 	eor.w	r3, r3, #4096	@ 0x1000
 8004228:	81bb      	strh	r3, [r7, #12]
 800422a:	89bb      	ldrh	r3, [r7, #12]
 800422c:	f483 5300 	eor.w	r3, r3, #8192	@ 0x2000
 8004230:	81bb      	strh	r3, [r7, #12]
 8004232:	687b      	ldr	r3, [r7, #4]
 8004234:	681a      	ldr	r2, [r3, #0]
 8004236:	89bb      	ldrh	r3, [r7, #12]
 8004238:	f043 437f 	orr.w	r3, r3, #4278190080	@ 0xff000000
 800423c:	f443 037f 	orr.w	r3, r3, #16711680	@ 0xff0000
 8004240:	f443 4300 	orr.w	r3, r3, #32768	@ 0x8000
 8004244:	f043 0380 	orr.w	r3, r3, #128	@ 0x80
 8004248:	b29b      	uxth	r3, r3
 800424a:	8013      	strh	r3, [r2, #0]
 800424c:	e21b      	b.n	8004686 <PCD_EP_ISR_Handler+0x672>
 800424e:	687b      	ldr	r3, [r7, #4]
 8004250:	681b      	ldr	r3, [r3, #0]
 8004252:	461a      	mov	r2, r3
 8004254:	f897 3039 	ldrb.w	r3, [r7, #57]	@ 0x39
 8004258:	009b      	lsls	r3, r3, #2
 800425a:	4413      	add	r3, r2
 800425c:	881b      	ldrh	r3, [r3, #0]
 800425e:	86fb      	strh	r3, [r7, #54]	@ 0x36
 8004260:	f9b7 3036 	ldrsh.w	r3, [r7, #54]	@ 0x36
 8004264:	2b00      	cmp	r3, #0
 8004266:	f280 80f1 	bge.w	800444c <PCD_EP_ISR_Handler+0x438>
 800426a:	687b      	ldr	r3, [r7, #4]
 800426c:	681b      	ldr	r3, [r3, #0]
 800426e:	461a      	mov	r2, r3
 8004270:	f897 3039 	ldrb.w	r3, [r7, #57]	@ 0x39
 8004274:	009b      	lsls	r3, r3, #2
 8004276:	4413      	add	r3, r2
 8004278:	881b      	ldrh	r3, [r3, #0]
 800427a:	b29a      	uxth	r2, r3
 800427c:	f640 738f 	movw	r3, #3983	@ 0xf8f
 8004280:	4013      	ands	r3, r2
 8004282:	86bb      	strh	r3, [r7, #52]	@ 0x34
 8004284:	687b      	ldr	r3, [r7, #4]
 8004286:	681b      	ldr	r3, [r3, #0]
 8004288:	461a      	mov	r2, r3
 800428a:	f897 3039 	ldrb.w	r3, [r7, #57]	@ 0x39
 800428e:	009b      	lsls	r3, r3, #2
 8004290:	4413      	add	r3, r2
 8004292:	8eba      	ldrh	r2, [r7, #52]	@ 0x34
 8004294:	f042 0280 	orr.w	r2, r2, #128	@ 0x80
 8004298:	b292      	uxth	r2, r2
 800429a:	801a      	strh	r2, [r3, #0]
 800429c:	f897 2039 	ldrb.w	r2, [r7, #57]	@ 0x39
 80042a0:	4613      	mov	r3, r2
 80042a2:	009b      	lsls	r3, r3, #2
 80042a4:	4413      	add	r3, r2
 80042a6:	00db      	lsls	r3, r3, #3
 80042a8:	f503 73a8 	add.w	r3, r3, #336	@ 0x150
 80042ac:	687a      	ldr	r2, [r7, #4]
 80042ae:	4413      	add	r3, r2
 80042b0:	643b      	str	r3, [r7, #64]	@ 0x40
 80042b2:	6c3b      	ldr	r3, [r7, #64]	@ 0x40
 80042b4:	7b1b      	ldrb	r3, [r3, #12]
 80042b6:	2b00      	cmp	r3, #0
 80042b8:	d123      	bne.n	8004302 <PCD_EP_ISR_Handler+0x2ee>
 80042ba:	687b      	ldr	r3, [r7, #4]
 80042bc:	681b      	ldr	r3, [r3, #0]
 80042be:	f8b3 3050 	ldrh.w	r3, [r3, #80]	@ 0x50
 80042c2:	b29b      	uxth	r3, r3
 80042c4:	461a      	mov	r2, r3
 80042c6:	6c3b      	ldr	r3, [r7, #64]	@ 0x40
 80042c8:	781b      	ldrb	r3, [r3, #0]
 80042ca:	00db      	lsls	r3, r3, #3
 80042cc:	4413      	add	r3, r2
 80042ce:	687a      	ldr	r2, [r7, #4]
 80042d0:	6812      	ldr	r2, [r2, #0]
 80042d2:	4413      	add	r3, r2
 80042d4:	f203 4306 	addw	r3, r3, #1030	@ 0x406
 80042d8:	881b      	ldrh	r3, [r3, #0]
 80042da:	f3c3 0309 	ubfx	r3, r3, #0, #10
 80042de:	f8a7 3046 	strh.w	r3, [r7, #70]	@ 0x46
 80042e2:	f8b7 3046 	ldrh.w	r3, [r7, #70]	@ 0x46
 80042e6:	2b00      	cmp	r3, #0
 80042e8:	f000 808b 	beq.w	8004402 <PCD_EP_ISR_Handler+0x3ee>
 80042ec:	687b      	ldr	r3, [r7, #4]
 80042ee:	6818      	ldr	r0, [r3, #0]
 80042f0:	6c3b      	ldr	r3, [r7, #64]	@ 0x40
 80042f2:	6959      	ldr	r1, [r3, #20]
 80042f4:	6c3b      	ldr	r3, [r7, #64]	@ 0x40
 80042f6:	88da      	ldrh	r2, [r3, #6]
 80042f8:	f8b7 3046 	ldrh.w	r3, [r7, #70]	@ 0x46
 80042fc:	f005 ff4a 	bl	800a194 <USB_ReadPMA>
 8004300:	e07f      	b.n	8004402 <PCD_EP_ISR_Handler+0x3ee>
 8004302:	6c3b      	ldr	r3, [r7, #64]	@ 0x40
 8004304:	78db      	ldrb	r3, [r3, #3]
 8004306:	2b02      	cmp	r3, #2
 8004308:	d109      	bne.n	800431e <PCD_EP_ISR_Handler+0x30a>
 800430a:	8efb      	ldrh	r3, [r7, #54]	@ 0x36
 800430c:	461a      	mov	r2, r3
 800430e:	6c39      	ldr	r1, [r7, #64]	@ 0x40
 8004310:	6878      	ldr	r0, [r7, #4]
 8004312:	f000 f9c6 	bl	80046a2 <HAL_PCD_EP_DB_Receive>
 8004316:	4603      	mov	r3, r0
 8004318:	f8a7 3046 	strh.w	r3, [r7, #70]	@ 0x46
 800431c:	e071      	b.n	8004402 <PCD_EP_ISR_Handler+0x3ee>
 800431e:	687b      	ldr	r3, [r7, #4]
 8004320:	681b      	ldr	r3, [r3, #0]
 8004322:	461a      	mov	r2, r3
 8004324:	6c3b      	ldr	r3, [r7, #64]	@ 0x40
 8004326:	781b      	ldrb	r3, [r3, #0]
 8004328:	009b      	lsls	r3, r3, #2
 800432a:	4413      	add	r3, r2
 800432c:	881b      	ldrh	r3, [r3, #0]
 800432e:	b29b      	uxth	r3, r3
 8004330:	f423 43e0 	bic.w	r3, r3, #28672	@ 0x7000
 8004334:	f023 0370 	bic.w	r3, r3, #112	@ 0x70
 8004338:	87bb      	strh	r3, [r7, #60]	@ 0x3c
 800433a:	687b      	ldr	r3, [r7, #4]
 800433c:	681b      	ldr	r3, [r3, #0]
 800433e:	461a      	mov	r2, r3
 8004340:	6c3b      	ldr	r3, [r7, #64]	@ 0x40
 8004342:	781b      	ldrb	r3, [r3, #0]
 8004344:	009b      	lsls	r3, r3, #2
 8004346:	441a      	add	r2, r3
 8004348:	8fbb      	ldrh	r3, [r7, #60]	@ 0x3c
 800434a:	f043 437f 	orr.w	r3, r3, #4278190080	@ 0xff000000
 800434e:	f443 037f 	orr.w	r3, r3, #16711680	@ 0xff0000
 8004352:	f443 4300 	orr.w	r3, r3, #32768	@ 0x8000
 8004356:	f043 03c0 	orr.w	r3, r3, #192	@ 0xc0
 800435a:	b29b      	uxth	r3, r3
 800435c:	8013      	strh	r3, [r2, #0]
 800435e:	687b      	ldr	r3, [r7, #4]
 8004360:	681b      	ldr	r3, [r3, #0]
 8004362:	461a      	mov	r2, r3
 8004364:	6c3b      	ldr	r3, [r7, #64]	@ 0x40
 8004366:	781b      	ldrb	r3, [r3, #0]
 8004368:	009b      	lsls	r3, r3, #2
 800436a:	4413      	add	r3, r2
 800436c:	881b      	ldrh	r3, [r3, #0]
 800436e:	b29b      	uxth	r3, r3
 8004370:	f403 4380 	and.w	r3, r3, #16384	@ 0x4000
 8004374:	2b00      	cmp	r3, #0
 8004376:	d022      	beq.n	80043be <PCD_EP_ISR_Handler+0x3aa>
 8004378:	687b      	ldr	r3, [r7, #4]
 800437a:	681b      	ldr	r3, [r3, #0]
 800437c:	f8b3 3050 	ldrh.w	r3, [r3, #80]	@ 0x50
 8004380:	b29b      	uxth	r3, r3
 8004382:	461a      	mov	r2, r3
 8004384:	6c3b      	ldr	r3, [r7, #64]	@ 0x40
 8004386:	781b      	ldrb	r3, [r3, #0]
 8004388:	00db      	lsls	r3, r3, #3
 800438a:	4413      	add	r3, r2
 800438c:	687a      	ldr	r2, [r7, #4]
 800438e:	6812      	ldr	r2, [r2, #0]
 8004390:	4413      	add	r3, r2
 8004392:	f203 4302 	addw	r3, r3, #1026	@ 0x402
 8004396:	881b      	ldrh	r3, [r3, #0]
 8004398:	f3c3 0309 	ubfx	r3, r3, #0, #10
 800439c:	f8a7 3046 	strh.w	r3, [r7, #70]	@ 0x46
 80043a0:	f8b7 3046 	ldrh.w	r3, [r7, #70]	@ 0x46
 80043a4:	2b00      	cmp	r3, #0
 80043a6:	d02c      	beq.n	8004402 <PCD_EP_ISR_Handler+0x3ee>
 80043a8:	687b      	ldr	r3, [r7, #4]
 80043aa:	6818      	ldr	r0, [r3, #0]
 80043ac:	6c3b      	ldr	r3, [r7, #64]	@ 0x40
 80043ae:	6959      	ldr	r1, [r3, #20]
 80043b0:	6c3b      	ldr	r3, [r7, #64]	@ 0x40
 80043b2:	891a      	ldrh	r2, [r3, #8]
 80043b4:	f8b7 3046 	ldrh.w	r3, [r7, #70]	@ 0x46
 80043b8:	f005 feec 	bl	800a194 <USB_ReadPMA>
 80043bc:	e021      	b.n	8004402 <PCD_EP_ISR_Handler+0x3ee>
 80043be:	687b      	ldr	r3, [r7, #4]
 80043c0:	681b      	ldr	r3, [r3, #0]
 80043c2:	f8b3 3050 	ldrh.w	r3, [r3, #80]	@ 0x50
 80043c6:	b29b      	uxth	r3, r3
 80043c8:	461a      	mov	r2, r3
 80043ca:	6c3b      	ldr	r3, [r7, #64]	@ 0x40
 80043cc:	781b      	ldrb	r3, [r3, #0]
 80043ce:	00db      	lsls	r3, r3, #3
 80043d0:	4413      	add	r3, r2
 80043d2:	687a      	ldr	r2, [r7, #4]
 80043d4:	6812      	ldr	r2, [r2, #0]
 80043d6:	4413      	add	r3, r2
 80043d8:	f203 4306 	addw	r3, r3, #1030	@ 0x406
 80043dc:	881b      	ldrh	r3, [r3, #0]
 80043de:	f3c3 0309 	ubfx	r3, r3, #0, #10
 80043e2:	f8a7 3046 	strh.w	r3, [r7, #70]	@ 0x46
 80043e6:	f8b7 3046 	ldrh.w	r3, [r7, #70]	@ 0x46
 80043ea:	2b00      	cmp	r3, #0
 80043ec:	d009      	beq.n	8004402 <PCD_EP_ISR_Handler+0x3ee>
 80043ee:	687b      	ldr	r3, [r7, #4]
 80043f0:	6818      	ldr	r0, [r3, #0]
 80043f2:	6c3b      	ldr	r3, [r7, #64]	@ 0x40
 80043f4:	6959      	ldr	r1, [r3, #20]
 80043f6:	6c3b      	ldr	r3, [r7, #64]	@ 0x40
 80043f8:	895a      	ldrh	r2, [r3, #10]
 80043fa:	f8b7 3046 	ldrh.w	r3, [r7, #70]	@ 0x46
 80043fe:	f005 fec9 	bl	800a194 <USB_ReadPMA>
 8004402:	6c3b      	ldr	r3, [r7, #64]	@ 0x40
 8004404:	69da      	ldr	r2, [r3, #28]
 8004406:	f8b7 3046 	ldrh.w	r3, [r7, #70]	@ 0x46
 800440a:	441a      	add	r2, r3
 800440c:	6c3b      	ldr	r3, [r7, #64]	@ 0x40
 800440e:	61da      	str	r2, [r3, #28]
 8004410:	6c3b      	ldr	r3, [r7, #64]	@ 0x40
 8004412:	695a      	ldr	r2, [r3, #20]
 8004414:	f8b7 3046 	ldrh.w	r3, [r7, #70]	@ 0x46
 8004418:	441a      	add	r2, r3
 800441a:	6c3b      	ldr	r3, [r7, #64]	@ 0x40
 800441c:	615a      	str	r2, [r3, #20]
 800441e:	6c3b      	ldr	r3, [r7, #64]	@ 0x40
 8004420:	699b      	ldr	r3, [r3, #24]
 8004422:	2b00      	cmp	r3, #0
 8004424:	d005      	beq.n	8004432 <PCD_EP_ISR_Handler+0x41e>
 8004426:	f8b7 2046 	ldrh.w	r2, [r7, #70]	@ 0x46
 800442a:	6c3b      	ldr	r3, [r7, #64]	@ 0x40
 800442c:	691b      	ldr	r3, [r3, #16]
 800442e:	429a      	cmp	r2, r3
 8004430:	d206      	bcs.n	8004440 <PCD_EP_ISR_Handler+0x42c>
 8004432:	6c3b      	ldr	r3, [r7, #64]	@ 0x40
 8004434:	781b      	ldrb	r3, [r3, #0]
 8004436:	4619      	mov	r1, r3
 8004438:	6878      	ldr	r0, [r7, #4]
 800443a:	f007 fd51 	bl	800bee0 <HAL_PCD_DataOutStageCallback>
 800443e:	e005      	b.n	800444c <PCD_EP_ISR_Handler+0x438>
 8004440:	687b      	ldr	r3, [r7, #4]
 8004442:	681b      	ldr	r3, [r3, #0]
 8004444:	6c39      	ldr	r1, [r7, #64]	@ 0x40
 8004446:	4618      	mov	r0, r3
 8004448:	f004 ff7d 	bl	8009346 <USB_EPStartXfer>
 800444c:	8efb      	ldrh	r3, [r7, #54]	@ 0x36
 800444e:	f003 0380 	and.w	r3, r3, #128	@ 0x80
 8004452:	2b00      	cmp	r3, #0
 8004454:	f000 8117 	beq.w	8004686 <PCD_EP_ISR_Handler+0x672>
 8004458:	f897 2039 	ldrb.w	r2, [r7, #57]	@ 0x39
 800445c:	4613      	mov	r3, r2
 800445e:	009b      	lsls	r3, r3, #2
 8004460:	4413      	add	r3, r2
 8004462:	00db      	lsls	r3, r3, #3
 8004464:	3310      	adds	r3, #16
 8004466:	687a      	ldr	r2, [r7, #4]
 8004468:	4413      	add	r3, r2
 800446a:	643b      	str	r3, [r7, #64]	@ 0x40
 800446c:	687b      	ldr	r3, [r7, #4]
 800446e:	681b      	ldr	r3, [r3, #0]
 8004470:	461a      	mov	r2, r3
 8004472:	f897 3039 	ldrb.w	r3, [r7, #57]	@ 0x39
 8004476:	009b      	lsls	r3, r3, #2
 8004478:	4413      	add	r3, r2
 800447a:	881b      	ldrh	r3, [r3, #0]
 800447c:	b29b      	uxth	r3, r3
 800447e:	f423 43e1 	bic.w	r3, r3, #28800	@ 0x7080
 8004482:	f023 0370 	bic.w	r3, r3, #112	@ 0x70
 8004486:	87fb      	strh	r3, [r7, #62]	@ 0x3e
 8004488:	687b      	ldr	r3, [r7, #4]
 800448a:	681b      	ldr	r3, [r3, #0]
 800448c:	461a      	mov	r2, r3
 800448e:	f897 3039 	ldrb.w	r3, [r7, #57]	@ 0x39
 8004492:	009b      	lsls	r3, r3, #2
 8004494:	441a      	add	r2, r3
 8004496:	8ffb      	ldrh	r3, [r7, #62]	@ 0x3e
 8004498:	ea6f 4343 	mvn.w	r3, r3, lsl #17
 800449c:	ea6f 4353 	mvn.w	r3, r3, lsr #17
 80044a0:	b29b      	uxth	r3, r3
 80044a2:	8013      	strh	r3, [r2, #0]
 80044a4:	6c3b      	ldr	r3, [r7, #64]	@ 0x40
 80044a6:	78db      	ldrb	r3, [r3, #3]
 80044a8:	2b01      	cmp	r3, #1
 80044aa:	f040 80a1 	bne.w	80045f0 <PCD_EP_ISR_Handler+0x5dc>
 80044ae:	6c3b      	ldr	r3, [r7, #64]	@ 0x40
 80044b0:	2200      	movs	r2, #0
 80044b2:	619a      	str	r2, [r3, #24]
 80044b4:	6c3b      	ldr	r3, [r7, #64]	@ 0x40
 80044b6:	7b1b      	ldrb	r3, [r3, #12]
 80044b8:	2b00      	cmp	r3, #0
 80044ba:	f000 8092 	beq.w	80045e2 <PCD_EP_ISR_Handler+0x5ce>
 80044be:	8efb      	ldrh	r3, [r7, #54]	@ 0x36
 80044c0:	f003 0340 	and.w	r3, r3, #64	@ 0x40
 80044c4:	2b00      	cmp	r3, #0
 80044c6:	d046      	beq.n	8004556 <PCD_EP_ISR_Handler+0x542>
 80044c8:	6c3b      	ldr	r3, [r7, #64]	@ 0x40
 80044ca:	785b      	ldrb	r3, [r3, #1]
 80044cc:	2b00      	cmp	r3, #0
 80044ce:	d126      	bne.n	800451e <PCD_EP_ISR_Handler+0x50a>
 80044d0:	687b      	ldr	r3, [r7, #4]
 80044d2:	681b      	ldr	r3, [r3, #0]
 80044d4:	617b      	str	r3, [r7, #20]
 80044d6:	687b      	ldr	r3, [r7, #4]
 80044d8:	681b      	ldr	r3, [r3, #0]
 80044da:	f8b3 3050 	ldrh.w	r3, [r3, #80]	@ 0x50
 80044de:	b29b      	uxth	r3, r3
 80044e0:	461a      	mov	r2, r3
 80044e2:	697b      	ldr	r3, [r7, #20]
 80044e4:	4413      	add	r3, r2
 80044e6:	617b      	str	r3, [r7, #20]
 80044e8:	6c3b      	ldr	r3, [r7, #64]	@ 0x40
 80044ea:	781b      	ldrb	r3, [r3, #0]
 80044ec:	00da      	lsls	r2, r3, #3
 80044ee:	697b      	ldr	r3, [r7, #20]
 80044f0:	4413      	add	r3, r2
 80044f2:	f203 4302 	addw	r3, r3, #1026	@ 0x402
 80044f6:	613b      	str	r3, [r7, #16]
 80044f8:	693b      	ldr	r3, [r7, #16]
 80044fa:	881b      	ldrh	r3, [r3, #0]
 80044fc:	b29b      	uxth	r3, r3
 80044fe:	f3c3 0309 	ubfx	r3, r3, #0, #10
 8004502:	b29a      	uxth	r2, r3
 8004504:	693b      	ldr	r3, [r7, #16]
 8004506:	801a      	strh	r2, [r3, #0]
 8004508:	693b      	ldr	r3, [r7, #16]
 800450a:	881b      	ldrh	r3, [r3, #0]
 800450c:	b29b      	uxth	r3, r3
 800450e:	ea6f 4343 	mvn.w	r3, r3, lsl #17
 8004512:	ea6f 4353 	mvn.w	r3, r3, lsr #17
 8004516:	b29a      	uxth	r2, r3
 8004518:	693b      	ldr	r3, [r7, #16]
 800451a:	801a      	strh	r2, [r3, #0]
 800451c:	e061      	b.n	80045e2 <PCD_EP_ISR_Handler+0x5ce>
 800451e:	6c3b      	ldr	r3, [r7, #64]	@ 0x40
 8004520:	785b      	ldrb	r3, [r3, #1]
 8004522:	2b01      	cmp	r3, #1
 8004524:	d15d      	bne.n	80045e2 <PCD_EP_ISR_Handler+0x5ce>
 8004526:	687b      	ldr	r3, [r7, #4]
 8004528:	681b      	ldr	r3, [r3, #0]
 800452a:	61fb      	str	r3, [r7, #28]
 800452c:	687b      	ldr	r3, [r7, #4]
 800452e:	681b      	ldr	r3, [r3, #0]
 8004530:	f8b3 3050 	ldrh.w	r3, [r3, #80]	@ 0x50
 8004534:	b29b      	uxth	r3, r3
 8004536:	461a      	mov	r2, r3
 8004538:	69fb      	ldr	r3, [r7, #28]
 800453a:	4413      	add	r3, r2
 800453c:	61fb      	str	r3, [r7, #28]
 800453e:	6c3b      	ldr	r3, [r7, #64]	@ 0x40
 8004540:	781b      	ldrb	r3, [r3, #0]
 8004542:	00da      	lsls	r2, r3, #3
 8004544:	69fb      	ldr	r3, [r7, #28]
 8004546:	4413      	add	r3, r2
 8004548:	f203 4302 	addw	r3, r3, #1026	@ 0x402
 800454c:	61bb      	str	r3, [r7, #24]
 800454e:	69bb      	ldr	r3, [r7, #24]
 8004550:	2200      	movs	r2, #0
 8004552:	801a      	strh	r2, [r3, #0]
 8004554:	e045      	b.n	80045e2 <PCD_EP_ISR_Handler+0x5ce>
 8004556:	687b      	ldr	r3, [r7, #4]
 8004558:	681b      	ldr	r3, [r3, #0]
 800455a:	62fb      	str	r3, [r7, #44]	@ 0x2c
 800455c:	6c3b      	ldr	r3, [r7, #64]	@ 0x40
 800455e:	785b      	ldrb	r3, [r3, #1]
 8004560:	2b00      	cmp	r3, #0
 8004562:	d126      	bne.n	80045b2 <PCD_EP_ISR_Handler+0x59e>
 8004564:	687b      	ldr	r3, [r7, #4]
 8004566:	681b      	ldr	r3, [r3, #0]
 8004568:	627b      	str	r3, [r7, #36]	@ 0x24
 800456a:	687b      	ldr	r3, [r7, #4]
 800456c:	681b      	ldr	r3, [r3, #0]
 800456e:	f8b3 3050 	ldrh.w	r3, [r3, #80]	@ 0x50
 8004572:	b29b      	uxth	r3, r3
 8004574:	461a      	mov	r2, r3
 8004576:	6a7b      	ldr	r3, [r7, #36]	@ 0x24
 8004578:	4413      	add	r3, r2
 800457a:	627b      	str	r3, [r7, #36]	@ 0x24
 800457c:	6c3b      	ldr	r3, [r7, #64]	@ 0x40
 800457e:	781b      	ldrb	r3, [r3, #0]
 8004580:	00da      	lsls	r2, r3, #3
 8004582:	6a7b      	ldr	r3, [r7, #36]	@ 0x24
 8004584:	4413      	add	r3, r2
 8004586:	f203 4306 	addw	r3, r3, #1030	@ 0x406
 800458a:	623b      	str	r3, [r7, #32]
 800458c:	6a3b      	ldr	r3, [r7, #32]
 800458e:	881b      	ldrh	r3, [r3, #0]
 8004590:	b29b      	uxth	r3, r3
 8004592:	f3c3 0309 	ubfx	r3, r3, #0, #10
 8004596:	b29a      	uxth	r2, r3
 8004598:	6a3b      	ldr	r3, [r7, #32]
 800459a:	801a      	strh	r2, [r3, #0]
 800459c:	6a3b      	ldr	r3, [r7, #32]
 800459e:	881b      	ldrh	r3, [r3, #0]
 80045a0:	b29b      	uxth	r3, r3
 80045a2:	ea6f 4343 	mvn.w	r3, r3, lsl #17
 80045a6:	ea6f 4353 	mvn.w	r3, r3, lsr #17
 80045aa:	b29a      	uxth	r2, r3
 80045ac:	6a3b      	ldr	r3, [r7, #32]
 80045ae:	801a      	strh	r2, [r3, #0]
 80045b0:	e017      	b.n	80045e2 <PCD_EP_ISR_Handler+0x5ce>
 80045b2:	6c3b      	ldr	r3, [r7, #64]	@ 0x40
 80045b4:	785b      	ldrb	r3, [r3, #1]
 80045b6:	2b01      	cmp	r3, #1
 80045b8:	d113      	bne.n	80045e2 <PCD_EP_ISR_Handler+0x5ce>
 80045ba:	687b      	ldr	r3, [r7, #4]
 80045bc:	681b      	ldr	r3, [r3, #0]
 80045be:	f8b3 3050 	ldrh.w	r3, [r3, #80]	@ 0x50
 80045c2:	b29b      	uxth	r3, r3
 80045c4:	461a      	mov	r2, r3
 80045c6:	6afb      	ldr	r3, [r7, #44]	@ 0x2c
 80045c8:	4413      	add	r3, r2
 80045ca:	62fb      	str	r3, [r7, #44]	@ 0x2c
 80045cc:	6c3b      	ldr	r3, [r7, #64]	@ 0x40
 80045ce:	781b      	ldrb	r3, [r3, #0]
 80045d0:	00da      	lsls	r2, r3, #3
 80045d2:	6afb      	ldr	r3, [r7, #44]	@ 0x2c
 80045d4:	4413      	add	r3, r2
 80045d6:	f203 4306 	addw	r3, r3, #1030	@ 0x406
 80045da:	62bb      	str	r3, [r7, #40]	@ 0x28
 80045dc:	6abb      	ldr	r3, [r7, #40]	@ 0x28
 80045de:	2200      	movs	r2, #0
 80045e0:	801a      	strh	r2, [r3, #0]
 80045e2:	6c3b      	ldr	r3, [r7, #64]	@ 0x40
 80045e4:	781b      	ldrb	r3, [r3, #0]
 80045e6:	4619      	mov	r1, r3
 80045e8:	6878      	ldr	r0, [r7, #4]
 80045ea:	f007 fc94 	bl	800bf16 <HAL_PCD_DataInStageCallback>
 80045ee:	e04a      	b.n	8004686 <PCD_EP_ISR_Handler+0x672>
 80045f0:	8efb      	ldrh	r3, [r7, #54]	@ 0x36
 80045f2:	f403 7380 	and.w	r3, r3, #256	@ 0x100
 80045f6:	2b00      	cmp	r3, #0
 80045f8:	d13f      	bne.n	800467a <PCD_EP_ISR_Handler+0x666>
 80045fa:	687b      	ldr	r3, [r7, #4]
 80045fc:	681b      	ldr	r3, [r3, #0]
 80045fe:	f8b3 3050 	ldrh.w	r3, [r3, #80]	@ 0x50
 8004602:	b29b      	uxth	r3, r3
 8004604:	461a      	mov	r2, r3
 8004606:	6c3b      	ldr	r3, [r7, #64]	@ 0x40
 8004608:	781b      	ldrb	r3, [r3, #0]
 800460a:	00db      	lsls	r3, r3, #3
 800460c:	4413      	add	r3, r2
 800460e:	687a      	ldr	r2, [r7, #4]
 8004610:	6812      	ldr	r2, [r2, #0]
 8004612:	4413      	add	r3, r2
 8004614:	f203 4302 	addw	r3, r3, #1026	@ 0x402
 8004618:	881b      	ldrh	r3, [r3, #0]
 800461a:	f3c3 0309 	ubfx	r3, r3, #0, #10
 800461e:	867b      	strh	r3, [r7, #50]	@ 0x32
 8004620:	6c3b      	ldr	r3, [r7, #64]	@ 0x40
 8004622:	699a      	ldr	r2, [r3, #24]
 8004624:	8e7b      	ldrh	r3, [r7, #50]	@ 0x32
 8004626:	429a      	cmp	r2, r3
 8004628:	d906      	bls.n	8004638 <PCD_EP_ISR_Handler+0x624>
 800462a:	6c3b      	ldr	r3, [r7, #64]	@ 0x40
 800462c:	699a      	ldr	r2, [r3, #24]
 800462e:	8e7b      	ldrh	r3, [r7, #50]	@ 0x32
 8004630:	1ad2      	subs	r2, r2, r3
 8004632:	6c3b      	ldr	r3, [r7, #64]	@ 0x40
 8004634:	619a      	str	r2, [r3, #24]
 8004636:	e002      	b.n	800463e <PCD_EP_ISR_Handler+0x62a>
 8004638:	6c3b      	ldr	r3, [r7, #64]	@ 0x40
 800463a:	2200      	movs	r2, #0
 800463c:	619a      	str	r2, [r3, #24]
 800463e:	6c3b      	ldr	r3, [r7, #64]	@ 0x40
 8004640:	699b      	ldr	r3, [r3, #24]
 8004642:	2b00      	cmp	r3, #0
 8004644:	d106      	bne.n	8004654 <PCD_EP_ISR_Handler+0x640>
 8004646:	6c3b      	ldr	r3, [r7, #64]	@ 0x40
 8004648:	781b      	ldrb	r3, [r3, #0]
 800464a:	4619      	mov	r1, r3
 800464c:	6878      	ldr	r0, [r7, #4]
 800464e:	f007 fc62 	bl	800bf16 <HAL_PCD_DataInStageCallback>
 8004652:	e018      	b.n	8004686 <PCD_EP_ISR_Handler+0x672>
 8004654:	6c3b      	ldr	r3, [r7, #64]	@ 0x40
 8004656:	695a      	ldr	r2, [r3, #20]
 8004658:	8e7b      	ldrh	r3, [r7, #50]	@ 0x32
 800465a:	441a      	add	r2, r3
 800465c:	6c3b      	ldr	r3, [r7, #64]	@ 0x40
 800465e:	615a      	str	r2, [r3, #20]
 8004660:	6c3b      	ldr	r3, [r7, #64]	@ 0x40
 8004662:	69da      	ldr	r2, [r3, #28]
 8004664:	8e7b      	ldrh	r3, [r7, #50]	@ 0x32
 8004666:	441a      	add	r2, r3
 8004668:	6c3b      	ldr	r3, [r7, #64]	@ 0x40
 800466a:	61da      	str	r2, [r3, #28]
 800466c:	687b      	ldr	r3, [r7, #4]
 800466e:	681b      	ldr	r3, [r3, #0]
 8004670:	6c39      	ldr	r1, [r7, #64]	@ 0x40
 8004672:	4618      	mov	r0, r3
 8004674:	f004 fe67 	bl	8009346 <USB_EPStartXfer>
 8004678:	e005      	b.n	8004686 <PCD_EP_ISR_Handler+0x672>
 800467a:	8efb      	ldrh	r3, [r7, #54]	@ 0x36
 800467c:	461a      	mov	r2, r3
 800467e:	6c39      	ldr	r1, [r7, #64]	@ 0x40
 8004680:	6878      	ldr	r0, [r7, #4]
 8004682:	f000 f917 	bl	80048b4 <HAL_PCD_EP_DB_Transmit>
 8004686:	687b      	ldr	r3, [r7, #4]
 8004688:	681b      	ldr	r3, [r3, #0]
 800468a:	f8b3 3044 	ldrh.w	r3, [r3, #68]	@ 0x44
 800468e:	b29b      	uxth	r3, r3
 8004690:	b21b      	sxth	r3, r3
 8004692:	2b00      	cmp	r3, #0
 8004694:	f6ff acc3 	blt.w	800401e <PCD_EP_ISR_Handler+0xa>
 8004698:	2300      	movs	r3, #0
 800469a:	4618      	mov	r0, r3
 800469c:	3748      	adds	r7, #72	@ 0x48
 800469e:	46bd      	mov	sp, r7
 80046a0:	bd80      	pop	{r7, pc}

080046a2 <HAL_PCD_EP_DB_Receive>:
 80046a2:	b580      	push	{r7, lr}
 80046a4:	b088      	sub	sp, #32
 80046a6:	af00      	add	r7, sp, #0
 80046a8:	60f8      	str	r0, [r7, #12]
 80046aa:	60b9      	str	r1, [r7, #8]
 80046ac:	4613      	mov	r3, r2
 80046ae:	80fb      	strh	r3, [r7, #6]
 80046b0:	88fb      	ldrh	r3, [r7, #6]
 80046b2:	f403 4380 	and.w	r3, r3, #16384	@ 0x4000
 80046b6:	2b00      	cmp	r3, #0
 80046b8:	d07c      	beq.n	80047b4 <HAL_PCD_EP_DB_Receive+0x112>
 80046ba:	68fb      	ldr	r3, [r7, #12]
 80046bc:	681b      	ldr	r3, [r3, #0]
 80046be:	f8b3 3050 	ldrh.w	r3, [r3, #80]	@ 0x50
 80046c2:	b29b      	uxth	r3, r3
 80046c4:	461a      	mov	r2, r3
 80046c6:	68bb      	ldr	r3, [r7, #8]
 80046c8:	781b      	ldrb	r3, [r3, #0]
 80046ca:	00db      	lsls	r3, r3, #3
 80046cc:	4413      	add	r3, r2
 80046ce:	68fa      	ldr	r2, [r7, #12]
 80046d0:	6812      	ldr	r2, [r2, #0]
 80046d2:	4413      	add	r3, r2
 80046d4:	f203 4302 	addw	r3, r3, #1026	@ 0x402
 80046d8:	881b      	ldrh	r3, [r3, #0]
 80046da:	f3c3 0309 	ubfx	r3, r3, #0, #10
 80046de:	837b      	strh	r3, [r7, #26]
 80046e0:	68bb      	ldr	r3, [r7, #8]
 80046e2:	699a      	ldr	r2, [r3, #24]
 80046e4:	8b7b      	ldrh	r3, [r7, #26]
 80046e6:	429a      	cmp	r2, r3
 80046e8:	d306      	bcc.n	80046f8 <HAL_PCD_EP_DB_Receive+0x56>
 80046ea:	68bb      	ldr	r3, [r7, #8]
 80046ec:	699a      	ldr	r2, [r3, #24]
 80046ee:	8b7b      	ldrh	r3, [r7, #26]
 80046f0:	1ad2      	subs	r2, r2, r3
 80046f2:	68bb      	ldr	r3, [r7, #8]
 80046f4:	619a      	str	r2, [r3, #24]
 80046f6:	e002      	b.n	80046fe <HAL_PCD_EP_DB_Receive+0x5c>
 80046f8:	68bb      	ldr	r3, [r7, #8]
 80046fa:	2200      	movs	r2, #0
 80046fc:	619a      	str	r2, [r3, #24]
 80046fe:	68bb      	ldr	r3, [r7, #8]
 8004700:	699b      	ldr	r3, [r3, #24]
 8004702:	2b00      	cmp	r3, #0
 8004704:	d123      	bne.n	800474e <HAL_PCD_EP_DB_Receive+0xac>
 8004706:	68fb      	ldr	r3, [r7, #12]
 8004708:	681b      	ldr	r3, [r3, #0]
 800470a:	461a      	mov	r2, r3
 800470c:	68bb      	ldr	r3, [r7, #8]
 800470e:	781b      	ldrb	r3, [r3, #0]
 8004710:	009b      	lsls	r3, r3, #2
 8004712:	4413      	add	r3, r2
 8004714:	881b      	ldrh	r3, [r3, #0]
 8004716:	b29b      	uxth	r3, r3
 8004718:	f423 4380 	bic.w	r3, r3, #16384	@ 0x4000
 800471c:	f023 0370 	bic.w	r3, r3, #112	@ 0x70
 8004720:	833b      	strh	r3, [r7, #24]
 8004722:	8b3b      	ldrh	r3, [r7, #24]
 8004724:	f483 5300 	eor.w	r3, r3, #8192	@ 0x2000
 8004728:	833b      	strh	r3, [r7, #24]
 800472a:	68fb      	ldr	r3, [r7, #12]
 800472c:	681b      	ldr	r3, [r3, #0]
 800472e:	461a      	mov	r2, r3
 8004730:	68bb      	ldr	r3, [r7, #8]
 8004732:	781b      	ldrb	r3, [r3, #0]
 8004734:	009b      	lsls	r3, r3, #2
 8004736:	441a      	add	r2, r3
 8004738:	8b3b      	ldrh	r3, [r7, #24]
 800473a:	f043 437f 	orr.w	r3, r3, #4278190080	@ 0xff000000
 800473e:	f443 037f 	orr.w	r3, r3, #16711680	@ 0xff0000
 8004742:	f443 4300 	orr.w	r3, r3, #32768	@ 0x8000
 8004746:	f043 0380 	orr.w	r3, r3, #128	@ 0x80
 800474a:	b29b      	uxth	r3, r3
 800474c:	8013      	strh	r3, [r2, #0]
 800474e:	88fb      	ldrh	r3, [r7, #6]
 8004750:	f003 0340 	and.w	r3, r3, #64	@ 0x40
 8004754:	2b00      	cmp	r3, #0
 8004756:	d01f      	beq.n	8004798 <HAL_PCD_EP_DB_Receive+0xf6>
 8004758:	68fb      	ldr	r3, [r7, #12]
 800475a:	681b      	ldr	r3, [r3, #0]
 800475c:	461a      	mov	r2, r3
 800475e:	68bb      	ldr	r3, [r7, #8]
 8004760:	781b      	ldrb	r3, [r3, #0]
 8004762:	009b      	lsls	r3, r3, #2
 8004764:	4413      	add	r3, r2
 8004766:	881b      	ldrh	r3, [r3, #0]
 8004768:	b29b      	uxth	r3, r3
 800476a:	f423 43e0 	bic.w	r3, r3, #28672	@ 0x7000
 800476e:	f023 0370 	bic.w	r3, r3, #112	@ 0x70
 8004772:	82fb      	strh	r3, [r7, #22]
 8004774:	68fb      	ldr	r3, [r7, #12]
 8004776:	681b      	ldr	r3, [r3, #0]
 8004778:	461a      	mov	r2, r3
 800477a:	68bb      	ldr	r3, [r7, #8]
 800477c:	781b      	ldrb	r3, [r3, #0]
 800477e:	009b      	lsls	r3, r3, #2
 8004780:	441a      	add	r2, r3
 8004782:	8afb      	ldrh	r3, [r7, #22]
 8004784:	f043 437f 	orr.w	r3, r3, #4278190080	@ 0xff000000
 8004788:	f443 037f 	orr.w	r3, r3, #16711680	@ 0xff0000
 800478c:	f443 4300 	orr.w	r3, r3, #32768	@ 0x8000
 8004790:	f043 03c0 	orr.w	r3, r3, #192	@ 0xc0
 8004794:	b29b      	uxth	r3, r3
 8004796:	8013      	strh	r3, [r2, #0]
 8004798:	8b7b      	ldrh	r3, [r7, #26]
 800479a:	2b00      	cmp	r3, #0
 800479c:	f000 8085 	beq.w	80048aa <HAL_PCD_EP_DB_Receive+0x208>
 80047a0:	68fb      	ldr	r3, [r7, #12]
 80047a2:	6818      	ldr	r0, [r3, #0]
 80047a4:	68bb      	ldr	r3, [r7, #8]
 80047a6:	6959      	ldr	r1, [r3, #20]
 80047a8:	68bb      	ldr	r3, [r7, #8]
 80047aa:	891a      	ldrh	r2, [r3, #8]
 80047ac:	8b7b      	ldrh	r3, [r7, #26]
 80047ae:	f005 fcf1 	bl	800a194 <USB_ReadPMA>
 80047b2:	e07a      	b.n	80048aa <HAL_PCD_EP_DB_Receive+0x208>
 80047b4:	68fb      	ldr	r3, [r7, #12]
 80047b6:	681b      	ldr	r3, [r3, #0]
 80047b8:	f8b3 3050 	ldrh.w	r3, [r3, #80]	@ 0x50
 80047bc:	b29b      	uxth	r3, r3
 80047be:	461a      	mov	r2, r3
 80047c0:	68bb      	ldr	r3, [r7, #8]
 80047c2:	781b      	ldrb	r3, [r3, #0]
 80047c4:	00db      	lsls	r3, r3, #3
 80047c6:	4413      	add	r3, r2
 80047c8:	68fa      	ldr	r2, [r7, #12]
 80047ca:	6812      	ldr	r2, [r2, #0]
 80047cc:	4413      	add	r3, r2
 80047ce:	f203 4306 	addw	r3, r3, #1030	@ 0x406
 80047d2:	881b      	ldrh	r3, [r3, #0]
 80047d4:	f3c3 0309 	ubfx	r3, r3, #0, #10
 80047d8:	837b      	strh	r3, [r7, #26]
 80047da:	68bb      	ldr	r3, [r7, #8]
 80047dc:	699a      	ldr	r2, [r3, #24]
 80047de:	8b7b      	ldrh	r3, [r7, #26]
 80047e0:	429a      	cmp	r2, r3
 80047e2:	d306      	bcc.n	80047f2 <HAL_PCD_EP_DB_Receive+0x150>
 80047e4:	68bb      	ldr	r3, [r7, #8]
 80047e6:	699a      	ldr	r2, [r3, #24]
 80047e8:	8b7b      	ldrh	r3, [r7, #26]
 80047ea:	1ad2      	subs	r2, r2, r3
 80047ec:	68bb      	ldr	r3, [r7, #8]
 80047ee:	619a      	str	r2, [r3, #24]
 80047f0:	e002      	b.n	80047f8 <HAL_PCD_EP_DB_Receive+0x156>
 80047f2:	68bb      	ldr	r3, [r7, #8]
 80047f4:	2200      	movs	r2, #0
 80047f6:	619a      	str	r2, [r3, #24]
 80047f8:	68bb      	ldr	r3, [r7, #8]
 80047fa:	699b      	ldr	r3, [r3, #24]
 80047fc:	2b00      	cmp	r3, #0
 80047fe:	d123      	bne.n	8004848 <HAL_PCD_EP_DB_Receive+0x1a6>
 8004800:	68fb      	ldr	r3, [r7, #12]
 8004802:	681b      	ldr	r3, [r3, #0]
 8004804:	461a      	mov	r2, r3
 8004806:	68bb      	ldr	r3, [r7, #8]
 8004808:	781b      	ldrb	r3, [r3, #0]
 800480a:	009b      	lsls	r3, r3, #2
 800480c:	4413      	add	r3, r2
 800480e:	881b      	ldrh	r3, [r3, #0]
 8004810:	b29b      	uxth	r3, r3
 8004812:	f423 4380 	bic.w	r3, r3, #16384	@ 0x4000
 8004816:	f023 0370 	bic.w	r3, r3, #112	@ 0x70
 800481a:	83fb      	strh	r3, [r7, #30]
 800481c:	8bfb      	ldrh	r3, [r7, #30]
 800481e:	f483 5300 	eor.w	r3, r3, #8192	@ 0x2000
 8004822:	83fb      	strh	r3, [r7, #30]
 8004824:	68fb      	ldr	r3, [r7, #12]
 8004826:	681b      	ldr	r3, [r3, #0]
 8004828:	461a      	mov	r2, r3
 800482a:	68bb      	ldr	r3, [r7, #8]
 800482c:	781b      	ldrb	r3, [r3, #0]
 800482e:	009b      	lsls	r3, r3, #2
 8004830:	441a      	add	r2, r3
 8004832:	8bfb      	ldrh	r3, [r7, #30]
 8004834:	f043 437f 	orr.w	r3, r3, #4278190080	@ 0xff000000
 8004838:	f443 037f 	orr.w	r3, r3, #16711680	@ 0xff0000
 800483c:	f443 4300 	orr.w	r3, r3, #32768	@ 0x8000
 8004840:	f043 0380 	orr.w	r3, r3, #128	@ 0x80
 8004844:	b29b      	uxth	r3, r3
 8004846:	8013      	strh	r3, [r2, #0]
 8004848:	88fb      	ldrh	r3, [r7, #6]
 800484a:	f003 0340 	and.w	r3, r3, #64	@ 0x40
 800484e:	2b00      	cmp	r3, #0
 8004850:	d11f      	bne.n	8004892 <HAL_PCD_EP_DB_Receive+0x1f0>
 8004852:	68fb      	ldr	r3, [r7, #12]
 8004854:	681b      	ldr	r3, [r3, #0]
 8004856:	461a      	mov	r2, r3
 8004858:	68bb      	ldr	r3, [r7, #8]
 800485a:	781b      	ldrb	r3, [r3, #0]
 800485c:	009b      	lsls	r3, r3, #2
 800485e:	4413      	add	r3, r2
 8004860:	881b      	ldrh	r3, [r3, #0]
 8004862:	b29b      	uxth	r3, r3
 8004864:	f423 43e0 	bic.w	r3, r3, #28672	@ 0x7000
 8004868:	f023 0370 	bic.w	r3, r3, #112	@ 0x70
 800486c:	83bb      	strh	r3, [r7, #28]
 800486e:	68fb      	ldr	r3, [r7, #12]
 8004870:	681b      	ldr	r3, [r3, #0]
 8004872:	461a      	mov	r2, r3
 8004874:	68bb      	ldr	r3, [r7, #8]
 8004876:	781b      	ldrb	r3, [r3, #0]
 8004878:	009b      	lsls	r3, r3, #2
 800487a:	441a      	add	r2, r3
 800487c:	8bbb      	ldrh	r3, [r7, #28]
 800487e:	f043 437f 	orr.w	r3, r3, #4278190080	@ 0xff000000
 8004882:	f443 037f 	orr.w	r3, r3, #16711680	@ 0xff0000
 8004886:	f443 4300 	orr.w	r3, r3, #32768	@ 0x8000
 800488a:	f043 03c0 	orr.w	r3, r3, #192	@ 0xc0
 800488e:	b29b      	uxth	r3, r3
 8004890:	8013      	strh	r3, [r2, #0]
 8004892:	8b7b      	ldrh	r3, [r7, #26]
 8004894:	2b00      	cmp	r3, #0
 8004896:	d008      	beq.n	80048aa <HAL_PCD_EP_DB_Receive+0x208>
 8004898:	68fb      	ldr	r3, [r7, #12]
 800489a:	6818      	ldr	r0, [r3, #0]
 800489c:	68bb      	ldr	r3, [r7, #8]
 800489e:	6959      	ldr	r1, [r3, #20]
 80048a0:	68bb      	ldr	r3, [r7, #8]
 80048a2:	895a      	ldrh	r2, [r3, #10]
 80048a4:	8b7b      	ldrh	r3, [r7, #26]
 80048a6:	f005 fc75 	bl	800a194 <USB_ReadPMA>
 80048aa:	8b7b      	ldrh	r3, [r7, #26]
 80048ac:	4618      	mov	r0, r3
 80048ae:	3720      	adds	r7, #32
 80048b0:	46bd      	mov	sp, r7
 80048b2:	bd80      	pop	{r7, pc}

080048b4 <HAL_PCD_EP_DB_Transmit>:
 80048b4:	b580      	push	{r7, lr}
 80048b6:	b0a6      	sub	sp, #152	@ 0x98
 80048b8:	af00      	add	r7, sp, #0
 80048ba:	60f8      	str	r0, [r7, #12]
 80048bc:	60b9      	str	r1, [r7, #8]
 80048be:	4613      	mov	r3, r2
 80048c0:	80fb      	strh	r3, [r7, #6]
 80048c2:	88fb      	ldrh	r3, [r7, #6]
 80048c4:	f003 0340 	and.w	r3, r3, #64	@ 0x40
 80048c8:	2b00      	cmp	r3, #0
 80048ca:	f000 81f7 	beq.w	8004cbc <HAL_PCD_EP_DB_Transmit+0x408>
 80048ce:	68fb      	ldr	r3, [r7, #12]
 80048d0:	681b      	ldr	r3, [r3, #0]
 80048d2:	f8b3 3050 	ldrh.w	r3, [r3, #80]	@ 0x50
 80048d6:	b29b      	uxth	r3, r3
 80048d8:	461a      	mov	r2, r3
 80048da:	68bb      	ldr	r3, [r7, #8]
 80048dc:	781b      	ldrb	r3, [r3, #0]
 80048de:	00db      	lsls	r3, r3, #3
 80048e0:	4413      	add	r3, r2
 80048e2:	68fa      	ldr	r2, [r7, #12]
 80048e4:	6812      	ldr	r2, [r2, #0]
 80048e6:	4413      	add	r3, r2
 80048e8:	f203 4302 	addw	r3, r3, #1026	@ 0x402
 80048ec:	881b      	ldrh	r3, [r3, #0]
 80048ee:	f3c3 0309 	ubfx	r3, r3, #0, #10
 80048f2:	f8a7 3096 	strh.w	r3, [r7, #150]	@ 0x96
 80048f6:	68bb      	ldr	r3, [r7, #8]
 80048f8:	699a      	ldr	r2, [r3, #24]
 80048fa:	f8b7 3096 	ldrh.w	r3, [r7, #150]	@ 0x96
 80048fe:	429a      	cmp	r2, r3
 8004900:	d907      	bls.n	8004912 <HAL_PCD_EP_DB_Transmit+0x5e>
 8004902:	68bb      	ldr	r3, [r7, #8]
 8004904:	699a      	ldr	r2, [r3, #24]
 8004906:	f8b7 3096 	ldrh.w	r3, [r7, #150]	@ 0x96
 800490a:	1ad2      	subs	r2, r2, r3
 800490c:	68bb      	ldr	r3, [r7, #8]
 800490e:	619a      	str	r2, [r3, #24]
 8004910:	e002      	b.n	8004918 <HAL_PCD_EP_DB_Transmit+0x64>
 8004912:	68bb      	ldr	r3, [r7, #8]
 8004914:	2200      	movs	r2, #0
 8004916:	619a      	str	r2, [r3, #24]
 8004918:	68bb      	ldr	r3, [r7, #8]
 800491a:	699b      	ldr	r3, [r3, #24]
 800491c:	2b00      	cmp	r3, #0
 800491e:	f040 80e1 	bne.w	8004ae4 <HAL_PCD_EP_DB_Transmit+0x230>
 8004922:	68bb      	ldr	r3, [r7, #8]
 8004924:	785b      	ldrb	r3, [r3, #1]
 8004926:	2b00      	cmp	r3, #0
 8004928:	d126      	bne.n	8004978 <HAL_PCD_EP_DB_Transmit+0xc4>
 800492a:	68fb      	ldr	r3, [r7, #12]
 800492c:	681b      	ldr	r3, [r3, #0]
 800492e:	633b      	str	r3, [r7, #48]	@ 0x30
 8004930:	68fb      	ldr	r3, [r7, #12]
 8004932:	681b      	ldr	r3, [r3, #0]
 8004934:	f8b3 3050 	ldrh.w	r3, [r3, #80]	@ 0x50
 8004938:	b29b      	uxth	r3, r3
 800493a:	461a      	mov	r2, r3
 800493c:	6b3b      	ldr	r3, [r7, #48]	@ 0x30
 800493e:	4413      	add	r3, r2
 8004940:	633b      	str	r3, [r7, #48]	@ 0x30
 8004942:	68bb      	ldr	r3, [r7, #8]
 8004944:	781b      	ldrb	r3, [r3, #0]
 8004946:	00da      	lsls	r2, r3, #3
 8004948:	6b3b      	ldr	r3, [r7, #48]	@ 0x30
 800494a:	4413      	add	r3, r2
 800494c:	f203 4302 	addw	r3, r3, #1026	@ 0x402
 8004950:	62fb      	str	r3, [r7, #44]	@ 0x2c
 8004952:	6afb      	ldr	r3, [r7, #44]	@ 0x2c
 8004954:	881b      	ldrh	r3, [r3, #0]
 8004956:	b29b      	uxth	r3, r3
 8004958:	f3c3 0309 	ubfx	r3, r3, #0, #10
 800495c:	b29a      	uxth	r2, r3
 800495e:	6afb      	ldr	r3, [r7, #44]	@ 0x2c
 8004960:	801a      	strh	r2, [r3, #0]
 8004962:	6afb      	ldr	r3, [r7, #44]	@ 0x2c
 8004964:	881b      	ldrh	r3, [r3, #0]
 8004966:	b29b      	uxth	r3, r3
 8004968:	ea6f 4343 	mvn.w	r3, r3, lsl #17
 800496c:	ea6f 4353 	mvn.w	r3, r3, lsr #17
 8004970:	b29a      	uxth	r2, r3
 8004972:	6afb      	ldr	r3, [r7, #44]	@ 0x2c
 8004974:	801a      	strh	r2, [r3, #0]
 8004976:	e01a      	b.n	80049ae <HAL_PCD_EP_DB_Transmit+0xfa>
 8004978:	68bb      	ldr	r3, [r7, #8]
 800497a:	785b      	ldrb	r3, [r3, #1]
 800497c:	2b01      	cmp	r3, #1
 800497e:	d116      	bne.n	80049ae <HAL_PCD_EP_DB_Transmit+0xfa>
 8004980:	68fb      	ldr	r3, [r7, #12]
 8004982:	681b      	ldr	r3, [r3, #0]
 8004984:	63bb      	str	r3, [r7, #56]	@ 0x38
 8004986:	68fb      	ldr	r3, [r7, #12]
 8004988:	681b      	ldr	r3, [r3, #0]
 800498a:	f8b3 3050 	ldrh.w	r3, [r3, #80]	@ 0x50
 800498e:	b29b      	uxth	r3, r3
 8004990:	461a      	mov	r2, r3
 8004992:	6bbb      	ldr	r3, [r7, #56]	@ 0x38
 8004994:	4413      	add	r3, r2
 8004996:	63bb      	str	r3, [r7, #56]	@ 0x38
 8004998:	68bb      	ldr	r3, [r7, #8]
 800499a:	781b      	ldrb	r3, [r3, #0]
 800499c:	00da      	lsls	r2, r3, #3
 800499e:	6bbb      	ldr	r3, [r7, #56]	@ 0x38
 80049a0:	4413      	add	r3, r2
 80049a2:	f203 4302 	addw	r3, r3, #1026	@ 0x402
 80049a6:	637b      	str	r3, [r7, #52]	@ 0x34
 80049a8:	6b7b      	ldr	r3, [r7, #52]	@ 0x34
 80049aa:	2200      	movs	r2, #0
 80049ac:	801a      	strh	r2, [r3, #0]
 80049ae:	68fb      	ldr	r3, [r7, #12]
 80049b0:	681b      	ldr	r3, [r3, #0]
 80049b2:	62bb      	str	r3, [r7, #40]	@ 0x28
 80049b4:	68bb      	ldr	r3, [r7, #8]
 80049b6:	785b      	ldrb	r3, [r3, #1]
 80049b8:	2b00      	cmp	r3, #0
 80049ba:	d126      	bne.n	8004a0a <HAL_PCD_EP_DB_Transmit+0x156>
 80049bc:	68fb      	ldr	r3, [r7, #12]
 80049be:	681b      	ldr	r3, [r3, #0]
 80049c0:	623b      	str	r3, [r7, #32]
 80049c2:	68fb      	ldr	r3, [r7, #12]
 80049c4:	681b      	ldr	r3, [r3, #0]
 80049c6:	f8b3 3050 	ldrh.w	r3, [r3, #80]	@ 0x50
 80049ca:	b29b      	uxth	r3, r3
 80049cc:	461a      	mov	r2, r3
 80049ce:	6a3b      	ldr	r3, [r7, #32]
 80049d0:	4413      	add	r3, r2
 80049d2:	623b      	str	r3, [r7, #32]
 80049d4:	68bb      	ldr	r3, [r7, #8]
 80049d6:	781b      	ldrb	r3, [r3, #0]
 80049d8:	00da      	lsls	r2, r3, #3
 80049da:	6a3b      	ldr	r3, [r7, #32]
 80049dc:	4413      	add	r3, r2
 80049de:	f203 4306 	addw	r3, r3, #1030	@ 0x406
 80049e2:	61fb      	str	r3, [r7, #28]
 80049e4:	69fb      	ldr	r3, [r7, #28]
 80049e6:	881b      	ldrh	r3, [r3, #0]
 80049e8:	b29b      	uxth	r3, r3
 80049ea:	f3c3 0309 	ubfx	r3, r3, #0, #10
 80049ee:	b29a      	uxth	r2, r3
 80049f0:	69fb      	ldr	r3, [r7, #28]
 80049f2:	801a      	strh	r2, [r3, #0]
 80049f4:	69fb      	ldr	r3, [r7, #28]
 80049f6:	881b      	ldrh	r3, [r3, #0]
 80049f8:	b29b      	uxth	r3, r3
 80049fa:	ea6f 4343 	mvn.w	r3, r3, lsl #17
 80049fe:	ea6f 4353 	mvn.w	r3, r3, lsr #17
 8004a02:	b29a      	uxth	r2, r3
 8004a04:	69fb      	ldr	r3, [r7, #28]
 8004a06:	801a      	strh	r2, [r3, #0]
 8004a08:	e017      	b.n	8004a3a <HAL_PCD_EP_DB_Transmit+0x186>
 8004a0a:	68bb      	ldr	r3, [r7, #8]
 8004a0c:	785b      	ldrb	r3, [r3, #1]
 8004a0e:	2b01      	cmp	r3, #1
 8004a10:	d113      	bne.n	8004a3a <HAL_PCD_EP_DB_Transmit+0x186>
 8004a12:	68fb      	ldr	r3, [r7, #12]
 8004a14:	681b      	ldr	r3, [r3, #0]
 8004a16:	f8b3 3050 	ldrh.w	r3, [r3, #80]	@ 0x50
 8004a1a:	b29b      	uxth	r3, r3
 8004a1c:	461a      	mov	r2, r3
 8004a1e:	6abb      	ldr	r3, [r7, #40]	@ 0x28
 8004a20:	4413      	add	r3, r2
 8004a22:	62bb      	str	r3, [r7, #40]	@ 0x28
 8004a24:	68bb      	ldr	r3, [r7, #8]
 8004a26:	781b      	ldrb	r3, [r3, #0]
 8004a28:	00da      	lsls	r2, r3, #3
 8004a2a:	6abb      	ldr	r3, [r7, #40]	@ 0x28
 8004a2c:	4413      	add	r3, r2
 8004a2e:	f203 4306 	addw	r3, r3, #1030	@ 0x406
 8004a32:	627b      	str	r3, [r7, #36]	@ 0x24
 8004a34:	6a7b      	ldr	r3, [r7, #36]	@ 0x24
 8004a36:	2200      	movs	r2, #0
 8004a38:	801a      	strh	r2, [r3, #0]
 8004a3a:	68bb      	ldr	r3, [r7, #8]
 8004a3c:	78db      	ldrb	r3, [r3, #3]
 8004a3e:	2b02      	cmp	r3, #2
 8004a40:	d123      	bne.n	8004a8a <HAL_PCD_EP_DB_Transmit+0x1d6>
 8004a42:	68fb      	ldr	r3, [r7, #12]
 8004a44:	681b      	ldr	r3, [r3, #0]
 8004a46:	461a      	mov	r2, r3
 8004a48:	68bb      	ldr	r3, [r7, #8]
 8004a4a:	781b      	ldrb	r3, [r3, #0]
 8004a4c:	009b      	lsls	r3, r3, #2
 8004a4e:	4413      	add	r3, r2
 8004a50:	881b      	ldrh	r3, [r3, #0]
 8004a52:	b29b      	uxth	r3, r3
 8004a54:	f423 43e0 	bic.w	r3, r3, #28672	@ 0x7000
 8004a58:	f023 0340 	bic.w	r3, r3, #64	@ 0x40
 8004a5c:	837b      	strh	r3, [r7, #26]
 8004a5e:	8b7b      	ldrh	r3, [r7, #26]
 8004a60:	f083 0320 	eor.w	r3, r3, #32
 8004a64:	837b      	strh	r3, [r7, #26]
 8004a66:	68fb      	ldr	r3, [r7, #12]
 8004a68:	681b      	ldr	r3, [r3, #0]
 8004a6a:	461a      	mov	r2, r3
 8004a6c:	68bb      	ldr	r3, [r7, #8]
 8004a6e:	781b      	ldrb	r3, [r3, #0]
 8004a70:	009b      	lsls	r3, r3, #2
 8004a72:	441a      	add	r2, r3
 8004a74:	8b7b      	ldrh	r3, [r7, #26]
 8004a76:	f043 437f 	orr.w	r3, r3, #4278190080	@ 0xff000000
 8004a7a:	f443 037f 	orr.w	r3, r3, #16711680	@ 0xff0000
 8004a7e:	f443 4300 	orr.w	r3, r3, #32768	@ 0x8000
 8004a82:	f043 0380 	orr.w	r3, r3, #128	@ 0x80
 8004a86:	b29b      	uxth	r3, r3
 8004a88:	8013      	strh	r3, [r2, #0]
 8004a8a:	68bb      	ldr	r3, [r7, #8]
 8004a8c:	781b      	ldrb	r3, [r3, #0]
 8004a8e:	4619      	mov	r1, r3
 8004a90:	68f8      	ldr	r0, [r7, #12]
 8004a92:	f007 fa40 	bl	800bf16 <HAL_PCD_DataInStageCallback>
 8004a96:	88fb      	ldrh	r3, [r7, #6]
 8004a98:	f403 4380 	and.w	r3, r3, #16384	@ 0x4000
 8004a9c:	2b00      	cmp	r3, #0
 8004a9e:	d01f      	beq.n	8004ae0 <HAL_PCD_EP_DB_Transmit+0x22c>
 8004aa0:	68fb      	ldr	r3, [r7, #12]
 8004aa2:	681b      	ldr	r3, [r3, #0]
 8004aa4:	461a      	mov	r2, r3
 8004aa6:	68bb      	ldr	r3, [r7, #8]
 8004aa8:	781b      	ldrb	r3, [r3, #0]
 8004aaa:	009b      	lsls	r3, r3, #2
 8004aac:	4413      	add	r3, r2
 8004aae:	881b      	ldrh	r3, [r3, #0]
 8004ab0:	b29b      	uxth	r3, r3
 8004ab2:	f423 43e0 	bic.w	r3, r3, #28672	@ 0x7000
 8004ab6:	f023 0370 	bic.w	r3, r3, #112	@ 0x70
 8004aba:	833b      	strh	r3, [r7, #24]
 8004abc:	68fb      	ldr	r3, [r7, #12]
 8004abe:	681b      	ldr	r3, [r3, #0]
 8004ac0:	461a      	mov	r2, r3
 8004ac2:	68bb      	ldr	r3, [r7, #8]
 8004ac4:	781b      	ldrb	r3, [r3, #0]
 8004ac6:	009b      	lsls	r3, r3, #2
 8004ac8:	441a      	add	r2, r3
 8004aca:	8b3b      	ldrh	r3, [r7, #24]
 8004acc:	f043 437f 	orr.w	r3, r3, #4278190080	@ 0xff000000
 8004ad0:	f443 037f 	orr.w	r3, r3, #16711680	@ 0xff0000
 8004ad4:	f443 4340 	orr.w	r3, r3, #49152	@ 0xc000
 8004ad8:	f043 0380 	orr.w	r3, r3, #128	@ 0x80
 8004adc:	b29b      	uxth	r3, r3
 8004ade:	8013      	strh	r3, [r2, #0]
 8004ae0:	2300      	movs	r3, #0
 8004ae2:	e31f      	b.n	8005124 <HAL_PCD_EP_DB_Transmit+0x870>
 8004ae4:	88fb      	ldrh	r3, [r7, #6]
 8004ae6:	f403 4380 	and.w	r3, r3, #16384	@ 0x4000
 8004aea:	2b00      	cmp	r3, #0
 8004aec:	d021      	beq.n	8004b32 <HAL_PCD_EP_DB_Transmit+0x27e>
 8004aee:	68fb      	ldr	r3, [r7, #12]
 8004af0:	681b      	ldr	r3, [r3, #0]
 8004af2:	461a      	mov	r2, r3
 8004af4:	68bb      	ldr	r3, [r7, #8]
 8004af6:	781b      	ldrb	r3, [r3, #0]
 8004af8:	009b      	lsls	r3, r3, #2
 8004afa:	4413      	add	r3, r2
 8004afc:	881b      	ldrh	r3, [r3, #0]
 8004afe:	b29b      	uxth	r3, r3
 8004b00:	f423 43e0 	bic.w	r3, r3, #28672	@ 0x7000
 8004b04:	f023 0370 	bic.w	r3, r3, #112	@ 0x70
 8004b08:	f8a7 304e 	strh.w	r3, [r7, #78]	@ 0x4e
 8004b0c:	68fb      	ldr	r3, [r7, #12]
 8004b0e:	681b      	ldr	r3, [r3, #0]
 8004b10:	461a      	mov	r2, r3
 8004b12:	68bb      	ldr	r3, [r7, #8]
 8004b14:	781b      	ldrb	r3, [r3, #0]
 8004b16:	009b      	lsls	r3, r3, #2
 8004b18:	441a      	add	r2, r3
 8004b1a:	f8b7 304e 	ldrh.w	r3, [r7, #78]	@ 0x4e
 8004b1e:	f043 437f 	orr.w	r3, r3, #4278190080	@ 0xff000000
 8004b22:	f443 037f 	orr.w	r3, r3, #16711680	@ 0xff0000
 8004b26:	f443 4340 	orr.w	r3, r3, #49152	@ 0xc000
 8004b2a:	f043 0380 	orr.w	r3, r3, #128	@ 0x80
 8004b2e:	b29b      	uxth	r3, r3
 8004b30:	8013      	strh	r3, [r2, #0]
 8004b32:	68bb      	ldr	r3, [r7, #8]
 8004b34:	f893 3024 	ldrb.w	r3, [r3, #36]	@ 0x24
 8004b38:	2b01      	cmp	r3, #1
 8004b3a:	f040 82ca 	bne.w	80050d2 <HAL_PCD_EP_DB_Transmit+0x81e>
 8004b3e:	68bb      	ldr	r3, [r7, #8]
 8004b40:	695a      	ldr	r2, [r3, #20]
 8004b42:	f8b7 3096 	ldrh.w	r3, [r7, #150]	@ 0x96
 8004b46:	441a      	add	r2, r3
 8004b48:	68bb      	ldr	r3, [r7, #8]
 8004b4a:	615a      	str	r2, [r3, #20]
 8004b4c:	68bb      	ldr	r3, [r7, #8]
 8004b4e:	69da      	ldr	r2, [r3, #28]
 8004b50:	f8b7 3096 	ldrh.w	r3, [r7, #150]	@ 0x96
 8004b54:	441a      	add	r2, r3
 8004b56:	68bb      	ldr	r3, [r7, #8]
 8004b58:	61da      	str	r2, [r3, #28]
 8004b5a:	68bb      	ldr	r3, [r7, #8]
 8004b5c:	6a1a      	ldr	r2, [r3, #32]
 8004b5e:	68bb      	ldr	r3, [r7, #8]
 8004b60:	691b      	ldr	r3, [r3, #16]
 8004b62:	429a      	cmp	r2, r3
 8004b64:	d309      	bcc.n	8004b7a <HAL_PCD_EP_DB_Transmit+0x2c6>
 8004b66:	68bb      	ldr	r3, [r7, #8]
 8004b68:	691b      	ldr	r3, [r3, #16]
 8004b6a:	65bb      	str	r3, [r7, #88]	@ 0x58
 8004b6c:	68bb      	ldr	r3, [r7, #8]
 8004b6e:	6a1a      	ldr	r2, [r3, #32]
 8004b70:	6dbb      	ldr	r3, [r7, #88]	@ 0x58
 8004b72:	1ad2      	subs	r2, r2, r3
 8004b74:	68bb      	ldr	r3, [r7, #8]
 8004b76:	621a      	str	r2, [r3, #32]
 8004b78:	e015      	b.n	8004ba6 <HAL_PCD_EP_DB_Transmit+0x2f2>
 8004b7a:	68bb      	ldr	r3, [r7, #8]
 8004b7c:	6a1b      	ldr	r3, [r3, #32]
 8004b7e:	2b00      	cmp	r3, #0
 8004b80:	d107      	bne.n	8004b92 <HAL_PCD_EP_DB_Transmit+0x2de>
 8004b82:	f8b7 3096 	ldrh.w	r3, [r7, #150]	@ 0x96
 8004b86:	65bb      	str	r3, [r7, #88]	@ 0x58
 8004b88:	68bb      	ldr	r3, [r7, #8]
 8004b8a:	2200      	movs	r2, #0
 8004b8c:	f883 2024 	strb.w	r2, [r3, #36]	@ 0x24
 8004b90:	e009      	b.n	8004ba6 <HAL_PCD_EP_DB_Transmit+0x2f2>
 8004b92:	68bb      	ldr	r3, [r7, #8]
 8004b94:	2200      	movs	r2, #0
 8004b96:	f883 2024 	strb.w	r2, [r3, #36]	@ 0x24
 8004b9a:	68bb      	ldr	r3, [r7, #8]
 8004b9c:	6a1b      	ldr	r3, [r3, #32]
 8004b9e:	65bb      	str	r3, [r7, #88]	@ 0x58
 8004ba0:	68bb      	ldr	r3, [r7, #8]
 8004ba2:	2200      	movs	r2, #0
 8004ba4:	621a      	str	r2, [r3, #32]
 8004ba6:	68bb      	ldr	r3, [r7, #8]
 8004ba8:	785b      	ldrb	r3, [r3, #1]
 8004baa:	2b00      	cmp	r3, #0
 8004bac:	d15f      	bne.n	8004c6e <HAL_PCD_EP_DB_Transmit+0x3ba>
 8004bae:	68fb      	ldr	r3, [r7, #12]
 8004bb0:	681b      	ldr	r3, [r3, #0]
 8004bb2:	643b      	str	r3, [r7, #64]	@ 0x40
 8004bb4:	68fb      	ldr	r3, [r7, #12]
 8004bb6:	681b      	ldr	r3, [r3, #0]
 8004bb8:	f8b3 3050 	ldrh.w	r3, [r3, #80]	@ 0x50
 8004bbc:	b29b      	uxth	r3, r3
 8004bbe:	461a      	mov	r2, r3
 8004bc0:	6c3b      	ldr	r3, [r7, #64]	@ 0x40
 8004bc2:	4413      	add	r3, r2
 8004bc4:	643b      	str	r3, [r7, #64]	@ 0x40
 8004bc6:	68bb      	ldr	r3, [r7, #8]
 8004bc8:	781b      	ldrb	r3, [r3, #0]
 8004bca:	00da      	lsls	r2, r3, #3
 8004bcc:	6c3b      	ldr	r3, [r7, #64]	@ 0x40
 8004bce:	4413      	add	r3, r2
 8004bd0:	f203 4302 	addw	r3, r3, #1026	@ 0x402
 8004bd4:	63fb      	str	r3, [r7, #60]	@ 0x3c
 8004bd6:	6bfb      	ldr	r3, [r7, #60]	@ 0x3c
 8004bd8:	881b      	ldrh	r3, [r3, #0]
 8004bda:	b29b      	uxth	r3, r3
 8004bdc:	f3c3 0309 	ubfx	r3, r3, #0, #10
 8004be0:	b29a      	uxth	r2, r3
 8004be2:	6bfb      	ldr	r3, [r7, #60]	@ 0x3c
 8004be4:	801a      	strh	r2, [r3, #0]
 8004be6:	6dbb      	ldr	r3, [r7, #88]	@ 0x58
 8004be8:	2b00      	cmp	r3, #0
 8004bea:	d10a      	bne.n	8004c02 <HAL_PCD_EP_DB_Transmit+0x34e>
 8004bec:	6bfb      	ldr	r3, [r7, #60]	@ 0x3c
 8004bee:	881b      	ldrh	r3, [r3, #0]
 8004bf0:	b29b      	uxth	r3, r3
 8004bf2:	ea6f 4343 	mvn.w	r3, r3, lsl #17
 8004bf6:	ea6f 4353 	mvn.w	r3, r3, lsr #17
 8004bfa:	b29a      	uxth	r2, r3
 8004bfc:	6bfb      	ldr	r3, [r7, #60]	@ 0x3c
 8004bfe:	801a      	strh	r2, [r3, #0]
 8004c00:	e051      	b.n	8004ca6 <HAL_PCD_EP_DB_Transmit+0x3f2>
 8004c02:	6dbb      	ldr	r3, [r7, #88]	@ 0x58
 8004c04:	2b3e      	cmp	r3, #62	@ 0x3e
 8004c06:	d816      	bhi.n	8004c36 <HAL_PCD_EP_DB_Transmit+0x382>
 8004c08:	6dbb      	ldr	r3, [r7, #88]	@ 0x58
 8004c0a:	085b      	lsrs	r3, r3, #1
 8004c0c:	653b      	str	r3, [r7, #80]	@ 0x50
 8004c0e:	6dbb      	ldr	r3, [r7, #88]	@ 0x58
 8004c10:	f003 0301 	and.w	r3, r3, #1
 8004c14:	2b00      	cmp	r3, #0
 8004c16:	d002      	beq.n	8004c1e <HAL_PCD_EP_DB_Transmit+0x36a>
 8004c18:	6d3b      	ldr	r3, [r7, #80]	@ 0x50
 8004c1a:	3301      	adds	r3, #1
 8004c1c:	653b      	str	r3, [r7, #80]	@ 0x50
 8004c1e:	6bfb      	ldr	r3, [r7, #60]	@ 0x3c
 8004c20:	881b      	ldrh	r3, [r3, #0]
 8004c22:	b29a      	uxth	r2, r3
 8004c24:	6d3b      	ldr	r3, [r7, #80]	@ 0x50
 8004c26:	b29b      	uxth	r3, r3
 8004c28:	029b      	lsls	r3, r3, #10
 8004c2a:	b29b      	uxth	r3, r3
 8004c2c:	4313      	orrs	r3, r2
 8004c2e:	b29a      	uxth	r2, r3
 8004c30:	6bfb      	ldr	r3, [r7, #60]	@ 0x3c
 8004c32:	801a      	strh	r2, [r3, #0]
 8004c34:	e037      	b.n	8004ca6 <HAL_PCD_EP_DB_Transmit+0x3f2>
 8004c36:	6dbb      	ldr	r3, [r7, #88]	@ 0x58
 8004c38:	095b      	lsrs	r3, r3, #5
 8004c3a:	653b      	str	r3, [r7, #80]	@ 0x50
 8004c3c:	6dbb      	ldr	r3, [r7, #88]	@ 0x58
 8004c3e:	f003 031f 	and.w	r3, r3, #31
 8004c42:	2b00      	cmp	r3, #0
 8004c44:	d102      	bne.n	8004c4c <HAL_PCD_EP_DB_Transmit+0x398>
 8004c46:	6d3b      	ldr	r3, [r7, #80]	@ 0x50
 8004c48:	3b01      	subs	r3, #1
 8004c4a:	653b      	str	r3, [r7, #80]	@ 0x50
 8004c4c:	6bfb      	ldr	r3, [r7, #60]	@ 0x3c
 8004c4e:	881b      	ldrh	r3, [r3, #0]
 8004c50:	b29a      	uxth	r2, r3
 8004c52:	6d3b      	ldr	r3, [r7, #80]	@ 0x50
 8004c54:	b29b      	uxth	r3, r3
 8004c56:	029b      	lsls	r3, r3, #10
 8004c58:	b29b      	uxth	r3, r3
 8004c5a:	4313      	orrs	r3, r2
 8004c5c:	b29b      	uxth	r3, r3
 8004c5e:	ea6f 4343 	mvn.w	r3, r3, lsl #17
 8004c62:	ea6f 4353 	mvn.w	r3, r3, lsr #17
 8004c66:	b29a      	uxth	r2, r3
 8004c68:	6bfb      	ldr	r3, [r7, #60]	@ 0x3c
 8004c6a:	801a      	strh	r2, [r3, #0]
 8004c6c:	e01b      	b.n	8004ca6 <HAL_PCD_EP_DB_Transmit+0x3f2>
 8004c6e:	68bb      	ldr	r3, [r7, #8]
 8004c70:	785b      	ldrb	r3, [r3, #1]
 8004c72:	2b01      	cmp	r3, #1
 8004c74:	d117      	bne.n	8004ca6 <HAL_PCD_EP_DB_Transmit+0x3f2>
 8004c76:	68fb      	ldr	r3, [r7, #12]
 8004c78:	681b      	ldr	r3, [r3, #0]
 8004c7a:	64bb      	str	r3, [r7, #72]	@ 0x48
 8004c7c:	68fb      	ldr	r3, [r7, #12]
 8004c7e:	681b      	ldr	r3, [r3, #0]
 8004c80:	f8b3 3050 	ldrh.w	r3, [r3, #80]	@ 0x50
 8004c84:	b29b      	uxth	r3, r3
 8004c86:	461a      	mov	r2, r3
 8004c88:	6cbb      	ldr	r3, [r7, #72]	@ 0x48
 8004c8a:	4413      	add	r3, r2
 8004c8c:	64bb      	str	r3, [r7, #72]	@ 0x48
 8004c8e:	68bb      	ldr	r3, [r7, #8]
 8004c90:	781b      	ldrb	r3, [r3, #0]
 8004c92:	00da      	lsls	r2, r3, #3
 8004c94:	6cbb      	ldr	r3, [r7, #72]	@ 0x48
 8004c96:	4413      	add	r3, r2
 8004c98:	f203 4302 	addw	r3, r3, #1026	@ 0x402
 8004c9c:	647b      	str	r3, [r7, #68]	@ 0x44
 8004c9e:	6dbb      	ldr	r3, [r7, #88]	@ 0x58
 8004ca0:	b29a      	uxth	r2, r3
 8004ca2:	6c7b      	ldr	r3, [r7, #68]	@ 0x44
 8004ca4:	801a      	strh	r2, [r3, #0]
 8004ca6:	68fb      	ldr	r3, [r7, #12]
 8004ca8:	6818      	ldr	r0, [r3, #0]
 8004caa:	68bb      	ldr	r3, [r7, #8]
 8004cac:	6959      	ldr	r1, [r3, #20]
 8004cae:	68bb      	ldr	r3, [r7, #8]
 8004cb0:	891a      	ldrh	r2, [r3, #8]
 8004cb2:	6dbb      	ldr	r3, [r7, #88]	@ 0x58
 8004cb4:	b29b      	uxth	r3, r3
 8004cb6:	f005 fa2a 	bl	800a10e <USB_WritePMA>
 8004cba:	e20a      	b.n	80050d2 <HAL_PCD_EP_DB_Transmit+0x81e>
 8004cbc:	68fb      	ldr	r3, [r7, #12]
 8004cbe:	681b      	ldr	r3, [r3, #0]
 8004cc0:	f8b3 3050 	ldrh.w	r3, [r3, #80]	@ 0x50
 8004cc4:	b29b      	uxth	r3, r3
 8004cc6:	461a      	mov	r2, r3
 8004cc8:	68bb      	ldr	r3, [r7, #8]
 8004cca:	781b      	ldrb	r3, [r3, #0]
 8004ccc:	00db      	lsls	r3, r3, #3
 8004cce:	4413      	add	r3, r2
 8004cd0:	68fa      	ldr	r2, [r7, #12]
 8004cd2:	6812      	ldr	r2, [r2, #0]
 8004cd4:	4413      	add	r3, r2
 8004cd6:	f203 4306 	addw	r3, r3, #1030	@ 0x406
 8004cda:	881b      	ldrh	r3, [r3, #0]
 8004cdc:	f3c3 0309 	ubfx	r3, r3, #0, #10
 8004ce0:	f8a7 3096 	strh.w	r3, [r7, #150]	@ 0x96
 8004ce4:	68bb      	ldr	r3, [r7, #8]
 8004ce6:	699a      	ldr	r2, [r3, #24]
 8004ce8:	f8b7 3096 	ldrh.w	r3, [r7, #150]	@ 0x96
 8004cec:	429a      	cmp	r2, r3
 8004cee:	d307      	bcc.n	8004d00 <HAL_PCD_EP_DB_Transmit+0x44c>
 8004cf0:	68bb      	ldr	r3, [r7, #8]
 8004cf2:	699a      	ldr	r2, [r3, #24]
 8004cf4:	f8b7 3096 	ldrh.w	r3, [r7, #150]	@ 0x96
 8004cf8:	1ad2      	subs	r2, r2, r3
 8004cfa:	68bb      	ldr	r3, [r7, #8]
 8004cfc:	619a      	str	r2, [r3, #24]
 8004cfe:	e002      	b.n	8004d06 <HAL_PCD_EP_DB_Transmit+0x452>
 8004d00:	68bb      	ldr	r3, [r7, #8]
 8004d02:	2200      	movs	r2, #0
 8004d04:	619a      	str	r2, [r3, #24]
 8004d06:	68bb      	ldr	r3, [r7, #8]
 8004d08:	699b      	ldr	r3, [r3, #24]
 8004d0a:	2b00      	cmp	r3, #0
 8004d0c:	f040 80f6 	bne.w	8004efc <HAL_PCD_EP_DB_Transmit+0x648>
 8004d10:	68bb      	ldr	r3, [r7, #8]
 8004d12:	785b      	ldrb	r3, [r3, #1]
 8004d14:	2b00      	cmp	r3, #0
 8004d16:	d126      	bne.n	8004d66 <HAL_PCD_EP_DB_Transmit+0x4b2>
 8004d18:	68fb      	ldr	r3, [r7, #12]
 8004d1a:	681b      	ldr	r3, [r3, #0]
 8004d1c:	677b      	str	r3, [r7, #116]	@ 0x74
 8004d1e:	68fb      	ldr	r3, [r7, #12]
 8004d20:	681b      	ldr	r3, [r3, #0]
 8004d22:	f8b3 3050 	ldrh.w	r3, [r3, #80]	@ 0x50
 8004d26:	b29b      	uxth	r3, r3
 8004d28:	461a      	mov	r2, r3
 8004d2a:	6f7b      	ldr	r3, [r7, #116]	@ 0x74
 8004d2c:	4413      	add	r3, r2
 8004d2e:	677b      	str	r3, [r7, #116]	@ 0x74
 8004d30:	68bb      	ldr	r3, [r7, #8]
 8004d32:	781b      	ldrb	r3, [r3, #0]
 8004d34:	00da      	lsls	r2, r3, #3
 8004d36:	6f7b      	ldr	r3, [r7, #116]	@ 0x74
 8004d38:	4413      	add	r3, r2
 8004d3a:	f203 4302 	addw	r3, r3, #1026	@ 0x402
 8004d3e:	673b      	str	r3, [r7, #112]	@ 0x70
 8004d40:	6f3b      	ldr	r3, [r7, #112]	@ 0x70
 8004d42:	881b      	ldrh	r3, [r3, #0]
 8004d44:	b29b      	uxth	r3, r3
 8004d46:	f3c3 0309 	ubfx	r3, r3, #0, #10
 8004d4a:	b29a      	uxth	r2, r3
 8004d4c:	6f3b      	ldr	r3, [r7, #112]	@ 0x70
 8004d4e:	801a      	strh	r2, [r3, #0]
 8004d50:	6f3b      	ldr	r3, [r7, #112]	@ 0x70
 8004d52:	881b      	ldrh	r3, [r3, #0]
 8004d54:	b29b      	uxth	r3, r3
 8004d56:	ea6f 4343 	mvn.w	r3, r3, lsl #17
 8004d5a:	ea6f 4353 	mvn.w	r3, r3, lsr #17
 8004d5e:	b29a      	uxth	r2, r3
 8004d60:	6f3b      	ldr	r3, [r7, #112]	@ 0x70
 8004d62:	801a      	strh	r2, [r3, #0]
 8004d64:	e01a      	b.n	8004d9c <HAL_PCD_EP_DB_Transmit+0x4e8>
 8004d66:	68bb      	ldr	r3, [r7, #8]
 8004d68:	785b      	ldrb	r3, [r3, #1]
 8004d6a:	2b01      	cmp	r3, #1
 8004d6c:	d116      	bne.n	8004d9c <HAL_PCD_EP_DB_Transmit+0x4e8>
 8004d6e:	68fb      	ldr	r3, [r7, #12]
 8004d70:	681b      	ldr	r3, [r3, #0]
 8004d72:	67fb      	str	r3, [r7, #124]	@ 0x7c
 8004d74:	68fb      	ldr	r3, [r7, #12]
 8004d76:	681b      	ldr	r3, [r3, #0]
 8004d78:	f8b3 3050 	ldrh.w	r3, [r3, #80]	@ 0x50
 8004d7c:	b29b      	uxth	r3, r3
 8004d7e:	461a      	mov	r2, r3
 8004d80:	6ffb      	ldr	r3, [r7, #124]	@ 0x7c
 8004d82:	4413      	add	r3, r2
 8004d84:	67fb      	str	r3, [r7, #124]	@ 0x7c
 8004d86:	68bb      	ldr	r3, [r7, #8]
 8004d88:	781b      	ldrb	r3, [r3, #0]
 8004d8a:	00da      	lsls	r2, r3, #3
 8004d8c:	6ffb      	ldr	r3, [r7, #124]	@ 0x7c
 8004d8e:	4413      	add	r3, r2
 8004d90:	f203 4302 	addw	r3, r3, #1026	@ 0x402
 8004d94:	67bb      	str	r3, [r7, #120]	@ 0x78
 8004d96:	6fbb      	ldr	r3, [r7, #120]	@ 0x78
 8004d98:	2200      	movs	r2, #0
 8004d9a:	801a      	strh	r2, [r3, #0]
 8004d9c:	68fb      	ldr	r3, [r7, #12]
 8004d9e:	681b      	ldr	r3, [r3, #0]
 8004da0:	f8c7 3084 	str.w	r3, [r7, #132]	@ 0x84
 8004da4:	68bb      	ldr	r3, [r7, #8]
 8004da6:	785b      	ldrb	r3, [r3, #1]
 8004da8:	2b00      	cmp	r3, #0
 8004daa:	d12f      	bne.n	8004e0c <HAL_PCD_EP_DB_Transmit+0x558>
 8004dac:	68fb      	ldr	r3, [r7, #12]
 8004dae:	681b      	ldr	r3, [r3, #0]
 8004db0:	f8c7 308c 	str.w	r3, [r7, #140]	@ 0x8c
 8004db4:	68fb      	ldr	r3, [r7, #12]
 8004db6:	681b      	ldr	r3, [r3, #0]
 8004db8:	f8b3 3050 	ldrh.w	r3, [r3, #80]	@ 0x50
 8004dbc:	b29b      	uxth	r3, r3
 8004dbe:	461a      	mov	r2, r3
 8004dc0:	f8d7 308c 	ldr.w	r3, [r7, #140]	@ 0x8c
 8004dc4:	4413      	add	r3, r2
 8004dc6:	f8c7 308c 	str.w	r3, [r7, #140]	@ 0x8c
 8004dca:	68bb      	ldr	r3, [r7, #8]
 8004dcc:	781b      	ldrb	r3, [r3, #0]
 8004dce:	00da      	lsls	r2, r3, #3
 8004dd0:	f8d7 308c 	ldr.w	r3, [r7, #140]	@ 0x8c
 8004dd4:	4413      	add	r3, r2
 8004dd6:	f203 4306 	addw	r3, r3, #1030	@ 0x406
 8004dda:	f8c7 3088 	str.w	r3, [r7, #136]	@ 0x88
 8004dde:	f8d7 3088 	ldr.w	r3, [r7, #136]	@ 0x88
 8004de2:	881b      	ldrh	r3, [r3, #0]
 8004de4:	b29b      	uxth	r3, r3
 8004de6:	f3c3 0309 	ubfx	r3, r3, #0, #10
 8004dea:	b29a      	uxth	r2, r3
 8004dec:	f8d7 3088 	ldr.w	r3, [r7, #136]	@ 0x88
 8004df0:	801a      	strh	r2, [r3, #0]
 8004df2:	f8d7 3088 	ldr.w	r3, [r7, #136]	@ 0x88
 8004df6:	881b      	ldrh	r3, [r3, #0]
 8004df8:	b29b      	uxth	r3, r3
 8004dfa:	ea6f 4343 	mvn.w	r3, r3, lsl #17
 8004dfe:	ea6f 4353 	mvn.w	r3, r3, lsr #17
 8004e02:	b29a      	uxth	r2, r3
 8004e04:	f8d7 3088 	ldr.w	r3, [r7, #136]	@ 0x88
 8004e08:	801a      	strh	r2, [r3, #0]
 8004e0a:	e01c      	b.n	8004e46 <HAL_PCD_EP_DB_Transmit+0x592>
 8004e0c:	68bb      	ldr	r3, [r7, #8]
 8004e0e:	785b      	ldrb	r3, [r3, #1]
 8004e10:	2b01      	cmp	r3, #1
 8004e12:	d118      	bne.n	8004e46 <HAL_PCD_EP_DB_Transmit+0x592>
 8004e14:	68fb      	ldr	r3, [r7, #12]
 8004e16:	681b      	ldr	r3, [r3, #0]
 8004e18:	f8b3 3050 	ldrh.w	r3, [r3, #80]	@ 0x50
 8004e1c:	b29b      	uxth	r3, r3
 8004e1e:	461a      	mov	r2, r3
 8004e20:	f8d7 3084 	ldr.w	r3, [r7, #132]	@ 0x84
 8004e24:	4413      	add	r3, r2
 8004e26:	f8c7 3084 	str.w	r3, [r7, #132]	@ 0x84
 8004e2a:	68bb      	ldr	r3, [r7, #8]
 8004e2c:	781b      	ldrb	r3, [r3, #0]
 8004e2e:	00da      	lsls	r2, r3, #3
 8004e30:	f8d7 3084 	ldr.w	r3, [r7, #132]	@ 0x84
 8004e34:	4413      	add	r3, r2
 8004e36:	f203 4306 	addw	r3, r3, #1030	@ 0x406
 8004e3a:	f8c7 3080 	str.w	r3, [r7, #128]	@ 0x80
 8004e3e:	f8d7 3080 	ldr.w	r3, [r7, #128]	@ 0x80
 8004e42:	2200      	movs	r2, #0
 8004e44:	801a      	strh	r2, [r3, #0]
 8004e46:	68bb      	ldr	r3, [r7, #8]
 8004e48:	78db      	ldrb	r3, [r3, #3]
 8004e4a:	2b02      	cmp	r3, #2
 8004e4c:	d127      	bne.n	8004e9e <HAL_PCD_EP_DB_Transmit+0x5ea>
 8004e4e:	68fb      	ldr	r3, [r7, #12]
 8004e50:	681b      	ldr	r3, [r3, #0]
 8004e52:	461a      	mov	r2, r3
 8004e54:	68bb      	ldr	r3, [r7, #8]
 8004e56:	781b      	ldrb	r3, [r3, #0]
 8004e58:	009b      	lsls	r3, r3, #2
 8004e5a:	4413      	add	r3, r2
 8004e5c:	881b      	ldrh	r3, [r3, #0]
 8004e5e:	b29b      	uxth	r3, r3
 8004e60:	f423 43e0 	bic.w	r3, r3, #28672	@ 0x7000
 8004e64:	f023 0340 	bic.w	r3, r3, #64	@ 0x40
 8004e68:	f8a7 3094 	strh.w	r3, [r7, #148]	@ 0x94
 8004e6c:	f8b7 3094 	ldrh.w	r3, [r7, #148]	@ 0x94
 8004e70:	f083 0320 	eor.w	r3, r3, #32
 8004e74:	f8a7 3094 	strh.w	r3, [r7, #148]	@ 0x94
 8004e78:	68fb      	ldr	r3, [r7, #12]
 8004e7a:	681b      	ldr	r3, [r3, #0]
 8004e7c:	461a      	mov	r2, r3
 8004e7e:	68bb      	ldr	r3, [r7, #8]
 8004e80:	781b      	ldrb	r3, [r3, #0]
 8004e82:	009b      	lsls	r3, r3, #2
 8004e84:	441a      	add	r2, r3
 8004e86:	f8b7 3094 	ldrh.w	r3, [r7, #148]	@ 0x94
 8004e8a:	f043 437f 	orr.w	r3, r3, #4278190080	@ 0xff000000
 8004e8e:	f443 037f 	orr.w	r3, r3, #16711680	@ 0xff0000
 8004e92:	f443 4300 	orr.w	r3, r3, #32768	@ 0x8000
 8004e96:	f043 0380 	orr.w	r3, r3, #128	@ 0x80
 8004e9a:	b29b      	uxth	r3, r3
 8004e9c:	8013      	strh	r3, [r2, #0]
 8004e9e:	68bb      	ldr	r3, [r7, #8]
 8004ea0:	781b      	ldrb	r3, [r3, #0]
 8004ea2:	4619      	mov	r1, r3
 8004ea4:	68f8      	ldr	r0, [r7, #12]
 8004ea6:	f007 f836 	bl	800bf16 <HAL_PCD_DataInStageCallback>
 8004eaa:	88fb      	ldrh	r3, [r7, #6]
 8004eac:	f403 4380 	and.w	r3, r3, #16384	@ 0x4000
 8004eb0:	2b00      	cmp	r3, #0
 8004eb2:	d121      	bne.n	8004ef8 <HAL_PCD_EP_DB_Transmit+0x644>
 8004eb4:	68fb      	ldr	r3, [r7, #12]
 8004eb6:	681b      	ldr	r3, [r3, #0]
 8004eb8:	461a      	mov	r2, r3
 8004eba:	68bb      	ldr	r3, [r7, #8]
 8004ebc:	781b      	ldrb	r3, [r3, #0]
 8004ebe:	009b      	lsls	r3, r3, #2
 8004ec0:	4413      	add	r3, r2
 8004ec2:	881b      	ldrh	r3, [r3, #0]
 8004ec4:	b29b      	uxth	r3, r3
 8004ec6:	f423 43e0 	bic.w	r3, r3, #28672	@ 0x7000
 8004eca:	f023 0370 	bic.w	r3, r3, #112	@ 0x70
 8004ece:	f8a7 3092 	strh.w	r3, [r7, #146]	@ 0x92
 8004ed2:	68fb      	ldr	r3, [r7, #12]
 8004ed4:	681b      	ldr	r3, [r3, #0]
 8004ed6:	461a      	mov	r2, r3
 8004ed8:	68bb      	ldr	r3, [r7, #8]
 8004eda:	781b      	ldrb	r3, [r3, #0]
 8004edc:	009b      	lsls	r3, r3, #2
 8004ede:	441a      	add	r2, r3
 8004ee0:	f8b7 3092 	ldrh.w	r3, [r7, #146]	@ 0x92
 8004ee4:	f043 437f 	orr.w	r3, r3, #4278190080	@ 0xff000000
 8004ee8:	f443 037f 	orr.w	r3, r3, #16711680	@ 0xff0000
 8004eec:	f443 4340 	orr.w	r3, r3, #49152	@ 0xc000
 8004ef0:	f043 0380 	orr.w	r3, r3, #128	@ 0x80
 8004ef4:	b29b      	uxth	r3, r3
 8004ef6:	8013      	strh	r3, [r2, #0]
 8004ef8:	2300      	movs	r3, #0
 8004efa:	e113      	b.n	8005124 <HAL_PCD_EP_DB_Transmit+0x870>
 8004efc:	88fb      	ldrh	r3, [r7, #6]
 8004efe:	f403 4380 	and.w	r3, r3, #16384	@ 0x4000
 8004f02:	2b00      	cmp	r3, #0
 8004f04:	d121      	bne.n	8004f4a <HAL_PCD_EP_DB_Transmit+0x696>
 8004f06:	68fb      	ldr	r3, [r7, #12]
 8004f08:	681b      	ldr	r3, [r3, #0]
 8004f0a:	461a      	mov	r2, r3
 8004f0c:	68bb      	ldr	r3, [r7, #8]
 8004f0e:	781b      	ldrb	r3, [r3, #0]
 8004f10:	009b      	lsls	r3, r3, #2
 8004f12:	4413      	add	r3, r2
 8004f14:	881b      	ldrh	r3, [r3, #0]
 8004f16:	b29b      	uxth	r3, r3
 8004f18:	f423 43e0 	bic.w	r3, r3, #28672	@ 0x7000
 8004f1c:	f023 0370 	bic.w	r3, r3, #112	@ 0x70
 8004f20:	f8a7 3056 	strh.w	r3, [r7, #86]	@ 0x56
 8004f24:	68fb      	ldr	r3, [r7, #12]
 8004f26:	681b      	ldr	r3, [r3, #0]
 8004f28:	461a      	mov	r2, r3
 8004f2a:	68bb      	ldr	r3, [r7, #8]
 8004f2c:	781b      	ldrb	r3, [r3, #0]
 8004f2e:	009b      	lsls	r3, r3, #2
 8004f30:	441a      	add	r2, r3
 8004f32:	f8b7 3056 	ldrh.w	r3, [r7, #86]	@ 0x56
 8004f36:	f043 437f 	orr.w	r3, r3, #4278190080	@ 0xff000000
 8004f3a:	f443 037f 	orr.w	r3, r3, #16711680	@ 0xff0000
 8004f3e:	f443 4340 	orr.w	r3, r3, #49152	@ 0xc000
 8004f42:	f043 0380 	orr.w	r3, r3, #128	@ 0x80
 8004f46:	b29b      	uxth	r3, r3
 8004f48:	8013      	strh	r3, [r2, #0]
 8004f4a:	68bb      	ldr	r3, [r7, #8]
 8004f4c:	f893 3024 	ldrb.w	r3, [r3, #36]	@ 0x24
 8004f50:	2b01      	cmp	r3, #1
 8004f52:	f040 80be 	bne.w	80050d2 <HAL_PCD_EP_DB_Transmit+0x81e>
 8004f56:	68bb      	ldr	r3, [r7, #8]
 8004f58:	695a      	ldr	r2, [r3, #20]
 8004f5a:	f8b7 3096 	ldrh.w	r3, [r7, #150]	@ 0x96
 8004f5e:	441a      	add	r2, r3
 8004f60:	68bb      	ldr	r3, [r7, #8]
 8004f62:	615a      	str	r2, [r3, #20]
 8004f64:	68bb      	ldr	r3, [r7, #8]
 8004f66:	69da      	ldr	r2, [r3, #28]
 8004f68:	f8b7 3096 	ldrh.w	r3, [r7, #150]	@ 0x96
 8004f6c:	441a      	add	r2, r3
 8004f6e:	68bb      	ldr	r3, [r7, #8]
 8004f70:	61da      	str	r2, [r3, #28]
 8004f72:	68bb      	ldr	r3, [r7, #8]
 8004f74:	6a1a      	ldr	r2, [r3, #32]
 8004f76:	68bb      	ldr	r3, [r7, #8]
 8004f78:	691b      	ldr	r3, [r3, #16]
 8004f7a:	429a      	cmp	r2, r3
 8004f7c:	d309      	bcc.n	8004f92 <HAL_PCD_EP_DB_Transmit+0x6de>
 8004f7e:	68bb      	ldr	r3, [r7, #8]
 8004f80:	691b      	ldr	r3, [r3, #16]
 8004f82:	65bb      	str	r3, [r7, #88]	@ 0x58
 8004f84:	68bb      	ldr	r3, [r7, #8]
 8004f86:	6a1a      	ldr	r2, [r3, #32]
 8004f88:	6dbb      	ldr	r3, [r7, #88]	@ 0x58
 8004f8a:	1ad2      	subs	r2, r2, r3
 8004f8c:	68bb      	ldr	r3, [r7, #8]
 8004f8e:	621a      	str	r2, [r3, #32]
 8004f90:	e015      	b.n	8004fbe <HAL_PCD_EP_DB_Transmit+0x70a>
 8004f92:	68bb      	ldr	r3, [r7, #8]
 8004f94:	6a1b      	ldr	r3, [r3, #32]
 8004f96:	2b00      	cmp	r3, #0
 8004f98:	d107      	bne.n	8004faa <HAL_PCD_EP_DB_Transmit+0x6f6>
 8004f9a:	f8b7 3096 	ldrh.w	r3, [r7, #150]	@ 0x96
 8004f9e:	65bb      	str	r3, [r7, #88]	@ 0x58
 8004fa0:	68bb      	ldr	r3, [r7, #8]
 8004fa2:	2200      	movs	r2, #0
 8004fa4:	f883 2024 	strb.w	r2, [r3, #36]	@ 0x24
 8004fa8:	e009      	b.n	8004fbe <HAL_PCD_EP_DB_Transmit+0x70a>
 8004faa:	68bb      	ldr	r3, [r7, #8]
 8004fac:	6a1b      	ldr	r3, [r3, #32]
 8004fae:	65bb      	str	r3, [r7, #88]	@ 0x58
 8004fb0:	68bb      	ldr	r3, [r7, #8]
 8004fb2:	2200      	movs	r2, #0
 8004fb4:	621a      	str	r2, [r3, #32]
 8004fb6:	68bb      	ldr	r3, [r7, #8]
 8004fb8:	2200      	movs	r2, #0
 8004fba:	f883 2024 	strb.w	r2, [r3, #36]	@ 0x24
 8004fbe:	68fb      	ldr	r3, [r7, #12]
 8004fc0:	681b      	ldr	r3, [r3, #0]
 8004fc2:	65fb      	str	r3, [r7, #92]	@ 0x5c
 8004fc4:	68bb      	ldr	r3, [r7, #8]
 8004fc6:	785b      	ldrb	r3, [r3, #1]
 8004fc8:	2b00      	cmp	r3, #0
 8004fca:	d15f      	bne.n	800508c <HAL_PCD_EP_DB_Transmit+0x7d8>
 8004fcc:	68fb      	ldr	r3, [r7, #12]
 8004fce:	681b      	ldr	r3, [r3, #0]
 8004fd0:	66bb      	str	r3, [r7, #104]	@ 0x68
 8004fd2:	68fb      	ldr	r3, [r7, #12]
 8004fd4:	681b      	ldr	r3, [r3, #0]
 8004fd6:	f8b3 3050 	ldrh.w	r3, [r3, #80]	@ 0x50
 8004fda:	b29b      	uxth	r3, r3
 8004fdc:	461a      	mov	r2, r3
 8004fde:	6ebb      	ldr	r3, [r7, #104]	@ 0x68
 8004fe0:	4413      	add	r3, r2
 8004fe2:	66bb      	str	r3, [r7, #104]	@ 0x68
 8004fe4:	68bb      	ldr	r3, [r7, #8]
 8004fe6:	781b      	ldrb	r3, [r3, #0]
 8004fe8:	00da      	lsls	r2, r3, #3
 8004fea:	6ebb      	ldr	r3, [r7, #104]	@ 0x68
 8004fec:	4413      	add	r3, r2
 8004fee:	f203 4306 	addw	r3, r3, #1030	@ 0x406
 8004ff2:	667b      	str	r3, [r7, #100]	@ 0x64
 8004ff4:	6e7b      	ldr	r3, [r7, #100]	@ 0x64
 8004ff6:	881b      	ldrh	r3, [r3, #0]
 8004ff8:	b29b      	uxth	r3, r3
 8004ffa:	f3c3 0309 	ubfx	r3, r3, #0, #10
 8004ffe:	b29a      	uxth	r2, r3
 8005000:	6e7b      	ldr	r3, [r7, #100]	@ 0x64
 8005002:	801a      	strh	r2, [r3, #0]
 8005004:	6dbb      	ldr	r3, [r7, #88]	@ 0x58
 8005006:	2b00      	cmp	r3, #0
 8005008:	d10a      	bne.n	8005020 <HAL_PCD_EP_DB_Transmit+0x76c>
 800500a:	6e7b      	ldr	r3, [r7, #100]	@ 0x64
 800500c:	881b      	ldrh	r3, [r3, #0]
 800500e:	b29b      	uxth	r3, r3
 8005010:	ea6f 4343 	mvn.w	r3, r3, lsl #17
 8005014:	ea6f 4353 	mvn.w	r3, r3, lsr #17
 8005018:	b29a      	uxth	r2, r3
 800501a:	6e7b      	ldr	r3, [r7, #100]	@ 0x64
 800501c:	801a      	strh	r2, [r3, #0]
 800501e:	e04e      	b.n	80050be <HAL_PCD_EP_DB_Transmit+0x80a>
 8005020:	6dbb      	ldr	r3, [r7, #88]	@ 0x58
 8005022:	2b3e      	cmp	r3, #62	@ 0x3e
 8005024:	d816      	bhi.n	8005054 <HAL_PCD_EP_DB_Transmit+0x7a0>
 8005026:	6dbb      	ldr	r3, [r7, #88]	@ 0x58
 8005028:	085b      	lsrs	r3, r3, #1
 800502a:	663b      	str	r3, [r7, #96]	@ 0x60
 800502c:	6dbb      	ldr	r3, [r7, #88]	@ 0x58
 800502e:	f003 0301 	and.w	r3, r3, #1
 8005032:	2b00      	cmp	r3, #0
 8005034:	d002      	beq.n	800503c <HAL_PCD_EP_DB_Transmit+0x788>
 8005036:	6e3b      	ldr	r3, [r7, #96]	@ 0x60
 8005038:	3301      	adds	r3, #1
 800503a:	663b      	str	r3, [r7, #96]	@ 0x60
 800503c:	6e7b      	ldr	r3, [r7, #100]	@ 0x64
 800503e:	881b      	ldrh	r3, [r3, #0]
 8005040:	b29a      	uxth	r2, r3
 8005042:	6e3b      	ldr	r3, [r7, #96]	@ 0x60
 8005044:	b29b      	uxth	r3, r3
 8005046:	029b      	lsls	r3, r3, #10
 8005048:	b29b      	uxth	r3, r3
 800504a:	4313      	orrs	r3, r2
 800504c:	b29a      	uxth	r2, r3
 800504e:	6e7b      	ldr	r3, [r7, #100]	@ 0x64
 8005050:	801a      	strh	r2, [r3, #0]
 8005052:	e034      	b.n	80050be <HAL_PCD_EP_DB_Transmit+0x80a>
 8005054:	6dbb      	ldr	r3, [r7, #88]	@ 0x58
 8005056:	095b      	lsrs	r3, r3, #5
 8005058:	663b      	str	r3, [r7, #96]	@ 0x60
 800505a:	6dbb      	ldr	r3, [r7, #88]	@ 0x58
 800505c:	f003 031f 	and.w	r3, r3, #31
 8005060:	2b00      	cmp	r3, #0
 8005062:	d102      	bne.n	800506a <HAL_PCD_EP_DB_Transmit+0x7b6>
 8005064:	6e3b      	ldr	r3, [r7, #96]	@ 0x60
 8005066:	3b01      	subs	r3, #1
 8005068:	663b      	str	r3, [r7, #96]	@ 0x60
 800506a:	6e7b      	ldr	r3, [r7, #100]	@ 0x64
 800506c:	881b      	ldrh	r3, [r3, #0]
 800506e:	b29a      	uxth	r2, r3
 8005070:	6e3b      	ldr	r3, [r7, #96]	@ 0x60
 8005072:	b29b      	uxth	r3, r3
 8005074:	029b      	lsls	r3, r3, #10
 8005076:	b29b      	uxth	r3, r3
 8005078:	4313      	orrs	r3, r2
 800507a:	b29b      	uxth	r3, r3
 800507c:	ea6f 4343 	mvn.w	r3, r3, lsl #17
 8005080:	ea6f 4353 	mvn.w	r3, r3, lsr #17
 8005084:	b29a      	uxth	r2, r3
 8005086:	6e7b      	ldr	r3, [r7, #100]	@ 0x64
 8005088:	801a      	strh	r2, [r3, #0]
 800508a:	e018      	b.n	80050be <HAL_PCD_EP_DB_Transmit+0x80a>
 800508c:	68bb      	ldr	r3, [r7, #8]
 800508e:	785b      	ldrb	r3, [r3, #1]
 8005090:	2b01      	cmp	r3, #1
 8005092:	d114      	bne.n	80050be <HAL_PCD_EP_DB_Transmit+0x80a>
 8005094:	68fb      	ldr	r3, [r7, #12]
 8005096:	681b      	ldr	r3, [r3, #0]
 8005098:	f8b3 3050 	ldrh.w	r3, [r3, #80]	@ 0x50
 800509c:	b29b      	uxth	r3, r3
 800509e:	461a      	mov	r2, r3
 80050a0:	6dfb      	ldr	r3, [r7, #92]	@ 0x5c
 80050a2:	4413      	add	r3, r2
 80050a4:	65fb      	str	r3, [r7, #92]	@ 0x5c
 80050a6:	68bb      	ldr	r3, [r7, #8]
 80050a8:	781b      	ldrb	r3, [r3, #0]
 80050aa:	00da      	lsls	r2, r3, #3
 80050ac:	6dfb      	ldr	r3, [r7, #92]	@ 0x5c
 80050ae:	4413      	add	r3, r2
 80050b0:	f203 4306 	addw	r3, r3, #1030	@ 0x406
 80050b4:	66fb      	str	r3, [r7, #108]	@ 0x6c
 80050b6:	6dbb      	ldr	r3, [r7, #88]	@ 0x58
 80050b8:	b29a      	uxth	r2, r3
 80050ba:	6efb      	ldr	r3, [r7, #108]	@ 0x6c
 80050bc:	801a      	strh	r2, [r3, #0]
 80050be:	68fb      	ldr	r3, [r7, #12]
 80050c0:	6818      	ldr	r0, [r3, #0]
 80050c2:	68bb      	ldr	r3, [r7, #8]
 80050c4:	6959      	ldr	r1, [r3, #20]
 80050c6:	68bb      	ldr	r3, [r7, #8]
 80050c8:	895a      	ldrh	r2, [r3, #10]
 80050ca:	6dbb      	ldr	r3, [r7, #88]	@ 0x58
 80050cc:	b29b      	uxth	r3, r3
 80050ce:	f005 f81e 	bl	800a10e <USB_WritePMA>
 80050d2:	68fb      	ldr	r3, [r7, #12]
 80050d4:	681b      	ldr	r3, [r3, #0]
 80050d6:	461a      	mov	r2, r3
 80050d8:	68bb      	ldr	r3, [r7, #8]
 80050da:	781b      	ldrb	r3, [r3, #0]
 80050dc:	009b      	lsls	r3, r3, #2
 80050de:	4413      	add	r3, r2
 80050e0:	881b      	ldrh	r3, [r3, #0]
 80050e2:	b29b      	uxth	r3, r3
 80050e4:	f423 43e0 	bic.w	r3, r3, #28672	@ 0x7000
 80050e8:	f023 0340 	bic.w	r3, r3, #64	@ 0x40
 80050ec:	82fb      	strh	r3, [r7, #22]
 80050ee:	8afb      	ldrh	r3, [r7, #22]
 80050f0:	f083 0310 	eor.w	r3, r3, #16
 80050f4:	82fb      	strh	r3, [r7, #22]
 80050f6:	8afb      	ldrh	r3, [r7, #22]
 80050f8:	f083 0320 	eor.w	r3, r3, #32
 80050fc:	82fb      	strh	r3, [r7, #22]
 80050fe:	68fb      	ldr	r3, [r7, #12]
 8005100:	681b      	ldr	r3, [r3, #0]
 8005102:	461a      	mov	r2, r3
 8005104:	68bb      	ldr	r3, [r7, #8]
 8005106:	781b      	ldrb	r3, [r3, #0]
 8005108:	009b      	lsls	r3, r3, #2
 800510a:	441a      	add	r2, r3
 800510c:	8afb      	ldrh	r3, [r7, #22]
 800510e:	f043 437f 	orr.w	r3, r3, #4278190080	@ 0xff000000
 8005112:	f443 037f 	orr.w	r3, r3, #16711680	@ 0xff0000
 8005116:	f443 4300 	orr.w	r3, r3, #32768	@ 0x8000
 800511a:	f043 0380 	orr.w	r3, r3, #128	@ 0x80
 800511e:	b29b      	uxth	r3, r3
 8005120:	8013      	strh	r3, [r2, #0]
 8005122:	2300      	movs	r3, #0
 8005124:	4618      	mov	r0, r3
 8005126:	3798      	adds	r7, #152	@ 0x98
 8005128:	46bd      	mov	sp, r7
 800512a:	bd80      	pop	{r7, pc}

0800512c <HAL_PCDEx_PMAConfig>:
 800512c:	b480      	push	{r7}
 800512e:	b087      	sub	sp, #28
 8005130:	af00      	add	r7, sp, #0
 8005132:	60f8      	str	r0, [r7, #12]
 8005134:	607b      	str	r3, [r7, #4]
 8005136:	460b      	mov	r3, r1
 8005138:	817b      	strh	r3, [r7, #10]
 800513a:	4613      	mov	r3, r2
 800513c:	813b      	strh	r3, [r7, #8]
 800513e:	897b      	ldrh	r3, [r7, #10]
 8005140:	f003 0380 	and.w	r3, r3, #128	@ 0x80
 8005144:	b29b      	uxth	r3, r3
 8005146:	2b00      	cmp	r3, #0
 8005148:	d00b      	beq.n	8005162 <HAL_PCDEx_PMAConfig+0x36>
 800514a:	897b      	ldrh	r3, [r7, #10]
 800514c:	f003 0207 	and.w	r2, r3, #7
 8005150:	4613      	mov	r3, r2
 8005152:	009b      	lsls	r3, r3, #2
 8005154:	4413      	add	r3, r2
 8005156:	00db      	lsls	r3, r3, #3
 8005158:	3310      	adds	r3, #16
 800515a:	68fa      	ldr	r2, [r7, #12]
 800515c:	4413      	add	r3, r2
 800515e:	617b      	str	r3, [r7, #20]
 8005160:	e009      	b.n	8005176 <HAL_PCDEx_PMAConfig+0x4a>
 8005162:	897a      	ldrh	r2, [r7, #10]
 8005164:	4613      	mov	r3, r2
 8005166:	009b      	lsls	r3, r3, #2
 8005168:	4413      	add	r3, r2
 800516a:	00db      	lsls	r3, r3, #3
 800516c:	f503 73a8 	add.w	r3, r3, #336	@ 0x150
 8005170:	68fa      	ldr	r2, [r7, #12]
 8005172:	4413      	add	r3, r2
 8005174:	617b      	str	r3, [r7, #20]
 8005176:	893b      	ldrh	r3, [r7, #8]
 8005178:	2b00      	cmp	r3, #0
 800517a:	d107      	bne.n	800518c <HAL_PCDEx_PMAConfig+0x60>
 800517c:	697b      	ldr	r3, [r7, #20]
 800517e:	2200      	movs	r2, #0
 8005180:	731a      	strb	r2, [r3, #12]
 8005182:	687b      	ldr	r3, [r7, #4]
 8005184:	b29a      	uxth	r2, r3
 8005186:	697b      	ldr	r3, [r7, #20]
 8005188:	80da      	strh	r2, [r3, #6]
 800518a:	e00b      	b.n	80051a4 <HAL_PCDEx_PMAConfig+0x78>
 800518c:	697b      	ldr	r3, [r7, #20]
 800518e:	2201      	movs	r2, #1
 8005190:	731a      	strb	r2, [r3, #12]
 8005192:	687b      	ldr	r3, [r7, #4]
 8005194:	b29a      	uxth	r2, r3
 8005196:	697b      	ldr	r3, [r7, #20]
 8005198:	811a      	strh	r2, [r3, #8]
 800519a:	687b      	ldr	r3, [r7, #4]
 800519c:	0c1b      	lsrs	r3, r3, #16
 800519e:	b29a      	uxth	r2, r3
 80051a0:	697b      	ldr	r3, [r7, #20]
 80051a2:	815a      	strh	r2, [r3, #10]
 80051a4:	2300      	movs	r3, #0
 80051a6:	4618      	mov	r0, r3
 80051a8:	371c      	adds	r7, #28
 80051aa:	46bd      	mov	sp, r7
 80051ac:	f85d 7b04 	ldr.w	r7, [sp], #4
 80051b0:	4770      	bx	lr

080051b2 <HAL_PCDEx_ActivateLPM>:
 80051b2:	b480      	push	{r7}
 80051b4:	b085      	sub	sp, #20
 80051b6:	af00      	add	r7, sp, #0
 80051b8:	6078      	str	r0, [r7, #4]
 80051ba:	687b      	ldr	r3, [r7, #4]
 80051bc:	681b      	ldr	r3, [r3, #0]
 80051be:	60fb      	str	r3, [r7, #12]
 80051c0:	687b      	ldr	r3, [r7, #4]
 80051c2:	2201      	movs	r2, #1
 80051c4:	f8c3 22d0 	str.w	r2, [r3, #720]	@ 0x2d0
 80051c8:	687b      	ldr	r3, [r7, #4]
 80051ca:	2200      	movs	r2, #0
 80051cc:	f883 22c8 	strb.w	r2, [r3, #712]	@ 0x2c8
 80051d0:	68fb      	ldr	r3, [r7, #12]
 80051d2:	f8b3 3054 	ldrh.w	r3, [r3, #84]	@ 0x54
 80051d6:	b29b      	uxth	r3, r3
 80051d8:	f043 0301 	orr.w	r3, r3, #1
 80051dc:	b29a      	uxth	r2, r3
 80051de:	68fb      	ldr	r3, [r7, #12]
 80051e0:	f8a3 2054 	strh.w	r2, [r3, #84]	@ 0x54
 80051e4:	68fb      	ldr	r3, [r7, #12]
 80051e6:	f8b3 3054 	ldrh.w	r3, [r3, #84]	@ 0x54
 80051ea:	b29b      	uxth	r3, r3
 80051ec:	f043 0302 	orr.w	r3, r3, #2
 80051f0:	b29a      	uxth	r2, r3
 80051f2:	68fb      	ldr	r3, [r7, #12]
 80051f4:	f8a3 2054 	strh.w	r2, [r3, #84]	@ 0x54
 80051f8:	2300      	movs	r3, #0
 80051fa:	4618      	mov	r0, r3
 80051fc:	3714      	adds	r7, #20
 80051fe:	46bd      	mov	sp, r7
 8005200:	f85d 7b04 	ldr.w	r7, [sp], #4
 8005204:	4770      	bx	lr
	...

08005208 <HAL_PWREx_ControlVoltageScaling>:
 8005208:	b480      	push	{r7}
 800520a:	b085      	sub	sp, #20
 800520c:	af00      	add	r7, sp, #0
 800520e:	6078      	str	r0, [r7, #4]
 8005210:	687b      	ldr	r3, [r7, #4]
 8005212:	2b00      	cmp	r3, #0
 8005214:	d141      	bne.n	800529a <HAL_PWREx_ControlVoltageScaling+0x92>
 8005216:	4b4b      	ldr	r3, [pc, #300]	@ (8005344 <HAL_PWREx_ControlVoltageScaling+0x13c>)
 8005218:	681b      	ldr	r3, [r3, #0]
 800521a:	f403 63c0 	and.w	r3, r3, #1536	@ 0x600
 800521e:	f5b3 6f80 	cmp.w	r3, #1024	@ 0x400
 8005222:	d131      	bne.n	8005288 <HAL_PWREx_ControlVoltageScaling+0x80>
 8005224:	4b47      	ldr	r3, [pc, #284]	@ (8005344 <HAL_PWREx_ControlVoltageScaling+0x13c>)
 8005226:	f8d3 3080 	ldr.w	r3, [r3, #128]	@ 0x80
 800522a:	4a46      	ldr	r2, [pc, #280]	@ (8005344 <HAL_PWREx_ControlVoltageScaling+0x13c>)
 800522c:	f423 7380 	bic.w	r3, r3, #256	@ 0x100
 8005230:	f8c2 3080 	str.w	r3, [r2, #128]	@ 0x80
 8005234:	4b43      	ldr	r3, [pc, #268]	@ (8005344 <HAL_PWREx_ControlVoltageScaling+0x13c>)
 8005236:	681b      	ldr	r3, [r3, #0]
 8005238:	f423 63c0 	bic.w	r3, r3, #1536	@ 0x600
 800523c:	4a41      	ldr	r2, [pc, #260]	@ (8005344 <HAL_PWREx_ControlVoltageScaling+0x13c>)
 800523e:	f443 7300 	orr.w	r3, r3, #512	@ 0x200
 8005242:	6013      	str	r3, [r2, #0]
 8005244:	4b40      	ldr	r3, [pc, #256]	@ (8005348 <HAL_PWREx_ControlVoltageScaling+0x140>)
 8005246:	681b      	ldr	r3, [r3, #0]
 8005248:	2232      	movs	r2, #50	@ 0x32
 800524a:	fb02 f303 	mul.w	r3, r2, r3
 800524e:	4a3f      	ldr	r2, [pc, #252]	@ (800534c <HAL_PWREx_ControlVoltageScaling+0x144>)
 8005250:	fba2 2303 	umull	r2, r3, r2, r3
 8005254:	0c9b      	lsrs	r3, r3, #18
 8005256:	3301      	adds	r3, #1
 8005258:	60fb      	str	r3, [r7, #12]
 800525a:	e002      	b.n	8005262 <HAL_PWREx_ControlVoltageScaling+0x5a>
 800525c:	68fb      	ldr	r3, [r7, #12]
 800525e:	3b01      	subs	r3, #1
 8005260:	60fb      	str	r3, [r7, #12]
 8005262:	4b38      	ldr	r3, [pc, #224]	@ (8005344 <HAL_PWREx_ControlVoltageScaling+0x13c>)
 8005264:	695b      	ldr	r3, [r3, #20]
 8005266:	f403 6380 	and.w	r3, r3, #1024	@ 0x400
 800526a:	f5b3 6f80 	cmp.w	r3, #1024	@ 0x400
 800526e:	d102      	bne.n	8005276 <HAL_PWREx_ControlVoltageScaling+0x6e>
 8005270:	68fb      	ldr	r3, [r7, #12]
 8005272:	2b00      	cmp	r3, #0
 8005274:	d1f2      	bne.n	800525c <HAL_PWREx_ControlVoltageScaling+0x54>
 8005276:	4b33      	ldr	r3, [pc, #204]	@ (8005344 <HAL_PWREx_ControlVoltageScaling+0x13c>)
 8005278:	695b      	ldr	r3, [r3, #20]
 800527a:	f403 6380 	and.w	r3, r3, #1024	@ 0x400
 800527e:	f5b3 6f80 	cmp.w	r3, #1024	@ 0x400
 8005282:	d158      	bne.n	8005336 <HAL_PWREx_ControlVoltageScaling+0x12e>
 8005284:	2303      	movs	r3, #3
 8005286:	e057      	b.n	8005338 <HAL_PWREx_ControlVoltageScaling+0x130>
 8005288:	4b2e      	ldr	r3, [pc, #184]	@ (8005344 <HAL_PWREx_ControlVoltageScaling+0x13c>)
 800528a:	f8d3 3080 	ldr.w	r3, [r3, #128]	@ 0x80
 800528e:	4a2d      	ldr	r2, [pc, #180]	@ (8005344 <HAL_PWREx_ControlVoltageScaling+0x13c>)
 8005290:	f423 7380 	bic.w	r3, r3, #256	@ 0x100
 8005294:	f8c2 3080 	str.w	r3, [r2, #128]	@ 0x80
 8005298:	e04d      	b.n	8005336 <HAL_PWREx_ControlVoltageScaling+0x12e>
 800529a:	687b      	ldr	r3, [r7, #4]
 800529c:	f5b3 7f00 	cmp.w	r3, #512	@ 0x200
 80052a0:	d141      	bne.n	8005326 <HAL_PWREx_ControlVoltageScaling+0x11e>
 80052a2:	4b28      	ldr	r3, [pc, #160]	@ (8005344 <HAL_PWREx_ControlVoltageScaling+0x13c>)
 80052a4:	681b      	ldr	r3, [r3, #0]
 80052a6:	f403 63c0 	and.w	r3, r3, #1536	@ 0x600
 80052aa:	f5b3 6f80 	cmp.w	r3, #1024	@ 0x400
 80052ae:	d131      	bne.n	8005314 <HAL_PWREx_ControlVoltageScaling+0x10c>
 80052b0:	4b24      	ldr	r3, [pc, #144]	@ (8005344 <HAL_PWREx_ControlVoltageScaling+0x13c>)
 80052b2:	f8d3 3080 	ldr.w	r3, [r3, #128]	@ 0x80
 80052b6:	4a23      	ldr	r2, [pc, #140]	@ (8005344 <HAL_PWREx_ControlVoltageScaling+0x13c>)
 80052b8:	f443 7380 	orr.w	r3, r3, #256	@ 0x100
 80052bc:	f8c2 3080 	str.w	r3, [r2, #128]	@ 0x80
 80052c0:	4b20      	ldr	r3, [pc, #128]	@ (8005344 <HAL_PWREx_ControlVoltageScaling+0x13c>)
 80052c2:	681b      	ldr	r3, [r3, #0]
 80052c4:	f423 63c0 	bic.w	r3, r3, #1536	@ 0x600
 80052c8:	4a1e      	ldr	r2, [pc, #120]	@ (8005344 <HAL_PWREx_ControlVoltageScaling+0x13c>)
 80052ca:	f443 7300 	orr.w	r3, r3, #512	@ 0x200
 80052ce:	6013      	str	r3, [r2, #0]
 80052d0:	4b1d      	ldr	r3, [pc, #116]	@ (8005348 <HAL_PWREx_ControlVoltageScaling+0x140>)
 80052d2:	681b      	ldr	r3, [r3, #0]
 80052d4:	2232      	movs	r2, #50	@ 0x32
 80052d6:	fb02 f303 	mul.w	r3, r2, r3
 80052da:	4a1c      	ldr	r2, [pc, #112]	@ (800534c <HAL_PWREx_ControlVoltageScaling+0x144>)
 80052dc:	fba2 2303 	umull	r2, r3, r2, r3
 80052e0:	0c9b      	lsrs	r3, r3, #18
 80052e2:	3301      	adds	r3, #1
 80052e4:	60fb      	str	r3, [r7, #12]
 80052e6:	e002      	b.n	80052ee <HAL_PWREx_ControlVoltageScaling+0xe6>
 80052e8:	68fb      	ldr	r3, [r7, #12]
 80052ea:	3b01      	subs	r3, #1
 80052ec:	60fb      	str	r3, [r7, #12]
 80052ee:	4b15      	ldr	r3, [pc, #84]	@ (8005344 <HAL_PWREx_ControlVoltageScaling+0x13c>)
 80052f0:	695b      	ldr	r3, [r3, #20]
 80052f2:	f403 6380 	and.w	r3, r3, #1024	@ 0x400
 80052f6:	f5b3 6f80 	cmp.w	r3, #1024	@ 0x400
 80052fa:	d102      	bne.n	8005302 <HAL_PWREx_ControlVoltageScaling+0xfa>
 80052fc:	68fb      	ldr	r3, [r7, #12]
 80052fe:	2b00      	cmp	r3, #0
 8005300:	d1f2      	bne.n	80052e8 <HAL_PWREx_ControlVoltageScaling+0xe0>
 8005302:	4b10      	ldr	r3, [pc, #64]	@ (8005344 <HAL_PWREx_ControlVoltageScaling+0x13c>)
 8005304:	695b      	ldr	r3, [r3, #20]
 8005306:	f403 6380 	and.w	r3, r3, #1024	@ 0x400
 800530a:	f5b3 6f80 	cmp.w	r3, #1024	@ 0x400
 800530e:	d112      	bne.n	8005336 <HAL_PWREx_ControlVoltageScaling+0x12e>
 8005310:	2303      	movs	r3, #3
 8005312:	e011      	b.n	8005338 <HAL_PWREx_ControlVoltageScaling+0x130>
 8005314:	4b0b      	ldr	r3, [pc, #44]	@ (8005344 <HAL_PWREx_ControlVoltageScaling+0x13c>)
 8005316:	f8d3 3080 	ldr.w	r3, [r3, #128]	@ 0x80
 800531a:	4a0a      	ldr	r2, [pc, #40]	@ (8005344 <HAL_PWREx_ControlVoltageScaling+0x13c>)
 800531c:	f443 7380 	orr.w	r3, r3, #256	@ 0x100
 8005320:	f8c2 3080 	str.w	r3, [r2, #128]	@ 0x80
 8005324:	e007      	b.n	8005336 <HAL_PWREx_ControlVoltageScaling+0x12e>
 8005326:	4b07      	ldr	r3, [pc, #28]	@ (8005344 <HAL_PWREx_ControlVoltageScaling+0x13c>)
 8005328:	681b      	ldr	r3, [r3, #0]
 800532a:	f423 63c0 	bic.w	r3, r3, #1536	@ 0x600
 800532e:	4a05      	ldr	r2, [pc, #20]	@ (8005344 <HAL_PWREx_ControlVoltageScaling+0x13c>)
 8005330:	f443 6380 	orr.w	r3, r3, #1024	@ 0x400
 8005334:	6013      	str	r3, [r2, #0]
 8005336:	2300      	movs	r3, #0
 8005338:	4618      	mov	r0, r3
 800533a:	3714      	adds	r7, #20
 800533c:	46bd      	mov	sp, r7
 800533e:	f85d 7b04 	ldr.w	r7, [sp], #4
 8005342:	4770      	bx	lr
 8005344:	40007000 	.word	0x40007000
 8005348:	20000030 	.word	0x20000030
 800534c:	431bde83 	.word	0x431bde83

08005350 <HAL_PWREx_DisableUCPDDeadBattery>:
 8005350:	b480      	push	{r7}
 8005352:	af00      	add	r7, sp, #0
 8005354:	4b05      	ldr	r3, [pc, #20]	@ (800536c <HAL_PWREx_DisableUCPDDeadBattery+0x1c>)
 8005356:	689b      	ldr	r3, [r3, #8]
 8005358:	4a04      	ldr	r2, [pc, #16]	@ (800536c <HAL_PWREx_DisableUCPDDeadBattery+0x1c>)
 800535a:	f443 4380 	orr.w	r3, r3, #16384	@ 0x4000
 800535e:	6093      	str	r3, [r2, #8]
 8005360:	bf00      	nop
 8005362:	46bd      	mov	sp, r7
 8005364:	f85d 7b04 	ldr.w	r7, [sp], #4
 8005368:	4770      	bx	lr
 800536a:	bf00      	nop
 800536c:	40007000 	.word	0x40007000

08005370 <HAL_RCC_OscConfig>:
 8005370:	b580      	push	{r7, lr}
 8005372:	b088      	sub	sp, #32
 8005374:	af00      	add	r7, sp, #0
 8005376:	6078      	str	r0, [r7, #4]
 8005378:	687b      	ldr	r3, [r7, #4]
 800537a:	2b00      	cmp	r3, #0
 800537c:	d101      	bne.n	8005382 <HAL_RCC_OscConfig+0x12>
 800537e:	2301      	movs	r3, #1
 8005380:	e2fe      	b.n	8005980 <HAL_RCC_OscConfig+0x610>
 8005382:	687b      	ldr	r3, [r7, #4]
 8005384:	681b      	ldr	r3, [r3, #0]
 8005386:	f003 0301 	and.w	r3, r3, #1
 800538a:	2b00      	cmp	r3, #0
 800538c:	d075      	beq.n	800547a <HAL_RCC_OscConfig+0x10a>
 800538e:	4b97      	ldr	r3, [pc, #604]	@ (80055ec <HAL_RCC_OscConfig+0x27c>)
 8005390:	689b      	ldr	r3, [r3, #8]
 8005392:	f003 030c 	and.w	r3, r3, #12
 8005396:	61bb      	str	r3, [r7, #24]
 8005398:	4b94      	ldr	r3, [pc, #592]	@ (80055ec <HAL_RCC_OscConfig+0x27c>)
 800539a:	68db      	ldr	r3, [r3, #12]
 800539c:	f003 0303 	and.w	r3, r3, #3
 80053a0:	617b      	str	r3, [r7, #20]
 80053a2:	69bb      	ldr	r3, [r7, #24]
 80053a4:	2b0c      	cmp	r3, #12
 80053a6:	d102      	bne.n	80053ae <HAL_RCC_OscConfig+0x3e>
 80053a8:	697b      	ldr	r3, [r7, #20]
 80053aa:	2b03      	cmp	r3, #3
 80053ac:	d002      	beq.n	80053b4 <HAL_RCC_OscConfig+0x44>
 80053ae:	69bb      	ldr	r3, [r7, #24]
 80053b0:	2b08      	cmp	r3, #8
 80053b2:	d10b      	bne.n	80053cc <HAL_RCC_OscConfig+0x5c>
 80053b4:	4b8d      	ldr	r3, [pc, #564]	@ (80055ec <HAL_RCC_OscConfig+0x27c>)
 80053b6:	681b      	ldr	r3, [r3, #0]
 80053b8:	f403 3300 	and.w	r3, r3, #131072	@ 0x20000
 80053bc:	2b00      	cmp	r3, #0
 80053be:	d05b      	beq.n	8005478 <HAL_RCC_OscConfig+0x108>
 80053c0:	687b      	ldr	r3, [r7, #4]
 80053c2:	685b      	ldr	r3, [r3, #4]
 80053c4:	2b00      	cmp	r3, #0
 80053c6:	d157      	bne.n	8005478 <HAL_RCC_OscConfig+0x108>
 80053c8:	2301      	movs	r3, #1
 80053ca:	e2d9      	b.n	8005980 <HAL_RCC_OscConfig+0x610>
 80053cc:	687b      	ldr	r3, [r7, #4]
 80053ce:	685b      	ldr	r3, [r3, #4]
 80053d0:	f5b3 3f80 	cmp.w	r3, #65536	@ 0x10000
 80053d4:	d106      	bne.n	80053e4 <HAL_RCC_OscConfig+0x74>
 80053d6:	4b85      	ldr	r3, [pc, #532]	@ (80055ec <HAL_RCC_OscConfig+0x27c>)
 80053d8:	681b      	ldr	r3, [r3, #0]
 80053da:	4a84      	ldr	r2, [pc, #528]	@ (80055ec <HAL_RCC_OscConfig+0x27c>)
 80053dc:	f443 3380 	orr.w	r3, r3, #65536	@ 0x10000
 80053e0:	6013      	str	r3, [r2, #0]
 80053e2:	e01d      	b.n	8005420 <HAL_RCC_OscConfig+0xb0>
 80053e4:	687b      	ldr	r3, [r7, #4]
 80053e6:	685b      	ldr	r3, [r3, #4]
 80053e8:	f5b3 2fa0 	cmp.w	r3, #327680	@ 0x50000
 80053ec:	d10c      	bne.n	8005408 <HAL_RCC_OscConfig+0x98>
 80053ee:	4b7f      	ldr	r3, [pc, #508]	@ (80055ec <HAL_RCC_OscConfig+0x27c>)
 80053f0:	681b      	ldr	r3, [r3, #0]
 80053f2:	4a7e      	ldr	r2, [pc, #504]	@ (80055ec <HAL_RCC_OscConfig+0x27c>)
 80053f4:	f443 2380 	orr.w	r3, r3, #262144	@ 0x40000
 80053f8:	6013      	str	r3, [r2, #0]
 80053fa:	4b7c      	ldr	r3, [pc, #496]	@ (80055ec <HAL_RCC_OscConfig+0x27c>)
 80053fc:	681b      	ldr	r3, [r3, #0]
 80053fe:	4a7b      	ldr	r2, [pc, #492]	@ (80055ec <HAL_RCC_OscConfig+0x27c>)
 8005400:	f443 3380 	orr.w	r3, r3, #65536	@ 0x10000
 8005404:	6013      	str	r3, [r2, #0]
 8005406:	e00b      	b.n	8005420 <HAL_RCC_OscConfig+0xb0>
 8005408:	4b78      	ldr	r3, [pc, #480]	@ (80055ec <HAL_RCC_OscConfig+0x27c>)
 800540a:	681b      	ldr	r3, [r3, #0]
 800540c:	4a77      	ldr	r2, [pc, #476]	@ (80055ec <HAL_RCC_OscConfig+0x27c>)
 800540e:	f423 3380 	bic.w	r3, r3, #65536	@ 0x10000
 8005412:	6013      	str	r3, [r2, #0]
 8005414:	4b75      	ldr	r3, [pc, #468]	@ (80055ec <HAL_RCC_OscConfig+0x27c>)
 8005416:	681b      	ldr	r3, [r3, #0]
 8005418:	4a74      	ldr	r2, [pc, #464]	@ (80055ec <HAL_RCC_OscConfig+0x27c>)
 800541a:	f423 2380 	bic.w	r3, r3, #262144	@ 0x40000
 800541e:	6013      	str	r3, [r2, #0]
 8005420:	687b      	ldr	r3, [r7, #4]
 8005422:	685b      	ldr	r3, [r3, #4]
 8005424:	2b00      	cmp	r3, #0
 8005426:	d013      	beq.n	8005450 <HAL_RCC_OscConfig+0xe0>
 8005428:	f7fc ffc2 	bl	80023b0 <HAL_GetTick>
 800542c:	6138      	str	r0, [r7, #16]
 800542e:	e008      	b.n	8005442 <HAL_RCC_OscConfig+0xd2>
 8005430:	f7fc ffbe 	bl	80023b0 <HAL_GetTick>
 8005434:	4602      	mov	r2, r0
 8005436:	693b      	ldr	r3, [r7, #16]
 8005438:	1ad3      	subs	r3, r2, r3
 800543a:	2b64      	cmp	r3, #100	@ 0x64
 800543c:	d901      	bls.n	8005442 <HAL_RCC_OscConfig+0xd2>
 800543e:	2303      	movs	r3, #3
 8005440:	e29e      	b.n	8005980 <HAL_RCC_OscConfig+0x610>
 8005442:	4b6a      	ldr	r3, [pc, #424]	@ (80055ec <HAL_RCC_OscConfig+0x27c>)
 8005444:	681b      	ldr	r3, [r3, #0]
 8005446:	f403 3300 	and.w	r3, r3, #131072	@ 0x20000
 800544a:	2b00      	cmp	r3, #0
 800544c:	d0f0      	beq.n	8005430 <HAL_RCC_OscConfig+0xc0>
 800544e:	e014      	b.n	800547a <HAL_RCC_OscConfig+0x10a>
 8005450:	f7fc ffae 	bl	80023b0 <HAL_GetTick>
 8005454:	6138      	str	r0, [r7, #16]
 8005456:	e008      	b.n	800546a <HAL_RCC_OscConfig+0xfa>
 8005458:	f7fc ffaa 	bl	80023b0 <HAL_GetTick>
 800545c:	4602      	mov	r2, r0
 800545e:	693b      	ldr	r3, [r7, #16]
 8005460:	1ad3      	subs	r3, r2, r3
 8005462:	2b64      	cmp	r3, #100	@ 0x64
 8005464:	d901      	bls.n	800546a <HAL_RCC_OscConfig+0xfa>
 8005466:	2303      	movs	r3, #3
 8005468:	e28a      	b.n	8005980 <HAL_RCC_OscConfig+0x610>
 800546a:	4b60      	ldr	r3, [pc, #384]	@ (80055ec <HAL_RCC_OscConfig+0x27c>)
 800546c:	681b      	ldr	r3, [r3, #0]
 800546e:	f403 3300 	and.w	r3, r3, #131072	@ 0x20000
 8005472:	2b00      	cmp	r3, #0
 8005474:	d1f0      	bne.n	8005458 <HAL_RCC_OscConfig+0xe8>
 8005476:	e000      	b.n	800547a <HAL_RCC_OscConfig+0x10a>
 8005478:	bf00      	nop
 800547a:	687b      	ldr	r3, [r7, #4]
 800547c:	681b      	ldr	r3, [r3, #0]
 800547e:	f003 0302 	and.w	r3, r3, #2
 8005482:	2b00      	cmp	r3, #0
 8005484:	d075      	beq.n	8005572 <HAL_RCC_OscConfig+0x202>
 8005486:	4b59      	ldr	r3, [pc, #356]	@ (80055ec <HAL_RCC_OscConfig+0x27c>)
 8005488:	689b      	ldr	r3, [r3, #8]
 800548a:	f003 030c 	and.w	r3, r3, #12
 800548e:	61bb      	str	r3, [r7, #24]
 8005490:	4b56      	ldr	r3, [pc, #344]	@ (80055ec <HAL_RCC_OscConfig+0x27c>)
 8005492:	68db      	ldr	r3, [r3, #12]
 8005494:	f003 0303 	and.w	r3, r3, #3
 8005498:	617b      	str	r3, [r7, #20]
 800549a:	69bb      	ldr	r3, [r7, #24]
 800549c:	2b0c      	cmp	r3, #12
 800549e:	d102      	bne.n	80054a6 <HAL_RCC_OscConfig+0x136>
 80054a0:	697b      	ldr	r3, [r7, #20]
 80054a2:	2b02      	cmp	r3, #2
 80054a4:	d002      	beq.n	80054ac <HAL_RCC_OscConfig+0x13c>
 80054a6:	69bb      	ldr	r3, [r7, #24]
 80054a8:	2b04      	cmp	r3, #4
 80054aa:	d11f      	bne.n	80054ec <HAL_RCC_OscConfig+0x17c>
 80054ac:	4b4f      	ldr	r3, [pc, #316]	@ (80055ec <HAL_RCC_OscConfig+0x27c>)
 80054ae:	681b      	ldr	r3, [r3, #0]
 80054b0:	f403 6380 	and.w	r3, r3, #1024	@ 0x400
 80054b4:	2b00      	cmp	r3, #0
 80054b6:	d005      	beq.n	80054c4 <HAL_RCC_OscConfig+0x154>
 80054b8:	687b      	ldr	r3, [r7, #4]
 80054ba:	68db      	ldr	r3, [r3, #12]
 80054bc:	2b00      	cmp	r3, #0
 80054be:	d101      	bne.n	80054c4 <HAL_RCC_OscConfig+0x154>
 80054c0:	2301      	movs	r3, #1
 80054c2:	e25d      	b.n	8005980 <HAL_RCC_OscConfig+0x610>
 80054c4:	4b49      	ldr	r3, [pc, #292]	@ (80055ec <HAL_RCC_OscConfig+0x27c>)
 80054c6:	685b      	ldr	r3, [r3, #4]
 80054c8:	f023 42fe 	bic.w	r2, r3, #2130706432	@ 0x7f000000
 80054cc:	687b      	ldr	r3, [r7, #4]
 80054ce:	691b      	ldr	r3, [r3, #16]
 80054d0:	061b      	lsls	r3, r3, #24
 80054d2:	4946      	ldr	r1, [pc, #280]	@ (80055ec <HAL_RCC_OscConfig+0x27c>)
 80054d4:	4313      	orrs	r3, r2
 80054d6:	604b      	str	r3, [r1, #4]
 80054d8:	4b45      	ldr	r3, [pc, #276]	@ (80055f0 <HAL_RCC_OscConfig+0x280>)
 80054da:	681b      	ldr	r3, [r3, #0]
 80054dc:	4618      	mov	r0, r3
 80054de:	f7fc ff1b 	bl	8002318 <HAL_InitTick>
 80054e2:	4603      	mov	r3, r0
 80054e4:	2b00      	cmp	r3, #0
 80054e6:	d043      	beq.n	8005570 <HAL_RCC_OscConfig+0x200>
 80054e8:	2301      	movs	r3, #1
 80054ea:	e249      	b.n	8005980 <HAL_RCC_OscConfig+0x610>
 80054ec:	687b      	ldr	r3, [r7, #4]
 80054ee:	68db      	ldr	r3, [r3, #12]
 80054f0:	2b00      	cmp	r3, #0
 80054f2:	d023      	beq.n	800553c <HAL_RCC_OscConfig+0x1cc>
 80054f4:	4b3d      	ldr	r3, [pc, #244]	@ (80055ec <HAL_RCC_OscConfig+0x27c>)
 80054f6:	681b      	ldr	r3, [r3, #0]
 80054f8:	4a3c      	ldr	r2, [pc, #240]	@ (80055ec <HAL_RCC_OscConfig+0x27c>)
 80054fa:	f443 7380 	orr.w	r3, r3, #256	@ 0x100
 80054fe:	6013      	str	r3, [r2, #0]
 8005500:	f7fc ff56 	bl	80023b0 <HAL_GetTick>
 8005504:	6138      	str	r0, [r7, #16]
 8005506:	e008      	b.n	800551a <HAL_RCC_OscConfig+0x1aa>
 8005508:	f7fc ff52 	bl	80023b0 <HAL_GetTick>
 800550c:	4602      	mov	r2, r0
 800550e:	693b      	ldr	r3, [r7, #16]
 8005510:	1ad3      	subs	r3, r2, r3
 8005512:	2b02      	cmp	r3, #2
 8005514:	d901      	bls.n	800551a <HAL_RCC_OscConfig+0x1aa>
 8005516:	2303      	movs	r3, #3
 8005518:	e232      	b.n	8005980 <HAL_RCC_OscConfig+0x610>
 800551a:	4b34      	ldr	r3, [pc, #208]	@ (80055ec <HAL_RCC_OscConfig+0x27c>)
 800551c:	681b      	ldr	r3, [r3, #0]
 800551e:	f403 6380 	and.w	r3, r3, #1024	@ 0x400
 8005522:	2b00      	cmp	r3, #0
 8005524:	d0f0      	beq.n	8005508 <HAL_RCC_OscConfig+0x198>
 8005526:	4b31      	ldr	r3, [pc, #196]	@ (80055ec <HAL_RCC_OscConfig+0x27c>)
 8005528:	685b      	ldr	r3, [r3, #4]
 800552a:	f023 42fe 	bic.w	r2, r3, #2130706432	@ 0x7f000000
 800552e:	687b      	ldr	r3, [r7, #4]
 8005530:	691b      	ldr	r3, [r3, #16]
 8005532:	061b      	lsls	r3, r3, #24
 8005534:	492d      	ldr	r1, [pc, #180]	@ (80055ec <HAL_RCC_OscConfig+0x27c>)
 8005536:	4313      	orrs	r3, r2
 8005538:	604b      	str	r3, [r1, #4]
 800553a:	e01a      	b.n	8005572 <HAL_RCC_OscConfig+0x202>
 800553c:	4b2b      	ldr	r3, [pc, #172]	@ (80055ec <HAL_RCC_OscConfig+0x27c>)
 800553e:	681b      	ldr	r3, [r3, #0]
 8005540:	4a2a      	ldr	r2, [pc, #168]	@ (80055ec <HAL_RCC_OscConfig+0x27c>)
 8005542:	f423 7380 	bic.w	r3, r3, #256	@ 0x100
 8005546:	6013      	str	r3, [r2, #0]
 8005548:	f7fc ff32 	bl	80023b0 <HAL_GetTick>
 800554c:	6138      	str	r0, [r7, #16]
 800554e:	e008      	b.n	8005562 <HAL_RCC_OscConfig+0x1f2>
 8005550:	f7fc ff2e 	bl	80023b0 <HAL_GetTick>
 8005554:	4602      	mov	r2, r0
 8005556:	693b      	ldr	r3, [r7, #16]
 8005558:	1ad3      	subs	r3, r2, r3
 800555a:	2b02      	cmp	r3, #2
 800555c:	d901      	bls.n	8005562 <HAL_RCC_OscConfig+0x1f2>
 800555e:	2303      	movs	r3, #3
 8005560:	e20e      	b.n	8005980 <HAL_RCC_OscConfig+0x610>
 8005562:	4b22      	ldr	r3, [pc, #136]	@ (80055ec <HAL_RCC_OscConfig+0x27c>)
 8005564:	681b      	ldr	r3, [r3, #0]
 8005566:	f403 6380 	and.w	r3, r3, #1024	@ 0x400
 800556a:	2b00      	cmp	r3, #0
 800556c:	d1f0      	bne.n	8005550 <HAL_RCC_OscConfig+0x1e0>
 800556e:	e000      	b.n	8005572 <HAL_RCC_OscConfig+0x202>
 8005570:	bf00      	nop
 8005572:	687b      	ldr	r3, [r7, #4]
 8005574:	681b      	ldr	r3, [r3, #0]
 8005576:	f003 0308 	and.w	r3, r3, #8
 800557a:	2b00      	cmp	r3, #0
 800557c:	d041      	beq.n	8005602 <HAL_RCC_OscConfig+0x292>
 800557e:	687b      	ldr	r3, [r7, #4]
 8005580:	695b      	ldr	r3, [r3, #20]
 8005582:	2b00      	cmp	r3, #0
 8005584:	d01c      	beq.n	80055c0 <HAL_RCC_OscConfig+0x250>
 8005586:	4b19      	ldr	r3, [pc, #100]	@ (80055ec <HAL_RCC_OscConfig+0x27c>)
 8005588:	f8d3 3094 	ldr.w	r3, [r3, #148]	@ 0x94
 800558c:	4a17      	ldr	r2, [pc, #92]	@ (80055ec <HAL_RCC_OscConfig+0x27c>)
 800558e:	f043 0301 	orr.w	r3, r3, #1
 8005592:	f8c2 3094 	str.w	r3, [r2, #148]	@ 0x94
 8005596:	f7fc ff0b 	bl	80023b0 <HAL_GetTick>
 800559a:	6138      	str	r0, [r7, #16]
 800559c:	e008      	b.n	80055b0 <HAL_RCC_OscConfig+0x240>
 800559e:	f7fc ff07 	bl	80023b0 <HAL_GetTick>
 80055a2:	4602      	mov	r2, r0
 80055a4:	693b      	ldr	r3, [r7, #16]
 80055a6:	1ad3      	subs	r3, r2, r3
 80055a8:	2b02      	cmp	r3, #2
 80055aa:	d901      	bls.n	80055b0 <HAL_RCC_OscConfig+0x240>
 80055ac:	2303      	movs	r3, #3
 80055ae:	e1e7      	b.n	8005980 <HAL_RCC_OscConfig+0x610>
 80055b0:	4b0e      	ldr	r3, [pc, #56]	@ (80055ec <HAL_RCC_OscConfig+0x27c>)
 80055b2:	f8d3 3094 	ldr.w	r3, [r3, #148]	@ 0x94
 80055b6:	f003 0302 	and.w	r3, r3, #2
 80055ba:	2b00      	cmp	r3, #0
 80055bc:	d0ef      	beq.n	800559e <HAL_RCC_OscConfig+0x22e>
 80055be:	e020      	b.n	8005602 <HAL_RCC_OscConfig+0x292>
 80055c0:	4b0a      	ldr	r3, [pc, #40]	@ (80055ec <HAL_RCC_OscConfig+0x27c>)
 80055c2:	f8d3 3094 	ldr.w	r3, [r3, #148]	@ 0x94
 80055c6:	4a09      	ldr	r2, [pc, #36]	@ (80055ec <HAL_RCC_OscConfig+0x27c>)
 80055c8:	f023 0301 	bic.w	r3, r3, #1
 80055cc:	f8c2 3094 	str.w	r3, [r2, #148]	@ 0x94
 80055d0:	f7fc feee 	bl	80023b0 <HAL_GetTick>
 80055d4:	6138      	str	r0, [r7, #16]
 80055d6:	e00d      	b.n	80055f4 <HAL_RCC_OscConfig+0x284>
 80055d8:	f7fc feea 	bl	80023b0 <HAL_GetTick>
 80055dc:	4602      	mov	r2, r0
 80055de:	693b      	ldr	r3, [r7, #16]
 80055e0:	1ad3      	subs	r3, r2, r3
 80055e2:	2b02      	cmp	r3, #2
 80055e4:	d906      	bls.n	80055f4 <HAL_RCC_OscConfig+0x284>
 80055e6:	2303      	movs	r3, #3
 80055e8:	e1ca      	b.n	8005980 <HAL_RCC_OscConfig+0x610>
 80055ea:	bf00      	nop
 80055ec:	40021000 	.word	0x40021000
 80055f0:	20000034 	.word	0x20000034
 80055f4:	4b8c      	ldr	r3, [pc, #560]	@ (8005828 <HAL_RCC_OscConfig+0x4b8>)
 80055f6:	f8d3 3094 	ldr.w	r3, [r3, #148]	@ 0x94
 80055fa:	f003 0302 	and.w	r3, r3, #2
 80055fe:	2b00      	cmp	r3, #0
 8005600:	d1ea      	bne.n	80055d8 <HAL_RCC_OscConfig+0x268>
 8005602:	687b      	ldr	r3, [r7, #4]
 8005604:	681b      	ldr	r3, [r3, #0]
 8005606:	f003 0304 	and.w	r3, r3, #4
 800560a:	2b00      	cmp	r3, #0
 800560c:	f000 80a6 	beq.w	800575c <HAL_RCC_OscConfig+0x3ec>
 8005610:	2300      	movs	r3, #0
 8005612:	77fb      	strb	r3, [r7, #31]
 8005614:	4b84      	ldr	r3, [pc, #528]	@ (8005828 <HAL_RCC_OscConfig+0x4b8>)
 8005616:	6d9b      	ldr	r3, [r3, #88]	@ 0x58
 8005618:	f003 5380 	and.w	r3, r3, #268435456	@ 0x10000000
 800561c:	2b00      	cmp	r3, #0
 800561e:	d101      	bne.n	8005624 <HAL_RCC_OscConfig+0x2b4>
 8005620:	2301      	movs	r3, #1
 8005622:	e000      	b.n	8005626 <HAL_RCC_OscConfig+0x2b6>
 8005624:	2300      	movs	r3, #0
 8005626:	2b00      	cmp	r3, #0
 8005628:	d00d      	beq.n	8005646 <HAL_RCC_OscConfig+0x2d6>
 800562a:	4b7f      	ldr	r3, [pc, #508]	@ (8005828 <HAL_RCC_OscConfig+0x4b8>)
 800562c:	6d9b      	ldr	r3, [r3, #88]	@ 0x58
 800562e:	4a7e      	ldr	r2, [pc, #504]	@ (8005828 <HAL_RCC_OscConfig+0x4b8>)
 8005630:	f043 5380 	orr.w	r3, r3, #268435456	@ 0x10000000
 8005634:	6593      	str	r3, [r2, #88]	@ 0x58
 8005636:	4b7c      	ldr	r3, [pc, #496]	@ (8005828 <HAL_RCC_OscConfig+0x4b8>)
 8005638:	6d9b      	ldr	r3, [r3, #88]	@ 0x58
 800563a:	f003 5380 	and.w	r3, r3, #268435456	@ 0x10000000
 800563e:	60fb      	str	r3, [r7, #12]
 8005640:	68fb      	ldr	r3, [r7, #12]
 8005642:	2301      	movs	r3, #1
 8005644:	77fb      	strb	r3, [r7, #31]
 8005646:	4b79      	ldr	r3, [pc, #484]	@ (800582c <HAL_RCC_OscConfig+0x4bc>)
 8005648:	681b      	ldr	r3, [r3, #0]
 800564a:	f403 7380 	and.w	r3, r3, #256	@ 0x100
 800564e:	2b00      	cmp	r3, #0
 8005650:	d118      	bne.n	8005684 <HAL_RCC_OscConfig+0x314>
 8005652:	4b76      	ldr	r3, [pc, #472]	@ (800582c <HAL_RCC_OscConfig+0x4bc>)
 8005654:	681b      	ldr	r3, [r3, #0]
 8005656:	4a75      	ldr	r2, [pc, #468]	@ (800582c <HAL_RCC_OscConfig+0x4bc>)
 8005658:	f443 7380 	orr.w	r3, r3, #256	@ 0x100
 800565c:	6013      	str	r3, [r2, #0]
 800565e:	f7fc fea7 	bl	80023b0 <HAL_GetTick>
 8005662:	6138      	str	r0, [r7, #16]
 8005664:	e008      	b.n	8005678 <HAL_RCC_OscConfig+0x308>
 8005666:	f7fc fea3 	bl	80023b0 <HAL_GetTick>
 800566a:	4602      	mov	r2, r0
 800566c:	693b      	ldr	r3, [r7, #16]
 800566e:	1ad3      	subs	r3, r2, r3
 8005670:	2b02      	cmp	r3, #2
 8005672:	d901      	bls.n	8005678 <HAL_RCC_OscConfig+0x308>
 8005674:	2303      	movs	r3, #3
 8005676:	e183      	b.n	8005980 <HAL_RCC_OscConfig+0x610>
 8005678:	4b6c      	ldr	r3, [pc, #432]	@ (800582c <HAL_RCC_OscConfig+0x4bc>)
 800567a:	681b      	ldr	r3, [r3, #0]
 800567c:	f403 7380 	and.w	r3, r3, #256	@ 0x100
 8005680:	2b00      	cmp	r3, #0
 8005682:	d0f0      	beq.n	8005666 <HAL_RCC_OscConfig+0x2f6>
 8005684:	687b      	ldr	r3, [r7, #4]
 8005686:	689b      	ldr	r3, [r3, #8]
 8005688:	2b01      	cmp	r3, #1
 800568a:	d108      	bne.n	800569e <HAL_RCC_OscConfig+0x32e>
 800568c:	4b66      	ldr	r3, [pc, #408]	@ (8005828 <HAL_RCC_OscConfig+0x4b8>)
 800568e:	f8d3 3090 	ldr.w	r3, [r3, #144]	@ 0x90
 8005692:	4a65      	ldr	r2, [pc, #404]	@ (8005828 <HAL_RCC_OscConfig+0x4b8>)
 8005694:	f043 0301 	orr.w	r3, r3, #1
 8005698:	f8c2 3090 	str.w	r3, [r2, #144]	@ 0x90
 800569c:	e024      	b.n	80056e8 <HAL_RCC_OscConfig+0x378>
 800569e:	687b      	ldr	r3, [r7, #4]
 80056a0:	689b      	ldr	r3, [r3, #8]
 80056a2:	2b05      	cmp	r3, #5
 80056a4:	d110      	bne.n	80056c8 <HAL_RCC_OscConfig+0x358>
 80056a6:	4b60      	ldr	r3, [pc, #384]	@ (8005828 <HAL_RCC_OscConfig+0x4b8>)
 80056a8:	f8d3 3090 	ldr.w	r3, [r3, #144]	@ 0x90
 80056ac:	4a5e      	ldr	r2, [pc, #376]	@ (8005828 <HAL_RCC_OscConfig+0x4b8>)
 80056ae:	f043 0304 	orr.w	r3, r3, #4
 80056b2:	f8c2 3090 	str.w	r3, [r2, #144]	@ 0x90
 80056b6:	4b5c      	ldr	r3, [pc, #368]	@ (8005828 <HAL_RCC_OscConfig+0x4b8>)
 80056b8:	f8d3 3090 	ldr.w	r3, [r3, #144]	@ 0x90
 80056bc:	4a5a      	ldr	r2, [pc, #360]	@ (8005828 <HAL_RCC_OscConfig+0x4b8>)
 80056be:	f043 0301 	orr.w	r3, r3, #1
 80056c2:	f8c2 3090 	str.w	r3, [r2, #144]	@ 0x90
 80056c6:	e00f      	b.n	80056e8 <HAL_RCC_OscConfig+0x378>
 80056c8:	4b57      	ldr	r3, [pc, #348]	@ (8005828 <HAL_RCC_OscConfig+0x4b8>)
 80056ca:	f8d3 3090 	ldr.w	r3, [r3, #144]	@ 0x90
 80056ce:	4a56      	ldr	r2, [pc, #344]	@ (8005828 <HAL_RCC_OscConfig+0x4b8>)
 80056d0:	f023 0301 	bic.w	r3, r3, #1
 80056d4:	f8c2 3090 	str.w	r3, [r2, #144]	@ 0x90
 80056d8:	4b53      	ldr	r3, [pc, #332]	@ (8005828 <HAL_RCC_OscConfig+0x4b8>)
 80056da:	f8d3 3090 	ldr.w	r3, [r3, #144]	@ 0x90
 80056de:	4a52      	ldr	r2, [pc, #328]	@ (8005828 <HAL_RCC_OscConfig+0x4b8>)
 80056e0:	f023 0304 	bic.w	r3, r3, #4
 80056e4:	f8c2 3090 	str.w	r3, [r2, #144]	@ 0x90
 80056e8:	687b      	ldr	r3, [r7, #4]
 80056ea:	689b      	ldr	r3, [r3, #8]
 80056ec:	2b00      	cmp	r3, #0
 80056ee:	d016      	beq.n	800571e <HAL_RCC_OscConfig+0x3ae>
 80056f0:	f7fc fe5e 	bl	80023b0 <HAL_GetTick>
 80056f4:	6138      	str	r0, [r7, #16]
 80056f6:	e00a      	b.n	800570e <HAL_RCC_OscConfig+0x39e>
 80056f8:	f7fc fe5a 	bl	80023b0 <HAL_GetTick>
 80056fc:	4602      	mov	r2, r0
 80056fe:	693b      	ldr	r3, [r7, #16]
 8005700:	1ad3      	subs	r3, r2, r3
 8005702:	f241 3288 	movw	r2, #5000	@ 0x1388
 8005706:	4293      	cmp	r3, r2
 8005708:	d901      	bls.n	800570e <HAL_RCC_OscConfig+0x39e>
 800570a:	2303      	movs	r3, #3
 800570c:	e138      	b.n	8005980 <HAL_RCC_OscConfig+0x610>
 800570e:	4b46      	ldr	r3, [pc, #280]	@ (8005828 <HAL_RCC_OscConfig+0x4b8>)
 8005710:	f8d3 3090 	ldr.w	r3, [r3, #144]	@ 0x90
 8005714:	f003 0302 	and.w	r3, r3, #2
 8005718:	2b00      	cmp	r3, #0
 800571a:	d0ed      	beq.n	80056f8 <HAL_RCC_OscConfig+0x388>
 800571c:	e015      	b.n	800574a <HAL_RCC_OscConfig+0x3da>
 800571e:	f7fc fe47 	bl	80023b0 <HAL_GetTick>
 8005722:	6138      	str	r0, [r7, #16]
 8005724:	e00a      	b.n	800573c <HAL_RCC_OscConfig+0x3cc>
 8005726:	f7fc fe43 	bl	80023b0 <HAL_GetTick>
 800572a:	4602      	mov	r2, r0
 800572c:	693b      	ldr	r3, [r7, #16]
 800572e:	1ad3      	subs	r3, r2, r3
 8005730:	f241 3288 	movw	r2, #5000	@ 0x1388
 8005734:	4293      	cmp	r3, r2
 8005736:	d901      	bls.n	800573c <HAL_RCC_OscConfig+0x3cc>
 8005738:	2303      	movs	r3, #3
 800573a:	e121      	b.n	8005980 <HAL_RCC_OscConfig+0x610>
 800573c:	4b3a      	ldr	r3, [pc, #232]	@ (8005828 <HAL_RCC_OscConfig+0x4b8>)
 800573e:	f8d3 3090 	ldr.w	r3, [r3, #144]	@ 0x90
 8005742:	f003 0302 	and.w	r3, r3, #2
 8005746:	2b00      	cmp	r3, #0
 8005748:	d1ed      	bne.n	8005726 <HAL_RCC_OscConfig+0x3b6>
 800574a:	7ffb      	ldrb	r3, [r7, #31]
 800574c:	2b01      	cmp	r3, #1
 800574e:	d105      	bne.n	800575c <HAL_RCC_OscConfig+0x3ec>
 8005750:	4b35      	ldr	r3, [pc, #212]	@ (8005828 <HAL_RCC_OscConfig+0x4b8>)
 8005752:	6d9b      	ldr	r3, [r3, #88]	@ 0x58
 8005754:	4a34      	ldr	r2, [pc, #208]	@ (8005828 <HAL_RCC_OscConfig+0x4b8>)
 8005756:	f023 5380 	bic.w	r3, r3, #268435456	@ 0x10000000
 800575a:	6593      	str	r3, [r2, #88]	@ 0x58
 800575c:	687b      	ldr	r3, [r7, #4]
 800575e:	681b      	ldr	r3, [r3, #0]
 8005760:	f003 0320 	and.w	r3, r3, #32
 8005764:	2b00      	cmp	r3, #0
 8005766:	d03c      	beq.n	80057e2 <HAL_RCC_OscConfig+0x472>
 8005768:	687b      	ldr	r3, [r7, #4]
 800576a:	699b      	ldr	r3, [r3, #24]
 800576c:	2b00      	cmp	r3, #0
 800576e:	d01c      	beq.n	80057aa <HAL_RCC_OscConfig+0x43a>
 8005770:	4b2d      	ldr	r3, [pc, #180]	@ (8005828 <HAL_RCC_OscConfig+0x4b8>)
 8005772:	f8d3 3098 	ldr.w	r3, [r3, #152]	@ 0x98
 8005776:	4a2c      	ldr	r2, [pc, #176]	@ (8005828 <HAL_RCC_OscConfig+0x4b8>)
 8005778:	f043 0301 	orr.w	r3, r3, #1
 800577c:	f8c2 3098 	str.w	r3, [r2, #152]	@ 0x98
 8005780:	f7fc fe16 	bl	80023b0 <HAL_GetTick>
 8005784:	6138      	str	r0, [r7, #16]
 8005786:	e008      	b.n	800579a <HAL_RCC_OscConfig+0x42a>
 8005788:	f7fc fe12 	bl	80023b0 <HAL_GetTick>
 800578c:	4602      	mov	r2, r0
 800578e:	693b      	ldr	r3, [r7, #16]
 8005790:	1ad3      	subs	r3, r2, r3
 8005792:	2b02      	cmp	r3, #2
 8005794:	d901      	bls.n	800579a <HAL_RCC_OscConfig+0x42a>
 8005796:	2303      	movs	r3, #3
 8005798:	e0f2      	b.n	8005980 <HAL_RCC_OscConfig+0x610>
 800579a:	4b23      	ldr	r3, [pc, #140]	@ (8005828 <HAL_RCC_OscConfig+0x4b8>)
 800579c:	f8d3 3098 	ldr.w	r3, [r3, #152]	@ 0x98
 80057a0:	f003 0302 	and.w	r3, r3, #2
 80057a4:	2b00      	cmp	r3, #0
 80057a6:	d0ef      	beq.n	8005788 <HAL_RCC_OscConfig+0x418>
 80057a8:	e01b      	b.n	80057e2 <HAL_RCC_OscConfig+0x472>
 80057aa:	4b1f      	ldr	r3, [pc, #124]	@ (8005828 <HAL_RCC_OscConfig+0x4b8>)
 80057ac:	f8d3 3098 	ldr.w	r3, [r3, #152]	@ 0x98
 80057b0:	4a1d      	ldr	r2, [pc, #116]	@ (8005828 <HAL_RCC_OscConfig+0x4b8>)
 80057b2:	f023 0301 	bic.w	r3, r3, #1
 80057b6:	f8c2 3098 	str.w	r3, [r2, #152]	@ 0x98
 80057ba:	f7fc fdf9 	bl	80023b0 <HAL_GetTick>
 80057be:	6138      	str	r0, [r7, #16]
 80057c0:	e008      	b.n	80057d4 <HAL_RCC_OscConfig+0x464>
 80057c2:	f7fc fdf5 	bl	80023b0 <HAL_GetTick>
 80057c6:	4602      	mov	r2, r0
 80057c8:	693b      	ldr	r3, [r7, #16]
 80057ca:	1ad3      	subs	r3, r2, r3
 80057cc:	2b02      	cmp	r3, #2
 80057ce:	d901      	bls.n	80057d4 <HAL_RCC_OscConfig+0x464>
 80057d0:	2303      	movs	r3, #3
 80057d2:	e0d5      	b.n	8005980 <HAL_RCC_OscConfig+0x610>
 80057d4:	4b14      	ldr	r3, [pc, #80]	@ (8005828 <HAL_RCC_OscConfig+0x4b8>)
 80057d6:	f8d3 3098 	ldr.w	r3, [r3, #152]	@ 0x98
 80057da:	f003 0302 	and.w	r3, r3, #2
 80057de:	2b00      	cmp	r3, #0
 80057e0:	d1ef      	bne.n	80057c2 <HAL_RCC_OscConfig+0x452>
 80057e2:	687b      	ldr	r3, [r7, #4]
 80057e4:	69db      	ldr	r3, [r3, #28]
 80057e6:	2b00      	cmp	r3, #0
 80057e8:	f000 80c9 	beq.w	800597e <HAL_RCC_OscConfig+0x60e>
 80057ec:	4b0e      	ldr	r3, [pc, #56]	@ (8005828 <HAL_RCC_OscConfig+0x4b8>)
 80057ee:	689b      	ldr	r3, [r3, #8]
 80057f0:	f003 030c 	and.w	r3, r3, #12
 80057f4:	2b0c      	cmp	r3, #12
 80057f6:	f000 8083 	beq.w	8005900 <HAL_RCC_OscConfig+0x590>
 80057fa:	687b      	ldr	r3, [r7, #4]
 80057fc:	69db      	ldr	r3, [r3, #28]
 80057fe:	2b02      	cmp	r3, #2
 8005800:	d15e      	bne.n	80058c0 <HAL_RCC_OscConfig+0x550>
 8005802:	4b09      	ldr	r3, [pc, #36]	@ (8005828 <HAL_RCC_OscConfig+0x4b8>)
 8005804:	681b      	ldr	r3, [r3, #0]
 8005806:	4a08      	ldr	r2, [pc, #32]	@ (8005828 <HAL_RCC_OscConfig+0x4b8>)
 8005808:	f023 7380 	bic.w	r3, r3, #16777216	@ 0x1000000
 800580c:	6013      	str	r3, [r2, #0]
 800580e:	f7fc fdcf 	bl	80023b0 <HAL_GetTick>
 8005812:	6138      	str	r0, [r7, #16]
 8005814:	e00c      	b.n	8005830 <HAL_RCC_OscConfig+0x4c0>
 8005816:	f7fc fdcb 	bl	80023b0 <HAL_GetTick>
 800581a:	4602      	mov	r2, r0
 800581c:	693b      	ldr	r3, [r7, #16]
 800581e:	1ad3      	subs	r3, r2, r3
 8005820:	2b02      	cmp	r3, #2
 8005822:	d905      	bls.n	8005830 <HAL_RCC_OscConfig+0x4c0>
 8005824:	2303      	movs	r3, #3
 8005826:	e0ab      	b.n	8005980 <HAL_RCC_OscConfig+0x610>
 8005828:	40021000 	.word	0x40021000
 800582c:	40007000 	.word	0x40007000
 8005830:	4b55      	ldr	r3, [pc, #340]	@ (8005988 <HAL_RCC_OscConfig+0x618>)
 8005832:	681b      	ldr	r3, [r3, #0]
 8005834:	f003 7300 	and.w	r3, r3, #33554432	@ 0x2000000
 8005838:	2b00      	cmp	r3, #0
 800583a:	d1ec      	bne.n	8005816 <HAL_RCC_OscConfig+0x4a6>
 800583c:	4b52      	ldr	r3, [pc, #328]	@ (8005988 <HAL_RCC_OscConfig+0x618>)
 800583e:	68da      	ldr	r2, [r3, #12]
 8005840:	4b52      	ldr	r3, [pc, #328]	@ (800598c <HAL_RCC_OscConfig+0x61c>)
 8005842:	4013      	ands	r3, r2
 8005844:	687a      	ldr	r2, [r7, #4]
 8005846:	6a11      	ldr	r1, [r2, #32]
 8005848:	687a      	ldr	r2, [r7, #4]
 800584a:	6a52      	ldr	r2, [r2, #36]	@ 0x24
 800584c:	3a01      	subs	r2, #1
 800584e:	0112      	lsls	r2, r2, #4
 8005850:	4311      	orrs	r1, r2
 8005852:	687a      	ldr	r2, [r7, #4]
 8005854:	6a92      	ldr	r2, [r2, #40]	@ 0x28
 8005856:	0212      	lsls	r2, r2, #8
 8005858:	4311      	orrs	r1, r2
 800585a:	687a      	ldr	r2, [r7, #4]
 800585c:	6b12      	ldr	r2, [r2, #48]	@ 0x30
 800585e:	0852      	lsrs	r2, r2, #1
 8005860:	3a01      	subs	r2, #1
 8005862:	0552      	lsls	r2, r2, #21
 8005864:	4311      	orrs	r1, r2
 8005866:	687a      	ldr	r2, [r7, #4]
 8005868:	6b52      	ldr	r2, [r2, #52]	@ 0x34
 800586a:	0852      	lsrs	r2, r2, #1
 800586c:	3a01      	subs	r2, #1
 800586e:	0652      	lsls	r2, r2, #25
 8005870:	4311      	orrs	r1, r2
 8005872:	687a      	ldr	r2, [r7, #4]
 8005874:	6ad2      	ldr	r2, [r2, #44]	@ 0x2c
 8005876:	06d2      	lsls	r2, r2, #27
 8005878:	430a      	orrs	r2, r1
 800587a:	4943      	ldr	r1, [pc, #268]	@ (8005988 <HAL_RCC_OscConfig+0x618>)
 800587c:	4313      	orrs	r3, r2
 800587e:	60cb      	str	r3, [r1, #12]
 8005880:	4b41      	ldr	r3, [pc, #260]	@ (8005988 <HAL_RCC_OscConfig+0x618>)
 8005882:	681b      	ldr	r3, [r3, #0]
 8005884:	4a40      	ldr	r2, [pc, #256]	@ (8005988 <HAL_RCC_OscConfig+0x618>)
 8005886:	f043 7380 	orr.w	r3, r3, #16777216	@ 0x1000000
 800588a:	6013      	str	r3, [r2, #0]
 800588c:	4b3e      	ldr	r3, [pc, #248]	@ (8005988 <HAL_RCC_OscConfig+0x618>)
 800588e:	68db      	ldr	r3, [r3, #12]
 8005890:	4a3d      	ldr	r2, [pc, #244]	@ (8005988 <HAL_RCC_OscConfig+0x618>)
 8005892:	f043 7380 	orr.w	r3, r3, #16777216	@ 0x1000000
 8005896:	60d3      	str	r3, [r2, #12]
 8005898:	f7fc fd8a 	bl	80023b0 <HAL_GetTick>
 800589c:	6138      	str	r0, [r7, #16]
 800589e:	e008      	b.n	80058b2 <HAL_RCC_OscConfig+0x542>
 80058a0:	f7fc fd86 	bl	80023b0 <HAL_GetTick>
 80058a4:	4602      	mov	r2, r0
 80058a6:	693b      	ldr	r3, [r7, #16]
 80058a8:	1ad3      	subs	r3, r2, r3
 80058aa:	2b02      	cmp	r3, #2
 80058ac:	d901      	bls.n	80058b2 <HAL_RCC_OscConfig+0x542>
 80058ae:	2303      	movs	r3, #3
 80058b0:	e066      	b.n	8005980 <HAL_RCC_OscConfig+0x610>
 80058b2:	4b35      	ldr	r3, [pc, #212]	@ (8005988 <HAL_RCC_OscConfig+0x618>)
 80058b4:	681b      	ldr	r3, [r3, #0]
 80058b6:	f003 7300 	and.w	r3, r3, #33554432	@ 0x2000000
 80058ba:	2b00      	cmp	r3, #0
 80058bc:	d0f0      	beq.n	80058a0 <HAL_RCC_OscConfig+0x530>
 80058be:	e05e      	b.n	800597e <HAL_RCC_OscConfig+0x60e>
 80058c0:	4b31      	ldr	r3, [pc, #196]	@ (8005988 <HAL_RCC_OscConfig+0x618>)
 80058c2:	681b      	ldr	r3, [r3, #0]
 80058c4:	4a30      	ldr	r2, [pc, #192]	@ (8005988 <HAL_RCC_OscConfig+0x618>)
 80058c6:	f023 7380 	bic.w	r3, r3, #16777216	@ 0x1000000
 80058ca:	6013      	str	r3, [r2, #0]
 80058cc:	f7fc fd70 	bl	80023b0 <HAL_GetTick>
 80058d0:	6138      	str	r0, [r7, #16]
 80058d2:	e008      	b.n	80058e6 <HAL_RCC_OscConfig+0x576>
 80058d4:	f7fc fd6c 	bl	80023b0 <HAL_GetTick>
 80058d8:	4602      	mov	r2, r0
 80058da:	693b      	ldr	r3, [r7, #16]
 80058dc:	1ad3      	subs	r3, r2, r3
 80058de:	2b02      	cmp	r3, #2
 80058e0:	d901      	bls.n	80058e6 <HAL_RCC_OscConfig+0x576>
 80058e2:	2303      	movs	r3, #3
 80058e4:	e04c      	b.n	8005980 <HAL_RCC_OscConfig+0x610>
 80058e6:	4b28      	ldr	r3, [pc, #160]	@ (8005988 <HAL_RCC_OscConfig+0x618>)
 80058e8:	681b      	ldr	r3, [r3, #0]
 80058ea:	f003 7300 	and.w	r3, r3, #33554432	@ 0x2000000
 80058ee:	2b00      	cmp	r3, #0
 80058f0:	d1f0      	bne.n	80058d4 <HAL_RCC_OscConfig+0x564>
 80058f2:	4b25      	ldr	r3, [pc, #148]	@ (8005988 <HAL_RCC_OscConfig+0x618>)
 80058f4:	68da      	ldr	r2, [r3, #12]
 80058f6:	4924      	ldr	r1, [pc, #144]	@ (8005988 <HAL_RCC_OscConfig+0x618>)
 80058f8:	4b25      	ldr	r3, [pc, #148]	@ (8005990 <HAL_RCC_OscConfig+0x620>)
 80058fa:	4013      	ands	r3, r2
 80058fc:	60cb      	str	r3, [r1, #12]
 80058fe:	e03e      	b.n	800597e <HAL_RCC_OscConfig+0x60e>
 8005900:	687b      	ldr	r3, [r7, #4]
 8005902:	69db      	ldr	r3, [r3, #28]
 8005904:	2b01      	cmp	r3, #1
 8005906:	d101      	bne.n	800590c <HAL_RCC_OscConfig+0x59c>
 8005908:	2301      	movs	r3, #1
 800590a:	e039      	b.n	8005980 <HAL_RCC_OscConfig+0x610>
 800590c:	4b1e      	ldr	r3, [pc, #120]	@ (8005988 <HAL_RCC_OscConfig+0x618>)
 800590e:	68db      	ldr	r3, [r3, #12]
 8005910:	617b      	str	r3, [r7, #20]
 8005912:	697b      	ldr	r3, [r7, #20]
 8005914:	f003 0203 	and.w	r2, r3, #3
 8005918:	687b      	ldr	r3, [r7, #4]
 800591a:	6a1b      	ldr	r3, [r3, #32]
 800591c:	429a      	cmp	r2, r3
 800591e:	d12c      	bne.n	800597a <HAL_RCC_OscConfig+0x60a>
 8005920:	697b      	ldr	r3, [r7, #20]
 8005922:	f003 02f0 	and.w	r2, r3, #240	@ 0xf0
 8005926:	687b      	ldr	r3, [r7, #4]
 8005928:	6a5b      	ldr	r3, [r3, #36]	@ 0x24
 800592a:	3b01      	subs	r3, #1
 800592c:	011b      	lsls	r3, r3, #4
 800592e:	429a      	cmp	r2, r3
 8005930:	d123      	bne.n	800597a <HAL_RCC_OscConfig+0x60a>
 8005932:	697b      	ldr	r3, [r7, #20]
 8005934:	f403 42fe 	and.w	r2, r3, #32512	@ 0x7f00
 8005938:	687b      	ldr	r3, [r7, #4]
 800593a:	6a9b      	ldr	r3, [r3, #40]	@ 0x28
 800593c:	021b      	lsls	r3, r3, #8
 800593e:	429a      	cmp	r2, r3
 8005940:	d11b      	bne.n	800597a <HAL_RCC_OscConfig+0x60a>
 8005942:	697b      	ldr	r3, [r7, #20]
 8005944:	f003 4278 	and.w	r2, r3, #4160749568	@ 0xf8000000
 8005948:	687b      	ldr	r3, [r7, #4]
 800594a:	6adb      	ldr	r3, [r3, #44]	@ 0x2c
 800594c:	06db      	lsls	r3, r3, #27
 800594e:	429a      	cmp	r2, r3
 8005950:	d113      	bne.n	800597a <HAL_RCC_OscConfig+0x60a>
 8005952:	697b      	ldr	r3, [r7, #20]
 8005954:	f403 02c0 	and.w	r2, r3, #6291456	@ 0x600000
 8005958:	687b      	ldr	r3, [r7, #4]
 800595a:	6b1b      	ldr	r3, [r3, #48]	@ 0x30
 800595c:	085b      	lsrs	r3, r3, #1
 800595e:	3b01      	subs	r3, #1
 8005960:	055b      	lsls	r3, r3, #21
 8005962:	429a      	cmp	r2, r3
 8005964:	d109      	bne.n	800597a <HAL_RCC_OscConfig+0x60a>
 8005966:	697b      	ldr	r3, [r7, #20]
 8005968:	f003 62c0 	and.w	r2, r3, #100663296	@ 0x6000000
 800596c:	687b      	ldr	r3, [r7, #4]
 800596e:	6b5b      	ldr	r3, [r3, #52]	@ 0x34
 8005970:	085b      	lsrs	r3, r3, #1
 8005972:	3b01      	subs	r3, #1
 8005974:	065b      	lsls	r3, r3, #25
 8005976:	429a      	cmp	r2, r3
 8005978:	d001      	beq.n	800597e <HAL_RCC_OscConfig+0x60e>
 800597a:	2301      	movs	r3, #1
 800597c:	e000      	b.n	8005980 <HAL_RCC_OscConfig+0x610>
 800597e:	2300      	movs	r3, #0
 8005980:	4618      	mov	r0, r3
 8005982:	3720      	adds	r7, #32
 8005984:	46bd      	mov	sp, r7
 8005986:	bd80      	pop	{r7, pc}
 8005988:	40021000 	.word	0x40021000
 800598c:	019f800c 	.word	0x019f800c
 8005990:	feeefffc 	.word	0xfeeefffc

08005994 <HAL_RCC_ClockConfig>:
 8005994:	b580      	push	{r7, lr}
 8005996:	b086      	sub	sp, #24
 8005998:	af00      	add	r7, sp, #0
 800599a:	6078      	str	r0, [r7, #4]
 800599c:	6039      	str	r1, [r7, #0]
 800599e:	2300      	movs	r3, #0
 80059a0:	617b      	str	r3, [r7, #20]
 80059a2:	687b      	ldr	r3, [r7, #4]
 80059a4:	2b00      	cmp	r3, #0
 80059a6:	d101      	bne.n	80059ac <HAL_RCC_ClockConfig+0x18>
 80059a8:	2301      	movs	r3, #1
 80059aa:	e11e      	b.n	8005bea <HAL_RCC_ClockConfig+0x256>
 80059ac:	4b91      	ldr	r3, [pc, #580]	@ (8005bf4 <HAL_RCC_ClockConfig+0x260>)
 80059ae:	681b      	ldr	r3, [r3, #0]
 80059b0:	f003 030f 	and.w	r3, r3, #15
 80059b4:	683a      	ldr	r2, [r7, #0]
 80059b6:	429a      	cmp	r2, r3
 80059b8:	d910      	bls.n	80059dc <HAL_RCC_ClockConfig+0x48>
 80059ba:	4b8e      	ldr	r3, [pc, #568]	@ (8005bf4 <HAL_RCC_ClockConfig+0x260>)
 80059bc:	681b      	ldr	r3, [r3, #0]
 80059be:	f023 020f 	bic.w	r2, r3, #15
 80059c2:	498c      	ldr	r1, [pc, #560]	@ (8005bf4 <HAL_RCC_ClockConfig+0x260>)
 80059c4:	683b      	ldr	r3, [r7, #0]
 80059c6:	4313      	orrs	r3, r2
 80059c8:	600b      	str	r3, [r1, #0]
 80059ca:	4b8a      	ldr	r3, [pc, #552]	@ (8005bf4 <HAL_RCC_ClockConfig+0x260>)
 80059cc:	681b      	ldr	r3, [r3, #0]
 80059ce:	f003 030f 	and.w	r3, r3, #15
 80059d2:	683a      	ldr	r2, [r7, #0]
 80059d4:	429a      	cmp	r2, r3
 80059d6:	d001      	beq.n	80059dc <HAL_RCC_ClockConfig+0x48>
 80059d8:	2301      	movs	r3, #1
 80059da:	e106      	b.n	8005bea <HAL_RCC_ClockConfig+0x256>
 80059dc:	687b      	ldr	r3, [r7, #4]
 80059de:	681b      	ldr	r3, [r3, #0]
 80059e0:	f003 0301 	and.w	r3, r3, #1
 80059e4:	2b00      	cmp	r3, #0
 80059e6:	d073      	beq.n	8005ad0 <HAL_RCC_ClockConfig+0x13c>
 80059e8:	687b      	ldr	r3, [r7, #4]
 80059ea:	685b      	ldr	r3, [r3, #4]
 80059ec:	2b03      	cmp	r3, #3
 80059ee:	d129      	bne.n	8005a44 <HAL_RCC_ClockConfig+0xb0>
 80059f0:	4b81      	ldr	r3, [pc, #516]	@ (8005bf8 <HAL_RCC_ClockConfig+0x264>)
 80059f2:	681b      	ldr	r3, [r3, #0]
 80059f4:	f003 7300 	and.w	r3, r3, #33554432	@ 0x2000000
 80059f8:	2b00      	cmp	r3, #0
 80059fa:	d101      	bne.n	8005a00 <HAL_RCC_ClockConfig+0x6c>
 80059fc:	2301      	movs	r3, #1
 80059fe:	e0f4      	b.n	8005bea <HAL_RCC_ClockConfig+0x256>
 8005a00:	f000 f99e 	bl	8005d40 <RCC_GetSysClockFreqFromPLLSource>
 8005a04:	6138      	str	r0, [r7, #16]
 8005a06:	693b      	ldr	r3, [r7, #16]
 8005a08:	4a7c      	ldr	r2, [pc, #496]	@ (8005bfc <HAL_RCC_ClockConfig+0x268>)
 8005a0a:	4293      	cmp	r3, r2
 8005a0c:	d93f      	bls.n	8005a8e <HAL_RCC_ClockConfig+0xfa>
 8005a0e:	4b7a      	ldr	r3, [pc, #488]	@ (8005bf8 <HAL_RCC_ClockConfig+0x264>)
 8005a10:	689b      	ldr	r3, [r3, #8]
 8005a12:	f003 03f0 	and.w	r3, r3, #240	@ 0xf0
 8005a16:	2b00      	cmp	r3, #0
 8005a18:	d009      	beq.n	8005a2e <HAL_RCC_ClockConfig+0x9a>
 8005a1a:	687b      	ldr	r3, [r7, #4]
 8005a1c:	681b      	ldr	r3, [r3, #0]
 8005a1e:	f003 0302 	and.w	r3, r3, #2
 8005a22:	2b00      	cmp	r3, #0
 8005a24:	d033      	beq.n	8005a8e <HAL_RCC_ClockConfig+0xfa>
 8005a26:	687b      	ldr	r3, [r7, #4]
 8005a28:	689b      	ldr	r3, [r3, #8]
 8005a2a:	2b00      	cmp	r3, #0
 8005a2c:	d12f      	bne.n	8005a8e <HAL_RCC_ClockConfig+0xfa>
 8005a2e:	4b72      	ldr	r3, [pc, #456]	@ (8005bf8 <HAL_RCC_ClockConfig+0x264>)
 8005a30:	689b      	ldr	r3, [r3, #8]
 8005a32:	f023 03f0 	bic.w	r3, r3, #240	@ 0xf0
 8005a36:	4a70      	ldr	r2, [pc, #448]	@ (8005bf8 <HAL_RCC_ClockConfig+0x264>)
 8005a38:	f043 0380 	orr.w	r3, r3, #128	@ 0x80
 8005a3c:	6093      	str	r3, [r2, #8]
 8005a3e:	2380      	movs	r3, #128	@ 0x80
 8005a40:	617b      	str	r3, [r7, #20]
 8005a42:	e024      	b.n	8005a8e <HAL_RCC_ClockConfig+0xfa>
 8005a44:	687b      	ldr	r3, [r7, #4]
 8005a46:	685b      	ldr	r3, [r3, #4]
 8005a48:	2b02      	cmp	r3, #2
 8005a4a:	d107      	bne.n	8005a5c <HAL_RCC_ClockConfig+0xc8>
 8005a4c:	4b6a      	ldr	r3, [pc, #424]	@ (8005bf8 <HAL_RCC_ClockConfig+0x264>)
 8005a4e:	681b      	ldr	r3, [r3, #0]
 8005a50:	f403 3300 	and.w	r3, r3, #131072	@ 0x20000
 8005a54:	2b00      	cmp	r3, #0
 8005a56:	d109      	bne.n	8005a6c <HAL_RCC_ClockConfig+0xd8>
 8005a58:	2301      	movs	r3, #1
 8005a5a:	e0c6      	b.n	8005bea <HAL_RCC_ClockConfig+0x256>
 8005a5c:	4b66      	ldr	r3, [pc, #408]	@ (8005bf8 <HAL_RCC_ClockConfig+0x264>)
 8005a5e:	681b      	ldr	r3, [r3, #0]
 8005a60:	f403 6380 	and.w	r3, r3, #1024	@ 0x400
 8005a64:	2b00      	cmp	r3, #0
 8005a66:	d101      	bne.n	8005a6c <HAL_RCC_ClockConfig+0xd8>
 8005a68:	2301      	movs	r3, #1
 8005a6a:	e0be      	b.n	8005bea <HAL_RCC_ClockConfig+0x256>
 8005a6c:	f000 f8ce 	bl	8005c0c <HAL_RCC_GetSysClockFreq>
 8005a70:	6138      	str	r0, [r7, #16]
 8005a72:	693b      	ldr	r3, [r7, #16]
 8005a74:	4a61      	ldr	r2, [pc, #388]	@ (8005bfc <HAL_RCC_ClockConfig+0x268>)
 8005a76:	4293      	cmp	r3, r2
 8005a78:	d909      	bls.n	8005a8e <HAL_RCC_ClockConfig+0xfa>
 8005a7a:	4b5f      	ldr	r3, [pc, #380]	@ (8005bf8 <HAL_RCC_ClockConfig+0x264>)
 8005a7c:	689b      	ldr	r3, [r3, #8]
 8005a7e:	f023 03f0 	bic.w	r3, r3, #240	@ 0xf0
 8005a82:	4a5d      	ldr	r2, [pc, #372]	@ (8005bf8 <HAL_RCC_ClockConfig+0x264>)
 8005a84:	f043 0380 	orr.w	r3, r3, #128	@ 0x80
 8005a88:	6093      	str	r3, [r2, #8]
 8005a8a:	2380      	movs	r3, #128	@ 0x80
 8005a8c:	617b      	str	r3, [r7, #20]
 8005a8e:	4b5a      	ldr	r3, [pc, #360]	@ (8005bf8 <HAL_RCC_ClockConfig+0x264>)
 8005a90:	689b      	ldr	r3, [r3, #8]
 8005a92:	f023 0203 	bic.w	r2, r3, #3
 8005a96:	687b      	ldr	r3, [r7, #4]
 8005a98:	685b      	ldr	r3, [r3, #4]
 8005a9a:	4957      	ldr	r1, [pc, #348]	@ (8005bf8 <HAL_RCC_ClockConfig+0x264>)
 8005a9c:	4313      	orrs	r3, r2
 8005a9e:	608b      	str	r3, [r1, #8]
 8005aa0:	f7fc fc86 	bl	80023b0 <HAL_GetTick>
 8005aa4:	60f8      	str	r0, [r7, #12]
 8005aa6:	e00a      	b.n	8005abe <HAL_RCC_ClockConfig+0x12a>
 8005aa8:	f7fc fc82 	bl	80023b0 <HAL_GetTick>
 8005aac:	4602      	mov	r2, r0
 8005aae:	68fb      	ldr	r3, [r7, #12]
 8005ab0:	1ad3      	subs	r3, r2, r3
 8005ab2:	f241 3288 	movw	r2, #5000	@ 0x1388
 8005ab6:	4293      	cmp	r3, r2
 8005ab8:	d901      	bls.n	8005abe <HAL_RCC_ClockConfig+0x12a>
 8005aba:	2303      	movs	r3, #3
 8005abc:	e095      	b.n	8005bea <HAL_RCC_ClockConfig+0x256>
 8005abe:	4b4e      	ldr	r3, [pc, #312]	@ (8005bf8 <HAL_RCC_ClockConfig+0x264>)
 8005ac0:	689b      	ldr	r3, [r3, #8]
 8005ac2:	f003 020c 	and.w	r2, r3, #12
 8005ac6:	687b      	ldr	r3, [r7, #4]
 8005ac8:	685b      	ldr	r3, [r3, #4]
 8005aca:	009b      	lsls	r3, r3, #2
 8005acc:	429a      	cmp	r2, r3
 8005ace:	d1eb      	bne.n	8005aa8 <HAL_RCC_ClockConfig+0x114>
 8005ad0:	687b      	ldr	r3, [r7, #4]
 8005ad2:	681b      	ldr	r3, [r3, #0]
 8005ad4:	f003 0302 	and.w	r3, r3, #2
 8005ad8:	2b00      	cmp	r3, #0
 8005ada:	d023      	beq.n	8005b24 <HAL_RCC_ClockConfig+0x190>
 8005adc:	687b      	ldr	r3, [r7, #4]
 8005ade:	681b      	ldr	r3, [r3, #0]
 8005ae0:	f003 0304 	and.w	r3, r3, #4
 8005ae4:	2b00      	cmp	r3, #0
 8005ae6:	d005      	beq.n	8005af4 <HAL_RCC_ClockConfig+0x160>
 8005ae8:	4b43      	ldr	r3, [pc, #268]	@ (8005bf8 <HAL_RCC_ClockConfig+0x264>)
 8005aea:	689b      	ldr	r3, [r3, #8]
 8005aec:	4a42      	ldr	r2, [pc, #264]	@ (8005bf8 <HAL_RCC_ClockConfig+0x264>)
 8005aee:	f443 63e0 	orr.w	r3, r3, #1792	@ 0x700
 8005af2:	6093      	str	r3, [r2, #8]
 8005af4:	687b      	ldr	r3, [r7, #4]
 8005af6:	681b      	ldr	r3, [r3, #0]
 8005af8:	f003 0308 	and.w	r3, r3, #8
 8005afc:	2b00      	cmp	r3, #0
 8005afe:	d007      	beq.n	8005b10 <HAL_RCC_ClockConfig+0x17c>
 8005b00:	4b3d      	ldr	r3, [pc, #244]	@ (8005bf8 <HAL_RCC_ClockConfig+0x264>)
 8005b02:	689b      	ldr	r3, [r3, #8]
 8005b04:	f423 537c 	bic.w	r3, r3, #16128	@ 0x3f00
 8005b08:	4a3b      	ldr	r2, [pc, #236]	@ (8005bf8 <HAL_RCC_ClockConfig+0x264>)
 8005b0a:	f443 63e0 	orr.w	r3, r3, #1792	@ 0x700
 8005b0e:	6093      	str	r3, [r2, #8]
 8005b10:	4b39      	ldr	r3, [pc, #228]	@ (8005bf8 <HAL_RCC_ClockConfig+0x264>)
 8005b12:	689b      	ldr	r3, [r3, #8]
 8005b14:	f023 02f0 	bic.w	r2, r3, #240	@ 0xf0
 8005b18:	687b      	ldr	r3, [r7, #4]
 8005b1a:	689b      	ldr	r3, [r3, #8]
 8005b1c:	4936      	ldr	r1, [pc, #216]	@ (8005bf8 <HAL_RCC_ClockConfig+0x264>)
 8005b1e:	4313      	orrs	r3, r2
 8005b20:	608b      	str	r3, [r1, #8]
 8005b22:	e008      	b.n	8005b36 <HAL_RCC_ClockConfig+0x1a2>
 8005b24:	697b      	ldr	r3, [r7, #20]
 8005b26:	2b80      	cmp	r3, #128	@ 0x80
 8005b28:	d105      	bne.n	8005b36 <HAL_RCC_ClockConfig+0x1a2>
 8005b2a:	4b33      	ldr	r3, [pc, #204]	@ (8005bf8 <HAL_RCC_ClockConfig+0x264>)
 8005b2c:	689b      	ldr	r3, [r3, #8]
 8005b2e:	4a32      	ldr	r2, [pc, #200]	@ (8005bf8 <HAL_RCC_ClockConfig+0x264>)
 8005b30:	f023 03f0 	bic.w	r3, r3, #240	@ 0xf0
 8005b34:	6093      	str	r3, [r2, #8]
 8005b36:	4b2f      	ldr	r3, [pc, #188]	@ (8005bf4 <HAL_RCC_ClockConfig+0x260>)
 8005b38:	681b      	ldr	r3, [r3, #0]
 8005b3a:	f003 030f 	and.w	r3, r3, #15
 8005b3e:	683a      	ldr	r2, [r7, #0]
 8005b40:	429a      	cmp	r2, r3
 8005b42:	d21d      	bcs.n	8005b80 <HAL_RCC_ClockConfig+0x1ec>
 8005b44:	4b2b      	ldr	r3, [pc, #172]	@ (8005bf4 <HAL_RCC_ClockConfig+0x260>)
 8005b46:	681b      	ldr	r3, [r3, #0]
 8005b48:	f023 020f 	bic.w	r2, r3, #15
 8005b4c:	4929      	ldr	r1, [pc, #164]	@ (8005bf4 <HAL_RCC_ClockConfig+0x260>)
 8005b4e:	683b      	ldr	r3, [r7, #0]
 8005b50:	4313      	orrs	r3, r2
 8005b52:	600b      	str	r3, [r1, #0]
 8005b54:	f7fc fc2c 	bl	80023b0 <HAL_GetTick>
 8005b58:	60f8      	str	r0, [r7, #12]
 8005b5a:	e00a      	b.n	8005b72 <HAL_RCC_ClockConfig+0x1de>
 8005b5c:	f7fc fc28 	bl	80023b0 <HAL_GetTick>
 8005b60:	4602      	mov	r2, r0
 8005b62:	68fb      	ldr	r3, [r7, #12]
 8005b64:	1ad3      	subs	r3, r2, r3
 8005b66:	f241 3288 	movw	r2, #5000	@ 0x1388
 8005b6a:	4293      	cmp	r3, r2
 8005b6c:	d901      	bls.n	8005b72 <HAL_RCC_ClockConfig+0x1de>
 8005b6e:	2303      	movs	r3, #3
 8005b70:	e03b      	b.n	8005bea <HAL_RCC_ClockConfig+0x256>
 8005b72:	4b20      	ldr	r3, [pc, #128]	@ (8005bf4 <HAL_RCC_ClockConfig+0x260>)
 8005b74:	681b      	ldr	r3, [r3, #0]
 8005b76:	f003 030f 	and.w	r3, r3, #15
 8005b7a:	683a      	ldr	r2, [r7, #0]
 8005b7c:	429a      	cmp	r2, r3
 8005b7e:	d1ed      	bne.n	8005b5c <HAL_RCC_ClockConfig+0x1c8>
 8005b80:	687b      	ldr	r3, [r7, #4]
 8005b82:	681b      	ldr	r3, [r3, #0]
 8005b84:	f003 0304 	and.w	r3, r3, #4
 8005b88:	2b00      	cmp	r3, #0
 8005b8a:	d008      	beq.n	8005b9e <HAL_RCC_ClockConfig+0x20a>
 8005b8c:	4b1a      	ldr	r3, [pc, #104]	@ (8005bf8 <HAL_RCC_ClockConfig+0x264>)
 8005b8e:	689b      	ldr	r3, [r3, #8]
 8005b90:	f423 62e0 	bic.w	r2, r3, #1792	@ 0x700
 8005b94:	687b      	ldr	r3, [r7, #4]
 8005b96:	68db      	ldr	r3, [r3, #12]
 8005b98:	4917      	ldr	r1, [pc, #92]	@ (8005bf8 <HAL_RCC_ClockConfig+0x264>)
 8005b9a:	4313      	orrs	r3, r2
 8005b9c:	608b      	str	r3, [r1, #8]
 8005b9e:	687b      	ldr	r3, [r7, #4]
 8005ba0:	681b      	ldr	r3, [r3, #0]
 8005ba2:	f003 0308 	and.w	r3, r3, #8
 8005ba6:	2b00      	cmp	r3, #0
 8005ba8:	d009      	beq.n	8005bbe <HAL_RCC_ClockConfig+0x22a>
 8005baa:	4b13      	ldr	r3, [pc, #76]	@ (8005bf8 <HAL_RCC_ClockConfig+0x264>)
 8005bac:	689b      	ldr	r3, [r3, #8]
 8005bae:	f423 5260 	bic.w	r2, r3, #14336	@ 0x3800
 8005bb2:	687b      	ldr	r3, [r7, #4]
 8005bb4:	691b      	ldr	r3, [r3, #16]
 8005bb6:	00db      	lsls	r3, r3, #3
 8005bb8:	490f      	ldr	r1, [pc, #60]	@ (8005bf8 <HAL_RCC_ClockConfig+0x264>)
 8005bba:	4313      	orrs	r3, r2
 8005bbc:	608b      	str	r3, [r1, #8]
 8005bbe:	f000 f825 	bl	8005c0c <HAL_RCC_GetSysClockFreq>
 8005bc2:	4602      	mov	r2, r0
 8005bc4:	4b0c      	ldr	r3, [pc, #48]	@ (8005bf8 <HAL_RCC_ClockConfig+0x264>)
 8005bc6:	689b      	ldr	r3, [r3, #8]
 8005bc8:	091b      	lsrs	r3, r3, #4
 8005bca:	f003 030f 	and.w	r3, r3, #15
 8005bce:	490c      	ldr	r1, [pc, #48]	@ (8005c00 <HAL_RCC_ClockConfig+0x26c>)
 8005bd0:	5ccb      	ldrb	r3, [r1, r3]
 8005bd2:	f003 031f 	and.w	r3, r3, #31
 8005bd6:	fa22 f303 	lsr.w	r3, r2, r3
 8005bda:	4a0a      	ldr	r2, [pc, #40]	@ (8005c04 <HAL_RCC_ClockConfig+0x270>)
 8005bdc:	6013      	str	r3, [r2, #0]
 8005bde:	4b0a      	ldr	r3, [pc, #40]	@ (8005c08 <HAL_RCC_ClockConfig+0x274>)
 8005be0:	681b      	ldr	r3, [r3, #0]
 8005be2:	4618      	mov	r0, r3
 8005be4:	f7fc fb98 	bl	8002318 <HAL_InitTick>
 8005be8:	4603      	mov	r3, r0
 8005bea:	4618      	mov	r0, r3
 8005bec:	3718      	adds	r7, #24
 8005bee:	46bd      	mov	sp, r7
 8005bf0:	bd80      	pop	{r7, pc}
 8005bf2:	bf00      	nop
 8005bf4:	40022000 	.word	0x40022000
 8005bf8:	40021000 	.word	0x40021000
 8005bfc:	04c4b400 	.word	0x04c4b400
 8005c00:	0800d618 	.word	0x0800d618
 8005c04:	20000030 	.word	0x20000030
 8005c08:	20000034 	.word	0x20000034

08005c0c <HAL_RCC_GetSysClockFreq>:
 8005c0c:	b480      	push	{r7}
 8005c0e:	b087      	sub	sp, #28
 8005c10:	af00      	add	r7, sp, #0
 8005c12:	4b2c      	ldr	r3, [pc, #176]	@ (8005cc4 <HAL_RCC_GetSysClockFreq+0xb8>)
 8005c14:	689b      	ldr	r3, [r3, #8]
 8005c16:	f003 030c 	and.w	r3, r3, #12
 8005c1a:	2b04      	cmp	r3, #4
 8005c1c:	d102      	bne.n	8005c24 <HAL_RCC_GetSysClockFreq+0x18>
 8005c1e:	4b2a      	ldr	r3, [pc, #168]	@ (8005cc8 <HAL_RCC_GetSysClockFreq+0xbc>)
 8005c20:	613b      	str	r3, [r7, #16]
 8005c22:	e047      	b.n	8005cb4 <HAL_RCC_GetSysClockFreq+0xa8>
 8005c24:	4b27      	ldr	r3, [pc, #156]	@ (8005cc4 <HAL_RCC_GetSysClockFreq+0xb8>)
 8005c26:	689b      	ldr	r3, [r3, #8]
 8005c28:	f003 030c 	and.w	r3, r3, #12
 8005c2c:	2b08      	cmp	r3, #8
 8005c2e:	d102      	bne.n	8005c36 <HAL_RCC_GetSysClockFreq+0x2a>
 8005c30:	4b26      	ldr	r3, [pc, #152]	@ (8005ccc <HAL_RCC_GetSysClockFreq+0xc0>)
 8005c32:	613b      	str	r3, [r7, #16]
 8005c34:	e03e      	b.n	8005cb4 <HAL_RCC_GetSysClockFreq+0xa8>
 8005c36:	4b23      	ldr	r3, [pc, #140]	@ (8005cc4 <HAL_RCC_GetSysClockFreq+0xb8>)
 8005c38:	689b      	ldr	r3, [r3, #8]
 8005c3a:	f003 030c 	and.w	r3, r3, #12
 8005c3e:	2b0c      	cmp	r3, #12
 8005c40:	d136      	bne.n	8005cb0 <HAL_RCC_GetSysClockFreq+0xa4>
 8005c42:	4b20      	ldr	r3, [pc, #128]	@ (8005cc4 <HAL_RCC_GetSysClockFreq+0xb8>)
 8005c44:	68db      	ldr	r3, [r3, #12]
 8005c46:	f003 0303 	and.w	r3, r3, #3
 8005c4a:	60fb      	str	r3, [r7, #12]
 8005c4c:	4b1d      	ldr	r3, [pc, #116]	@ (8005cc4 <HAL_RCC_GetSysClockFreq+0xb8>)
 8005c4e:	68db      	ldr	r3, [r3, #12]
 8005c50:	091b      	lsrs	r3, r3, #4
 8005c52:	f003 030f 	and.w	r3, r3, #15
 8005c56:	3301      	adds	r3, #1
 8005c58:	60bb      	str	r3, [r7, #8]
 8005c5a:	68fb      	ldr	r3, [r7, #12]
 8005c5c:	2b03      	cmp	r3, #3
 8005c5e:	d10c      	bne.n	8005c7a <HAL_RCC_GetSysClockFreq+0x6e>
 8005c60:	4a1a      	ldr	r2, [pc, #104]	@ (8005ccc <HAL_RCC_GetSysClockFreq+0xc0>)
 8005c62:	68bb      	ldr	r3, [r7, #8]
 8005c64:	fbb2 f3f3 	udiv	r3, r2, r3
 8005c68:	4a16      	ldr	r2, [pc, #88]	@ (8005cc4 <HAL_RCC_GetSysClockFreq+0xb8>)
 8005c6a:	68d2      	ldr	r2, [r2, #12]
 8005c6c:	0a12      	lsrs	r2, r2, #8
 8005c6e:	f002 027f 	and.w	r2, r2, #127	@ 0x7f
 8005c72:	fb02 f303 	mul.w	r3, r2, r3
 8005c76:	617b      	str	r3, [r7, #20]
 8005c78:	e00c      	b.n	8005c94 <HAL_RCC_GetSysClockFreq+0x88>
 8005c7a:	4a13      	ldr	r2, [pc, #76]	@ (8005cc8 <HAL_RCC_GetSysClockFreq+0xbc>)
 8005c7c:	68bb      	ldr	r3, [r7, #8]
 8005c7e:	fbb2 f3f3 	udiv	r3, r2, r3
 8005c82:	4a10      	ldr	r2, [pc, #64]	@ (8005cc4 <HAL_RCC_GetSysClockFreq+0xb8>)
 8005c84:	68d2      	ldr	r2, [r2, #12]
 8005c86:	0a12      	lsrs	r2, r2, #8
 8005c88:	f002 027f 	and.w	r2, r2, #127	@ 0x7f
 8005c8c:	fb02 f303 	mul.w	r3, r2, r3
 8005c90:	617b      	str	r3, [r7, #20]
 8005c92:	bf00      	nop
 8005c94:	4b0b      	ldr	r3, [pc, #44]	@ (8005cc4 <HAL_RCC_GetSysClockFreq+0xb8>)
 8005c96:	68db      	ldr	r3, [r3, #12]
 8005c98:	0e5b      	lsrs	r3, r3, #25
 8005c9a:	f003 0303 	and.w	r3, r3, #3
 8005c9e:	3301      	adds	r3, #1
 8005ca0:	005b      	lsls	r3, r3, #1
 8005ca2:	607b      	str	r3, [r7, #4]
 8005ca4:	697a      	ldr	r2, [r7, #20]
 8005ca6:	687b      	ldr	r3, [r7, #4]
 8005ca8:	fbb2 f3f3 	udiv	r3, r2, r3
 8005cac:	613b      	str	r3, [r7, #16]
 8005cae:	e001      	b.n	8005cb4 <HAL_RCC_GetSysClockFreq+0xa8>
 8005cb0:	2300      	movs	r3, #0
 8005cb2:	613b      	str	r3, [r7, #16]
 8005cb4:	693b      	ldr	r3, [r7, #16]
 8005cb6:	4618      	mov	r0, r3
 8005cb8:	371c      	adds	r7, #28
 8005cba:	46bd      	mov	sp, r7
 8005cbc:	f85d 7b04 	ldr.w	r7, [sp], #4
 8005cc0:	4770      	bx	lr
 8005cc2:	bf00      	nop
 8005cc4:	40021000 	.word	0x40021000
 8005cc8:	00f42400 	.word	0x00f42400
 8005ccc:	017d7840 	.word	0x017d7840

08005cd0 <HAL_RCC_GetHCLKFreq>:
 8005cd0:	b480      	push	{r7}
 8005cd2:	af00      	add	r7, sp, #0
 8005cd4:	4b03      	ldr	r3, [pc, #12]	@ (8005ce4 <HAL_RCC_GetHCLKFreq+0x14>)
 8005cd6:	681b      	ldr	r3, [r3, #0]
 8005cd8:	4618      	mov	r0, r3
 8005cda:	46bd      	mov	sp, r7
 8005cdc:	f85d 7b04 	ldr.w	r7, [sp], #4
 8005ce0:	4770      	bx	lr
 8005ce2:	bf00      	nop
 8005ce4:	20000030 	.word	0x20000030

08005ce8 <HAL_RCC_GetPCLK1Freq>:
 8005ce8:	b580      	push	{r7, lr}
 8005cea:	af00      	add	r7, sp, #0
 8005cec:	f7ff fff0 	bl	8005cd0 <HAL_RCC_GetHCLKFreq>
 8005cf0:	4602      	mov	r2, r0
 8005cf2:	4b06      	ldr	r3, [pc, #24]	@ (8005d0c <HAL_RCC_GetPCLK1Freq+0x24>)
 8005cf4:	689b      	ldr	r3, [r3, #8]
 8005cf6:	0a1b      	lsrs	r3, r3, #8
 8005cf8:	f003 0307 	and.w	r3, r3, #7
 8005cfc:	4904      	ldr	r1, [pc, #16]	@ (8005d10 <HAL_RCC_GetPCLK1Freq+0x28>)
 8005cfe:	5ccb      	ldrb	r3, [r1, r3]
 8005d00:	f003 031f 	and.w	r3, r3, #31
 8005d04:	fa22 f303 	lsr.w	r3, r2, r3
 8005d08:	4618      	mov	r0, r3
 8005d0a:	bd80      	pop	{r7, pc}
 8005d0c:	40021000 	.word	0x40021000
 8005d10:	0800d628 	.word	0x0800d628

08005d14 <HAL_RCC_GetPCLK2Freq>:
 8005d14:	b580      	push	{r7, lr}
 8005d16:	af00      	add	r7, sp, #0
 8005d18:	f7ff ffda 	bl	8005cd0 <HAL_RCC_GetHCLKFreq>
 8005d1c:	4602      	mov	r2, r0
 8005d1e:	4b06      	ldr	r3, [pc, #24]	@ (8005d38 <HAL_RCC_GetPCLK2Freq+0x24>)
 8005d20:	689b      	ldr	r3, [r3, #8]
 8005d22:	0adb      	lsrs	r3, r3, #11
 8005d24:	f003 0307 	and.w	r3, r3, #7
 8005d28:	4904      	ldr	r1, [pc, #16]	@ (8005d3c <HAL_RCC_GetPCLK2Freq+0x28>)
 8005d2a:	5ccb      	ldrb	r3, [r1, r3]
 8005d2c:	f003 031f 	and.w	r3, r3, #31
 8005d30:	fa22 f303 	lsr.w	r3, r2, r3
 8005d34:	4618      	mov	r0, r3
 8005d36:	bd80      	pop	{r7, pc}
 8005d38:	40021000 	.word	0x40021000
 8005d3c:	0800d628 	.word	0x0800d628

08005d40 <RCC_GetSysClockFreqFromPLLSource>:
 8005d40:	b480      	push	{r7}
 8005d42:	b087      	sub	sp, #28
 8005d44:	af00      	add	r7, sp, #0
 8005d46:	4b1e      	ldr	r3, [pc, #120]	@ (8005dc0 <RCC_GetSysClockFreqFromPLLSource+0x80>)
 8005d48:	68db      	ldr	r3, [r3, #12]
 8005d4a:	f003 0303 	and.w	r3, r3, #3
 8005d4e:	613b      	str	r3, [r7, #16]
 8005d50:	4b1b      	ldr	r3, [pc, #108]	@ (8005dc0 <RCC_GetSysClockFreqFromPLLSource+0x80>)
 8005d52:	68db      	ldr	r3, [r3, #12]
 8005d54:	091b      	lsrs	r3, r3, #4
 8005d56:	f003 030f 	and.w	r3, r3, #15
 8005d5a:	3301      	adds	r3, #1
 8005d5c:	60fb      	str	r3, [r7, #12]
 8005d5e:	693b      	ldr	r3, [r7, #16]
 8005d60:	2b03      	cmp	r3, #3
 8005d62:	d10c      	bne.n	8005d7e <RCC_GetSysClockFreqFromPLLSource+0x3e>
 8005d64:	4a17      	ldr	r2, [pc, #92]	@ (8005dc4 <RCC_GetSysClockFreqFromPLLSource+0x84>)
 8005d66:	68fb      	ldr	r3, [r7, #12]
 8005d68:	fbb2 f3f3 	udiv	r3, r2, r3
 8005d6c:	4a14      	ldr	r2, [pc, #80]	@ (8005dc0 <RCC_GetSysClockFreqFromPLLSource+0x80>)
 8005d6e:	68d2      	ldr	r2, [r2, #12]
 8005d70:	0a12      	lsrs	r2, r2, #8
 8005d72:	f002 027f 	and.w	r2, r2, #127	@ 0x7f
 8005d76:	fb02 f303 	mul.w	r3, r2, r3
 8005d7a:	617b      	str	r3, [r7, #20]
 8005d7c:	e00c      	b.n	8005d98 <RCC_GetSysClockFreqFromPLLSource+0x58>
 8005d7e:	4a12      	ldr	r2, [pc, #72]	@ (8005dc8 <RCC_GetSysClockFreqFromPLLSource+0x88>)
 8005d80:	68fb      	ldr	r3, [r7, #12]
 8005d82:	fbb2 f3f3 	udiv	r3, r2, r3
 8005d86:	4a0e      	ldr	r2, [pc, #56]	@ (8005dc0 <RCC_GetSysClockFreqFromPLLSource+0x80>)
 8005d88:	68d2      	ldr	r2, [r2, #12]
 8005d8a:	0a12      	lsrs	r2, r2, #8
 8005d8c:	f002 027f 	and.w	r2, r2, #127	@ 0x7f
 8005d90:	fb02 f303 	mul.w	r3, r2, r3
 8005d94:	617b      	str	r3, [r7, #20]
 8005d96:	bf00      	nop
 8005d98:	4b09      	ldr	r3, [pc, #36]	@ (8005dc0 <RCC_GetSysClockFreqFromPLLSource+0x80>)
 8005d9a:	68db      	ldr	r3, [r3, #12]
 8005d9c:	0e5b      	lsrs	r3, r3, #25
 8005d9e:	f003 0303 	and.w	r3, r3, #3
 8005da2:	3301      	adds	r3, #1
 8005da4:	005b      	lsls	r3, r3, #1
 8005da6:	60bb      	str	r3, [r7, #8]
 8005da8:	697a      	ldr	r2, [r7, #20]
 8005daa:	68bb      	ldr	r3, [r7, #8]
 8005dac:	fbb2 f3f3 	udiv	r3, r2, r3
 8005db0:	607b      	str	r3, [r7, #4]
 8005db2:	687b      	ldr	r3, [r7, #4]
 8005db4:	4618      	mov	r0, r3
 8005db6:	371c      	adds	r7, #28
 8005db8:	46bd      	mov	sp, r7
 8005dba:	f85d 7b04 	ldr.w	r7, [sp], #4
 8005dbe:	4770      	bx	lr
 8005dc0:	40021000 	.word	0x40021000
 8005dc4:	017d7840 	.word	0x017d7840
 8005dc8:	00f42400 	.word	0x00f42400

08005dcc <HAL_RCCEx_PeriphCLKConfig>:
 8005dcc:	b580      	push	{r7, lr}
 8005dce:	b086      	sub	sp, #24
 8005dd0:	af00      	add	r7, sp, #0
 8005dd2:	6078      	str	r0, [r7, #4]
 8005dd4:	2300      	movs	r3, #0
 8005dd6:	74fb      	strb	r3, [r7, #19]
 8005dd8:	2300      	movs	r3, #0
 8005dda:	74bb      	strb	r3, [r7, #18]
 8005ddc:	687b      	ldr	r3, [r7, #4]
 8005dde:	681b      	ldr	r3, [r3, #0]
 8005de0:	f403 2300 	and.w	r3, r3, #524288	@ 0x80000
 8005de4:	2b00      	cmp	r3, #0
 8005de6:	f000 8098 	beq.w	8005f1a <HAL_RCCEx_PeriphCLKConfig+0x14e>
 8005dea:	2300      	movs	r3, #0
 8005dec:	747b      	strb	r3, [r7, #17]
 8005dee:	4b43      	ldr	r3, [pc, #268]	@ (8005efc <HAL_RCCEx_PeriphCLKConfig+0x130>)
 8005df0:	6d9b      	ldr	r3, [r3, #88]	@ 0x58
 8005df2:	f003 5380 	and.w	r3, r3, #268435456	@ 0x10000000
 8005df6:	2b00      	cmp	r3, #0
 8005df8:	d10d      	bne.n	8005e16 <HAL_RCCEx_PeriphCLKConfig+0x4a>
 8005dfa:	4b40      	ldr	r3, [pc, #256]	@ (8005efc <HAL_RCCEx_PeriphCLKConfig+0x130>)
 8005dfc:	6d9b      	ldr	r3, [r3, #88]	@ 0x58
 8005dfe:	4a3f      	ldr	r2, [pc, #252]	@ (8005efc <HAL_RCCEx_PeriphCLKConfig+0x130>)
 8005e00:	f043 5380 	orr.w	r3, r3, #268435456	@ 0x10000000
 8005e04:	6593      	str	r3, [r2, #88]	@ 0x58
 8005e06:	4b3d      	ldr	r3, [pc, #244]	@ (8005efc <HAL_RCCEx_PeriphCLKConfig+0x130>)
 8005e08:	6d9b      	ldr	r3, [r3, #88]	@ 0x58
 8005e0a:	f003 5380 	and.w	r3, r3, #268435456	@ 0x10000000
 8005e0e:	60bb      	str	r3, [r7, #8]
 8005e10:	68bb      	ldr	r3, [r7, #8]
 8005e12:	2301      	movs	r3, #1
 8005e14:	747b      	strb	r3, [r7, #17]
 8005e16:	4b3a      	ldr	r3, [pc, #232]	@ (8005f00 <HAL_RCCEx_PeriphCLKConfig+0x134>)
 8005e18:	681b      	ldr	r3, [r3, #0]
 8005e1a:	4a39      	ldr	r2, [pc, #228]	@ (8005f00 <HAL_RCCEx_PeriphCLKConfig+0x134>)
 8005e1c:	f443 7380 	orr.w	r3, r3, #256	@ 0x100
 8005e20:	6013      	str	r3, [r2, #0]
 8005e22:	f7fc fac5 	bl	80023b0 <HAL_GetTick>
 8005e26:	60f8      	str	r0, [r7, #12]
 8005e28:	e009      	b.n	8005e3e <HAL_RCCEx_PeriphCLKConfig+0x72>
 8005e2a:	f7fc fac1 	bl	80023b0 <HAL_GetTick>
 8005e2e:	4602      	mov	r2, r0
 8005e30:	68fb      	ldr	r3, [r7, #12]
 8005e32:	1ad3      	subs	r3, r2, r3
 8005e34:	2b02      	cmp	r3, #2
 8005e36:	d902      	bls.n	8005e3e <HAL_RCCEx_PeriphCLKConfig+0x72>
 8005e38:	2303      	movs	r3, #3
 8005e3a:	74fb      	strb	r3, [r7, #19]
 8005e3c:	e005      	b.n	8005e4a <HAL_RCCEx_PeriphCLKConfig+0x7e>
 8005e3e:	4b30      	ldr	r3, [pc, #192]	@ (8005f00 <HAL_RCCEx_PeriphCLKConfig+0x134>)
 8005e40:	681b      	ldr	r3, [r3, #0]
 8005e42:	f403 7380 	and.w	r3, r3, #256	@ 0x100
 8005e46:	2b00      	cmp	r3, #0
 8005e48:	d0ef      	beq.n	8005e2a <HAL_RCCEx_PeriphCLKConfig+0x5e>
 8005e4a:	7cfb      	ldrb	r3, [r7, #19]
 8005e4c:	2b00      	cmp	r3, #0
 8005e4e:	d159      	bne.n	8005f04 <HAL_RCCEx_PeriphCLKConfig+0x138>
 8005e50:	4b2a      	ldr	r3, [pc, #168]	@ (8005efc <HAL_RCCEx_PeriphCLKConfig+0x130>)
 8005e52:	f8d3 3090 	ldr.w	r3, [r3, #144]	@ 0x90
 8005e56:	f403 7340 	and.w	r3, r3, #768	@ 0x300
 8005e5a:	617b      	str	r3, [r7, #20]
 8005e5c:	697b      	ldr	r3, [r7, #20]
 8005e5e:	2b00      	cmp	r3, #0
 8005e60:	d01e      	beq.n	8005ea0 <HAL_RCCEx_PeriphCLKConfig+0xd4>
 8005e62:	687b      	ldr	r3, [r7, #4]
 8005e64:	6d1b      	ldr	r3, [r3, #80]	@ 0x50
 8005e66:	697a      	ldr	r2, [r7, #20]
 8005e68:	429a      	cmp	r2, r3
 8005e6a:	d019      	beq.n	8005ea0 <HAL_RCCEx_PeriphCLKConfig+0xd4>
 8005e6c:	4b23      	ldr	r3, [pc, #140]	@ (8005efc <HAL_RCCEx_PeriphCLKConfig+0x130>)
 8005e6e:	f8d3 3090 	ldr.w	r3, [r3, #144]	@ 0x90
 8005e72:	f423 7340 	bic.w	r3, r3, #768	@ 0x300
 8005e76:	617b      	str	r3, [r7, #20]
 8005e78:	4b20      	ldr	r3, [pc, #128]	@ (8005efc <HAL_RCCEx_PeriphCLKConfig+0x130>)
 8005e7a:	f8d3 3090 	ldr.w	r3, [r3, #144]	@ 0x90
 8005e7e:	4a1f      	ldr	r2, [pc, #124]	@ (8005efc <HAL_RCCEx_PeriphCLKConfig+0x130>)
 8005e80:	f443 3380 	orr.w	r3, r3, #65536	@ 0x10000
 8005e84:	f8c2 3090 	str.w	r3, [r2, #144]	@ 0x90
 8005e88:	4b1c      	ldr	r3, [pc, #112]	@ (8005efc <HAL_RCCEx_PeriphCLKConfig+0x130>)
 8005e8a:	f8d3 3090 	ldr.w	r3, [r3, #144]	@ 0x90
 8005e8e:	4a1b      	ldr	r2, [pc, #108]	@ (8005efc <HAL_RCCEx_PeriphCLKConfig+0x130>)
 8005e90:	f423 3380 	bic.w	r3, r3, #65536	@ 0x10000
 8005e94:	f8c2 3090 	str.w	r3, [r2, #144]	@ 0x90
 8005e98:	4a18      	ldr	r2, [pc, #96]	@ (8005efc <HAL_RCCEx_PeriphCLKConfig+0x130>)
 8005e9a:	697b      	ldr	r3, [r7, #20]
 8005e9c:	f8c2 3090 	str.w	r3, [r2, #144]	@ 0x90
 8005ea0:	697b      	ldr	r3, [r7, #20]
 8005ea2:	f003 0301 	and.w	r3, r3, #1
 8005ea6:	2b00      	cmp	r3, #0
 8005ea8:	d016      	beq.n	8005ed8 <HAL_RCCEx_PeriphCLKConfig+0x10c>
 8005eaa:	f7fc fa81 	bl	80023b0 <HAL_GetTick>
 8005eae:	60f8      	str	r0, [r7, #12]
 8005eb0:	e00b      	b.n	8005eca <HAL_RCCEx_PeriphCLKConfig+0xfe>
 8005eb2:	f7fc fa7d 	bl	80023b0 <HAL_GetTick>
 8005eb6:	4602      	mov	r2, r0
 8005eb8:	68fb      	ldr	r3, [r7, #12]
 8005eba:	1ad3      	subs	r3, r2, r3
 8005ebc:	f241 3288 	movw	r2, #5000	@ 0x1388
 8005ec0:	4293      	cmp	r3, r2
 8005ec2:	d902      	bls.n	8005eca <HAL_RCCEx_PeriphCLKConfig+0xfe>
 8005ec4:	2303      	movs	r3, #3
 8005ec6:	74fb      	strb	r3, [r7, #19]
 8005ec8:	e006      	b.n	8005ed8 <HAL_RCCEx_PeriphCLKConfig+0x10c>
 8005eca:	4b0c      	ldr	r3, [pc, #48]	@ (8005efc <HAL_RCCEx_PeriphCLKConfig+0x130>)
 8005ecc:	f8d3 3090 	ldr.w	r3, [r3, #144]	@ 0x90
 8005ed0:	f003 0302 	and.w	r3, r3, #2
 8005ed4:	2b00      	cmp	r3, #0
 8005ed6:	d0ec      	beq.n	8005eb2 <HAL_RCCEx_PeriphCLKConfig+0xe6>
 8005ed8:	7cfb      	ldrb	r3, [r7, #19]
 8005eda:	2b00      	cmp	r3, #0
 8005edc:	d10b      	bne.n	8005ef6 <HAL_RCCEx_PeriphCLKConfig+0x12a>
 8005ede:	4b07      	ldr	r3, [pc, #28]	@ (8005efc <HAL_RCCEx_PeriphCLKConfig+0x130>)
 8005ee0:	f8d3 3090 	ldr.w	r3, [r3, #144]	@ 0x90
 8005ee4:	f423 7240 	bic.w	r2, r3, #768	@ 0x300
 8005ee8:	687b      	ldr	r3, [r7, #4]
 8005eea:	6d1b      	ldr	r3, [r3, #80]	@ 0x50
 8005eec:	4903      	ldr	r1, [pc, #12]	@ (8005efc <HAL_RCCEx_PeriphCLKConfig+0x130>)
 8005eee:	4313      	orrs	r3, r2
 8005ef0:	f8c1 3090 	str.w	r3, [r1, #144]	@ 0x90
 8005ef4:	e008      	b.n	8005f08 <HAL_RCCEx_PeriphCLKConfig+0x13c>
 8005ef6:	7cfb      	ldrb	r3, [r7, #19]
 8005ef8:	74bb      	strb	r3, [r7, #18]
 8005efa:	e005      	b.n	8005f08 <HAL_RCCEx_PeriphCLKConfig+0x13c>
 8005efc:	40021000 	.word	0x40021000
 8005f00:	40007000 	.word	0x40007000
 8005f04:	7cfb      	ldrb	r3, [r7, #19]
 8005f06:	74bb      	strb	r3, [r7, #18]
 8005f08:	7c7b      	ldrb	r3, [r7, #17]
 8005f0a:	2b01      	cmp	r3, #1
 8005f0c:	d105      	bne.n	8005f1a <HAL_RCCEx_PeriphCLKConfig+0x14e>
 8005f0e:	4ba7      	ldr	r3, [pc, #668]	@ (80061ac <HAL_RCCEx_PeriphCLKConfig+0x3e0>)
 8005f10:	6d9b      	ldr	r3, [r3, #88]	@ 0x58
 8005f12:	4aa6      	ldr	r2, [pc, #664]	@ (80061ac <HAL_RCCEx_PeriphCLKConfig+0x3e0>)
 8005f14:	f023 5380 	bic.w	r3, r3, #268435456	@ 0x10000000
 8005f18:	6593      	str	r3, [r2, #88]	@ 0x58
 8005f1a:	687b      	ldr	r3, [r7, #4]
 8005f1c:	681b      	ldr	r3, [r3, #0]
 8005f1e:	f003 0301 	and.w	r3, r3, #1
 8005f22:	2b00      	cmp	r3, #0
 8005f24:	d00a      	beq.n	8005f3c <HAL_RCCEx_PeriphCLKConfig+0x170>
 8005f26:	4ba1      	ldr	r3, [pc, #644]	@ (80061ac <HAL_RCCEx_PeriphCLKConfig+0x3e0>)
 8005f28:	f8d3 3088 	ldr.w	r3, [r3, #136]	@ 0x88
 8005f2c:	f023 0203 	bic.w	r2, r3, #3
 8005f30:	687b      	ldr	r3, [r7, #4]
 8005f32:	685b      	ldr	r3, [r3, #4]
 8005f34:	499d      	ldr	r1, [pc, #628]	@ (80061ac <HAL_RCCEx_PeriphCLKConfig+0x3e0>)
 8005f36:	4313      	orrs	r3, r2
 8005f38:	f8c1 3088 	str.w	r3, [r1, #136]	@ 0x88
 8005f3c:	687b      	ldr	r3, [r7, #4]
 8005f3e:	681b      	ldr	r3, [r3, #0]
 8005f40:	f003 0302 	and.w	r3, r3, #2
 8005f44:	2b00      	cmp	r3, #0
 8005f46:	d00a      	beq.n	8005f5e <HAL_RCCEx_PeriphCLKConfig+0x192>
 8005f48:	4b98      	ldr	r3, [pc, #608]	@ (80061ac <HAL_RCCEx_PeriphCLKConfig+0x3e0>)
 8005f4a:	f8d3 3088 	ldr.w	r3, [r3, #136]	@ 0x88
 8005f4e:	f023 020c 	bic.w	r2, r3, #12
 8005f52:	687b      	ldr	r3, [r7, #4]
 8005f54:	689b      	ldr	r3, [r3, #8]
 8005f56:	4995      	ldr	r1, [pc, #596]	@ (80061ac <HAL_RCCEx_PeriphCLKConfig+0x3e0>)
 8005f58:	4313      	orrs	r3, r2
 8005f5a:	f8c1 3088 	str.w	r3, [r1, #136]	@ 0x88
 8005f5e:	687b      	ldr	r3, [r7, #4]
 8005f60:	681b      	ldr	r3, [r3, #0]
 8005f62:	f003 0304 	and.w	r3, r3, #4
 8005f66:	2b00      	cmp	r3, #0
 8005f68:	d00a      	beq.n	8005f80 <HAL_RCCEx_PeriphCLKConfig+0x1b4>
 8005f6a:	4b90      	ldr	r3, [pc, #576]	@ (80061ac <HAL_RCCEx_PeriphCLKConfig+0x3e0>)
 8005f6c:	f8d3 3088 	ldr.w	r3, [r3, #136]	@ 0x88
 8005f70:	f023 0230 	bic.w	r2, r3, #48	@ 0x30
 8005f74:	687b      	ldr	r3, [r7, #4]
 8005f76:	68db      	ldr	r3, [r3, #12]
 8005f78:	498c      	ldr	r1, [pc, #560]	@ (80061ac <HAL_RCCEx_PeriphCLKConfig+0x3e0>)
 8005f7a:	4313      	orrs	r3, r2
 8005f7c:	f8c1 3088 	str.w	r3, [r1, #136]	@ 0x88
 8005f80:	687b      	ldr	r3, [r7, #4]
 8005f82:	681b      	ldr	r3, [r3, #0]
 8005f84:	f003 0308 	and.w	r3, r3, #8
 8005f88:	2b00      	cmp	r3, #0
 8005f8a:	d00a      	beq.n	8005fa2 <HAL_RCCEx_PeriphCLKConfig+0x1d6>
 8005f8c:	4b87      	ldr	r3, [pc, #540]	@ (80061ac <HAL_RCCEx_PeriphCLKConfig+0x3e0>)
 8005f8e:	f8d3 3088 	ldr.w	r3, [r3, #136]	@ 0x88
 8005f92:	f023 02c0 	bic.w	r2, r3, #192	@ 0xc0
 8005f96:	687b      	ldr	r3, [r7, #4]
 8005f98:	691b      	ldr	r3, [r3, #16]
 8005f9a:	4984      	ldr	r1, [pc, #528]	@ (80061ac <HAL_RCCEx_PeriphCLKConfig+0x3e0>)
 8005f9c:	4313      	orrs	r3, r2
 8005f9e:	f8c1 3088 	str.w	r3, [r1, #136]	@ 0x88
 8005fa2:	687b      	ldr	r3, [r7, #4]
 8005fa4:	681b      	ldr	r3, [r3, #0]
 8005fa6:	f003 0310 	and.w	r3, r3, #16
 8005faa:	2b00      	cmp	r3, #0
 8005fac:	d00a      	beq.n	8005fc4 <HAL_RCCEx_PeriphCLKConfig+0x1f8>
 8005fae:	4b7f      	ldr	r3, [pc, #508]	@ (80061ac <HAL_RCCEx_PeriphCLKConfig+0x3e0>)
 8005fb0:	f8d3 3088 	ldr.w	r3, [r3, #136]	@ 0x88
 8005fb4:	f423 7240 	bic.w	r2, r3, #768	@ 0x300
 8005fb8:	687b      	ldr	r3, [r7, #4]
 8005fba:	695b      	ldr	r3, [r3, #20]
 8005fbc:	497b      	ldr	r1, [pc, #492]	@ (80061ac <HAL_RCCEx_PeriphCLKConfig+0x3e0>)
 8005fbe:	4313      	orrs	r3, r2
 8005fc0:	f8c1 3088 	str.w	r3, [r1, #136]	@ 0x88
 8005fc4:	687b      	ldr	r3, [r7, #4]
 8005fc6:	681b      	ldr	r3, [r3, #0]
 8005fc8:	f003 0320 	and.w	r3, r3, #32
 8005fcc:	2b00      	cmp	r3, #0
 8005fce:	d00a      	beq.n	8005fe6 <HAL_RCCEx_PeriphCLKConfig+0x21a>
 8005fd0:	4b76      	ldr	r3, [pc, #472]	@ (80061ac <HAL_RCCEx_PeriphCLKConfig+0x3e0>)
 8005fd2:	f8d3 3088 	ldr.w	r3, [r3, #136]	@ 0x88
 8005fd6:	f423 6240 	bic.w	r2, r3, #3072	@ 0xc00
 8005fda:	687b      	ldr	r3, [r7, #4]
 8005fdc:	699b      	ldr	r3, [r3, #24]
 8005fde:	4973      	ldr	r1, [pc, #460]	@ (80061ac <HAL_RCCEx_PeriphCLKConfig+0x3e0>)
 8005fe0:	4313      	orrs	r3, r2
 8005fe2:	f8c1 3088 	str.w	r3, [r1, #136]	@ 0x88
 8005fe6:	687b      	ldr	r3, [r7, #4]
 8005fe8:	681b      	ldr	r3, [r3, #0]
 8005fea:	f003 0340 	and.w	r3, r3, #64	@ 0x40
 8005fee:	2b00      	cmp	r3, #0
 8005ff0:	d00a      	beq.n	8006008 <HAL_RCCEx_PeriphCLKConfig+0x23c>
 8005ff2:	4b6e      	ldr	r3, [pc, #440]	@ (80061ac <HAL_RCCEx_PeriphCLKConfig+0x3e0>)
 8005ff4:	f8d3 3088 	ldr.w	r3, [r3, #136]	@ 0x88
 8005ff8:	f423 5240 	bic.w	r2, r3, #12288	@ 0x3000
 8005ffc:	687b      	ldr	r3, [r7, #4]
 8005ffe:	69db      	ldr	r3, [r3, #28]
 8006000:	496a      	ldr	r1, [pc, #424]	@ (80061ac <HAL_RCCEx_PeriphCLKConfig+0x3e0>)
 8006002:	4313      	orrs	r3, r2
 8006004:	f8c1 3088 	str.w	r3, [r1, #136]	@ 0x88
 8006008:	687b      	ldr	r3, [r7, #4]
 800600a:	681b      	ldr	r3, [r3, #0]
 800600c:	f003 0380 	and.w	r3, r3, #128	@ 0x80
 8006010:	2b00      	cmp	r3, #0
 8006012:	d00a      	beq.n	800602a <HAL_RCCEx_PeriphCLKConfig+0x25e>
 8006014:	4b65      	ldr	r3, [pc, #404]	@ (80061ac <HAL_RCCEx_PeriphCLKConfig+0x3e0>)
 8006016:	f8d3 3088 	ldr.w	r3, [r3, #136]	@ 0x88
 800601a:	f423 4240 	bic.w	r2, r3, #49152	@ 0xc000
 800601e:	687b      	ldr	r3, [r7, #4]
 8006020:	6a1b      	ldr	r3, [r3, #32]
 8006022:	4962      	ldr	r1, [pc, #392]	@ (80061ac <HAL_RCCEx_PeriphCLKConfig+0x3e0>)
 8006024:	4313      	orrs	r3, r2
 8006026:	f8c1 3088 	str.w	r3, [r1, #136]	@ 0x88
 800602a:	687b      	ldr	r3, [r7, #4]
 800602c:	681b      	ldr	r3, [r3, #0]
 800602e:	f403 7380 	and.w	r3, r3, #256	@ 0x100
 8006032:	2b00      	cmp	r3, #0
 8006034:	d00a      	beq.n	800604c <HAL_RCCEx_PeriphCLKConfig+0x280>
 8006036:	4b5d      	ldr	r3, [pc, #372]	@ (80061ac <HAL_RCCEx_PeriphCLKConfig+0x3e0>)
 8006038:	f8d3 3088 	ldr.w	r3, [r3, #136]	@ 0x88
 800603c:	f423 3240 	bic.w	r2, r3, #196608	@ 0x30000
 8006040:	687b      	ldr	r3, [r7, #4]
 8006042:	6a5b      	ldr	r3, [r3, #36]	@ 0x24
 8006044:	4959      	ldr	r1, [pc, #356]	@ (80061ac <HAL_RCCEx_PeriphCLKConfig+0x3e0>)
 8006046:	4313      	orrs	r3, r2
 8006048:	f8c1 3088 	str.w	r3, [r1, #136]	@ 0x88
 800604c:	687b      	ldr	r3, [r7, #4]
 800604e:	681b      	ldr	r3, [r3, #0]
 8006050:	f403 3300 	and.w	r3, r3, #131072	@ 0x20000
 8006054:	2b00      	cmp	r3, #0
 8006056:	d00a      	beq.n	800606e <HAL_RCCEx_PeriphCLKConfig+0x2a2>
 8006058:	4b54      	ldr	r3, [pc, #336]	@ (80061ac <HAL_RCCEx_PeriphCLKConfig+0x3e0>)
 800605a:	f8d3 309c 	ldr.w	r3, [r3, #156]	@ 0x9c
 800605e:	f023 0203 	bic.w	r2, r3, #3
 8006062:	687b      	ldr	r3, [r7, #4]
 8006064:	6a9b      	ldr	r3, [r3, #40]	@ 0x28
 8006066:	4951      	ldr	r1, [pc, #324]	@ (80061ac <HAL_RCCEx_PeriphCLKConfig+0x3e0>)
 8006068:	4313      	orrs	r3, r2
 800606a:	f8c1 309c 	str.w	r3, [r1, #156]	@ 0x9c
 800606e:	687b      	ldr	r3, [r7, #4]
 8006070:	681b      	ldr	r3, [r3, #0]
 8006072:	f403 7300 	and.w	r3, r3, #512	@ 0x200
 8006076:	2b00      	cmp	r3, #0
 8006078:	d00a      	beq.n	8006090 <HAL_RCCEx_PeriphCLKConfig+0x2c4>
 800607a:	4b4c      	ldr	r3, [pc, #304]	@ (80061ac <HAL_RCCEx_PeriphCLKConfig+0x3e0>)
 800607c:	f8d3 3088 	ldr.w	r3, [r3, #136]	@ 0x88
 8006080:	f423 2240 	bic.w	r2, r3, #786432	@ 0xc0000
 8006084:	687b      	ldr	r3, [r7, #4]
 8006086:	6adb      	ldr	r3, [r3, #44]	@ 0x2c
 8006088:	4948      	ldr	r1, [pc, #288]	@ (80061ac <HAL_RCCEx_PeriphCLKConfig+0x3e0>)
 800608a:	4313      	orrs	r3, r2
 800608c:	f8c1 3088 	str.w	r3, [r1, #136]	@ 0x88
 8006090:	687b      	ldr	r3, [r7, #4]
 8006092:	681b      	ldr	r3, [r3, #0]
 8006094:	f403 6380 	and.w	r3, r3, #1024	@ 0x400
 8006098:	2b00      	cmp	r3, #0
 800609a:	d015      	beq.n	80060c8 <HAL_RCCEx_PeriphCLKConfig+0x2fc>
 800609c:	4b43      	ldr	r3, [pc, #268]	@ (80061ac <HAL_RCCEx_PeriphCLKConfig+0x3e0>)
 800609e:	f8d3 3088 	ldr.w	r3, [r3, #136]	@ 0x88
 80060a2:	f423 1240 	bic.w	r2, r3, #3145728	@ 0x300000
 80060a6:	687b      	ldr	r3, [r7, #4]
 80060a8:	6b1b      	ldr	r3, [r3, #48]	@ 0x30
 80060aa:	4940      	ldr	r1, [pc, #256]	@ (80061ac <HAL_RCCEx_PeriphCLKConfig+0x3e0>)
 80060ac:	4313      	orrs	r3, r2
 80060ae:	f8c1 3088 	str.w	r3, [r1, #136]	@ 0x88
 80060b2:	687b      	ldr	r3, [r7, #4]
 80060b4:	6b1b      	ldr	r3, [r3, #48]	@ 0x30
 80060b6:	f5b3 1f80 	cmp.w	r3, #1048576	@ 0x100000
 80060ba:	d105      	bne.n	80060c8 <HAL_RCCEx_PeriphCLKConfig+0x2fc>
 80060bc:	4b3b      	ldr	r3, [pc, #236]	@ (80061ac <HAL_RCCEx_PeriphCLKConfig+0x3e0>)
 80060be:	68db      	ldr	r3, [r3, #12]
 80060c0:	4a3a      	ldr	r2, [pc, #232]	@ (80061ac <HAL_RCCEx_PeriphCLKConfig+0x3e0>)
 80060c2:	f443 1380 	orr.w	r3, r3, #1048576	@ 0x100000
 80060c6:	60d3      	str	r3, [r2, #12]
 80060c8:	687b      	ldr	r3, [r7, #4]
 80060ca:	681b      	ldr	r3, [r3, #0]
 80060cc:	f403 6300 	and.w	r3, r3, #2048	@ 0x800
 80060d0:	2b00      	cmp	r3, #0
 80060d2:	d015      	beq.n	8006100 <HAL_RCCEx_PeriphCLKConfig+0x334>
 80060d4:	4b35      	ldr	r3, [pc, #212]	@ (80061ac <HAL_RCCEx_PeriphCLKConfig+0x3e0>)
 80060d6:	f8d3 3088 	ldr.w	r3, [r3, #136]	@ 0x88
 80060da:	f423 0240 	bic.w	r2, r3, #12582912	@ 0xc00000
 80060de:	687b      	ldr	r3, [r7, #4]
 80060e0:	6b5b      	ldr	r3, [r3, #52]	@ 0x34
 80060e2:	4932      	ldr	r1, [pc, #200]	@ (80061ac <HAL_RCCEx_PeriphCLKConfig+0x3e0>)
 80060e4:	4313      	orrs	r3, r2
 80060e6:	f8c1 3088 	str.w	r3, [r1, #136]	@ 0x88
 80060ea:	687b      	ldr	r3, [r7, #4]
 80060ec:	6b5b      	ldr	r3, [r3, #52]	@ 0x34
 80060ee:	f5b3 0f80 	cmp.w	r3, #4194304	@ 0x400000
 80060f2:	d105      	bne.n	8006100 <HAL_RCCEx_PeriphCLKConfig+0x334>
 80060f4:	4b2d      	ldr	r3, [pc, #180]	@ (80061ac <HAL_RCCEx_PeriphCLKConfig+0x3e0>)
 80060f6:	68db      	ldr	r3, [r3, #12]
 80060f8:	4a2c      	ldr	r2, [pc, #176]	@ (80061ac <HAL_RCCEx_PeriphCLKConfig+0x3e0>)
 80060fa:	f443 1380 	orr.w	r3, r3, #1048576	@ 0x100000
 80060fe:	60d3      	str	r3, [r2, #12]
 8006100:	687b      	ldr	r3, [r7, #4]
 8006102:	681b      	ldr	r3, [r3, #0]
 8006104:	f403 5380 	and.w	r3, r3, #4096	@ 0x1000
 8006108:	2b00      	cmp	r3, #0
 800610a:	d015      	beq.n	8006138 <HAL_RCCEx_PeriphCLKConfig+0x36c>
 800610c:	4b27      	ldr	r3, [pc, #156]	@ (80061ac <HAL_RCCEx_PeriphCLKConfig+0x3e0>)
 800610e:	f8d3 3088 	ldr.w	r3, [r3, #136]	@ 0x88
 8006112:	f023 7240 	bic.w	r2, r3, #50331648	@ 0x3000000
 8006116:	687b      	ldr	r3, [r7, #4]
 8006118:	6b9b      	ldr	r3, [r3, #56]	@ 0x38
 800611a:	4924      	ldr	r1, [pc, #144]	@ (80061ac <HAL_RCCEx_PeriphCLKConfig+0x3e0>)
 800611c:	4313      	orrs	r3, r2
 800611e:	f8c1 3088 	str.w	r3, [r1, #136]	@ 0x88
 8006122:	687b      	ldr	r3, [r7, #4]
 8006124:	6b9b      	ldr	r3, [r3, #56]	@ 0x38
 8006126:	f1b3 7f80 	cmp.w	r3, #16777216	@ 0x1000000
 800612a:	d105      	bne.n	8006138 <HAL_RCCEx_PeriphCLKConfig+0x36c>
 800612c:	4b1f      	ldr	r3, [pc, #124]	@ (80061ac <HAL_RCCEx_PeriphCLKConfig+0x3e0>)
 800612e:	68db      	ldr	r3, [r3, #12]
 8006130:	4a1e      	ldr	r2, [pc, #120]	@ (80061ac <HAL_RCCEx_PeriphCLKConfig+0x3e0>)
 8006132:	f443 1380 	orr.w	r3, r3, #1048576	@ 0x100000
 8006136:	60d3      	str	r3, [r2, #12]
 8006138:	687b      	ldr	r3, [r7, #4]
 800613a:	681b      	ldr	r3, [r3, #0]
 800613c:	f403 5300 	and.w	r3, r3, #8192	@ 0x2000
 8006140:	2b00      	cmp	r3, #0
 8006142:	d015      	beq.n	8006170 <HAL_RCCEx_PeriphCLKConfig+0x3a4>
 8006144:	4b19      	ldr	r3, [pc, #100]	@ (80061ac <HAL_RCCEx_PeriphCLKConfig+0x3e0>)
 8006146:	f8d3 3088 	ldr.w	r3, [r3, #136]	@ 0x88
 800614a:	f023 6240 	bic.w	r2, r3, #201326592	@ 0xc000000
 800614e:	687b      	ldr	r3, [r7, #4]
 8006150:	6bdb      	ldr	r3, [r3, #60]	@ 0x3c
 8006152:	4916      	ldr	r1, [pc, #88]	@ (80061ac <HAL_RCCEx_PeriphCLKConfig+0x3e0>)
 8006154:	4313      	orrs	r3, r2
 8006156:	f8c1 3088 	str.w	r3, [r1, #136]	@ 0x88
 800615a:	687b      	ldr	r3, [r7, #4]
 800615c:	6bdb      	ldr	r3, [r3, #60]	@ 0x3c
 800615e:	f1b3 6f00 	cmp.w	r3, #134217728	@ 0x8000000
 8006162:	d105      	bne.n	8006170 <HAL_RCCEx_PeriphCLKConfig+0x3a4>
 8006164:	4b11      	ldr	r3, [pc, #68]	@ (80061ac <HAL_RCCEx_PeriphCLKConfig+0x3e0>)
 8006166:	68db      	ldr	r3, [r3, #12]
 8006168:	4a10      	ldr	r2, [pc, #64]	@ (80061ac <HAL_RCCEx_PeriphCLKConfig+0x3e0>)
 800616a:	f443 1380 	orr.w	r3, r3, #1048576	@ 0x100000
 800616e:	60d3      	str	r3, [r2, #12]
 8006170:	687b      	ldr	r3, [r7, #4]
 8006172:	681b      	ldr	r3, [r3, #0]
 8006174:	f403 4380 	and.w	r3, r3, #16384	@ 0x4000
 8006178:	2b00      	cmp	r3, #0
 800617a:	d019      	beq.n	80061b0 <HAL_RCCEx_PeriphCLKConfig+0x3e4>
 800617c:	4b0b      	ldr	r3, [pc, #44]	@ (80061ac <HAL_RCCEx_PeriphCLKConfig+0x3e0>)
 800617e:	f8d3 3088 	ldr.w	r3, [r3, #136]	@ 0x88
 8006182:	f023 6240 	bic.w	r2, r3, #201326592	@ 0xc000000
 8006186:	687b      	ldr	r3, [r7, #4]
 8006188:	6c1b      	ldr	r3, [r3, #64]	@ 0x40
 800618a:	4908      	ldr	r1, [pc, #32]	@ (80061ac <HAL_RCCEx_PeriphCLKConfig+0x3e0>)
 800618c:	4313      	orrs	r3, r2
 800618e:	f8c1 3088 	str.w	r3, [r1, #136]	@ 0x88
 8006192:	687b      	ldr	r3, [r7, #4]
 8006194:	6c1b      	ldr	r3, [r3, #64]	@ 0x40
 8006196:	f1b3 6f00 	cmp.w	r3, #134217728	@ 0x8000000
 800619a:	d109      	bne.n	80061b0 <HAL_RCCEx_PeriphCLKConfig+0x3e4>
 800619c:	4b03      	ldr	r3, [pc, #12]	@ (80061ac <HAL_RCCEx_PeriphCLKConfig+0x3e0>)
 800619e:	68db      	ldr	r3, [r3, #12]
 80061a0:	4a02      	ldr	r2, [pc, #8]	@ (80061ac <HAL_RCCEx_PeriphCLKConfig+0x3e0>)
 80061a2:	f443 1380 	orr.w	r3, r3, #1048576	@ 0x100000
 80061a6:	60d3      	str	r3, [r2, #12]
 80061a8:	e002      	b.n	80061b0 <HAL_RCCEx_PeriphCLKConfig+0x3e4>
 80061aa:	bf00      	nop
 80061ac:	40021000 	.word	0x40021000
 80061b0:	687b      	ldr	r3, [r7, #4]
 80061b2:	681b      	ldr	r3, [r3, #0]
 80061b4:	f403 4300 	and.w	r3, r3, #32768	@ 0x8000
 80061b8:	2b00      	cmp	r3, #0
 80061ba:	d015      	beq.n	80061e8 <HAL_RCCEx_PeriphCLKConfig+0x41c>
 80061bc:	4b29      	ldr	r3, [pc, #164]	@ (8006264 <HAL_RCCEx_PeriphCLKConfig+0x498>)
 80061be:	f8d3 3088 	ldr.w	r3, [r3, #136]	@ 0x88
 80061c2:	f023 5240 	bic.w	r2, r3, #805306368	@ 0x30000000
 80061c6:	687b      	ldr	r3, [r7, #4]
 80061c8:	6c5b      	ldr	r3, [r3, #68]	@ 0x44
 80061ca:	4926      	ldr	r1, [pc, #152]	@ (8006264 <HAL_RCCEx_PeriphCLKConfig+0x498>)
 80061cc:	4313      	orrs	r3, r2
 80061ce:	f8c1 3088 	str.w	r3, [r1, #136]	@ 0x88
 80061d2:	687b      	ldr	r3, [r7, #4]
 80061d4:	6c5b      	ldr	r3, [r3, #68]	@ 0x44
 80061d6:	f1b3 5f80 	cmp.w	r3, #268435456	@ 0x10000000
 80061da:	d105      	bne.n	80061e8 <HAL_RCCEx_PeriphCLKConfig+0x41c>
 80061dc:	4b21      	ldr	r3, [pc, #132]	@ (8006264 <HAL_RCCEx_PeriphCLKConfig+0x498>)
 80061de:	68db      	ldr	r3, [r3, #12]
 80061e0:	4a20      	ldr	r2, [pc, #128]	@ (8006264 <HAL_RCCEx_PeriphCLKConfig+0x498>)
 80061e2:	f443 3380 	orr.w	r3, r3, #65536	@ 0x10000
 80061e6:	60d3      	str	r3, [r2, #12]
 80061e8:	687b      	ldr	r3, [r7, #4]
 80061ea:	681b      	ldr	r3, [r3, #0]
 80061ec:	f403 3380 	and.w	r3, r3, #65536	@ 0x10000
 80061f0:	2b00      	cmp	r3, #0
 80061f2:	d015      	beq.n	8006220 <HAL_RCCEx_PeriphCLKConfig+0x454>
 80061f4:	4b1b      	ldr	r3, [pc, #108]	@ (8006264 <HAL_RCCEx_PeriphCLKConfig+0x498>)
 80061f6:	f8d3 3088 	ldr.w	r3, [r3, #136]	@ 0x88
 80061fa:	f023 4240 	bic.w	r2, r3, #3221225472	@ 0xc0000000
 80061fe:	687b      	ldr	r3, [r7, #4]
 8006200:	6c9b      	ldr	r3, [r3, #72]	@ 0x48
 8006202:	4918      	ldr	r1, [pc, #96]	@ (8006264 <HAL_RCCEx_PeriphCLKConfig+0x498>)
 8006204:	4313      	orrs	r3, r2
 8006206:	f8c1 3088 	str.w	r3, [r1, #136]	@ 0x88
 800620a:	687b      	ldr	r3, [r7, #4]
 800620c:	6c9b      	ldr	r3, [r3, #72]	@ 0x48
 800620e:	f1b3 4f80 	cmp.w	r3, #1073741824	@ 0x40000000
 8006212:	d105      	bne.n	8006220 <HAL_RCCEx_PeriphCLKConfig+0x454>
 8006214:	4b13      	ldr	r3, [pc, #76]	@ (8006264 <HAL_RCCEx_PeriphCLKConfig+0x498>)
 8006216:	68db      	ldr	r3, [r3, #12]
 8006218:	4a12      	ldr	r2, [pc, #72]	@ (8006264 <HAL_RCCEx_PeriphCLKConfig+0x498>)
 800621a:	f443 3380 	orr.w	r3, r3, #65536	@ 0x10000
 800621e:	60d3      	str	r3, [r2, #12]
 8006220:	687b      	ldr	r3, [r7, #4]
 8006222:	681b      	ldr	r3, [r3, #0]
 8006224:	f403 2380 	and.w	r3, r3, #262144	@ 0x40000
 8006228:	2b00      	cmp	r3, #0
 800622a:	d015      	beq.n	8006258 <HAL_RCCEx_PeriphCLKConfig+0x48c>
 800622c:	4b0d      	ldr	r3, [pc, #52]	@ (8006264 <HAL_RCCEx_PeriphCLKConfig+0x498>)
 800622e:	f8d3 309c 	ldr.w	r3, [r3, #156]	@ 0x9c
 8006232:	f423 1240 	bic.w	r2, r3, #3145728	@ 0x300000
 8006236:	687b      	ldr	r3, [r7, #4]
 8006238:	6cdb      	ldr	r3, [r3, #76]	@ 0x4c
 800623a:	490a      	ldr	r1, [pc, #40]	@ (8006264 <HAL_RCCEx_PeriphCLKConfig+0x498>)
 800623c:	4313      	orrs	r3, r2
 800623e:	f8c1 309c 	str.w	r3, [r1, #156]	@ 0x9c
 8006242:	687b      	ldr	r3, [r7, #4]
 8006244:	6cdb      	ldr	r3, [r3, #76]	@ 0x4c
 8006246:	f5b3 1f00 	cmp.w	r3, #2097152	@ 0x200000
 800624a:	d105      	bne.n	8006258 <HAL_RCCEx_PeriphCLKConfig+0x48c>
 800624c:	4b05      	ldr	r3, [pc, #20]	@ (8006264 <HAL_RCCEx_PeriphCLKConfig+0x498>)
 800624e:	68db      	ldr	r3, [r3, #12]
 8006250:	4a04      	ldr	r2, [pc, #16]	@ (8006264 <HAL_RCCEx_PeriphCLKConfig+0x498>)
 8006252:	f443 1380 	orr.w	r3, r3, #1048576	@ 0x100000
 8006256:	60d3      	str	r3, [r2, #12]
 8006258:	7cbb      	ldrb	r3, [r7, #18]
 800625a:	4618      	mov	r0, r3
 800625c:	3718      	adds	r7, #24
 800625e:	46bd      	mov	sp, r7
 8006260:	bd80      	pop	{r7, pc}
 8006262:	bf00      	nop
 8006264:	40021000 	.word	0x40021000

08006268 <HAL_UART_Init>:
 8006268:	b580      	push	{r7, lr}
 800626a:	b082      	sub	sp, #8
 800626c:	af00      	add	r7, sp, #0
 800626e:	6078      	str	r0, [r7, #4]
 8006270:	687b      	ldr	r3, [r7, #4]
 8006272:	2b00      	cmp	r3, #0
 8006274:	d101      	bne.n	800627a <HAL_UART_Init+0x12>
 8006276:	2301      	movs	r3, #1
 8006278:	e042      	b.n	8006300 <HAL_UART_Init+0x98>
 800627a:	687b      	ldr	r3, [r7, #4]
 800627c:	f8d3 3088 	ldr.w	r3, [r3, #136]	@ 0x88
 8006280:	2b00      	cmp	r3, #0
 8006282:	d106      	bne.n	8006292 <HAL_UART_Init+0x2a>
 8006284:	687b      	ldr	r3, [r7, #4]
 8006286:	2200      	movs	r2, #0
 8006288:	f883 2084 	strb.w	r2, [r3, #132]	@ 0x84
 800628c:	6878      	ldr	r0, [r7, #4]
 800628e:	f7fb fc8d 	bl	8001bac <HAL_UART_MspInit>
 8006292:	687b      	ldr	r3, [r7, #4]
 8006294:	2224      	movs	r2, #36	@ 0x24
 8006296:	f8c3 2088 	str.w	r2, [r3, #136]	@ 0x88
 800629a:	687b      	ldr	r3, [r7, #4]
 800629c:	681b      	ldr	r3, [r3, #0]
 800629e:	681a      	ldr	r2, [r3, #0]
 80062a0:	687b      	ldr	r3, [r7, #4]
 80062a2:	681b      	ldr	r3, [r3, #0]
 80062a4:	f022 0201 	bic.w	r2, r2, #1
 80062a8:	601a      	str	r2, [r3, #0]
 80062aa:	687b      	ldr	r3, [r7, #4]
 80062ac:	6a9b      	ldr	r3, [r3, #40]	@ 0x28
 80062ae:	2b00      	cmp	r3, #0
 80062b0:	d002      	beq.n	80062b8 <HAL_UART_Init+0x50>
 80062b2:	6878      	ldr	r0, [r7, #4]
 80062b4:	f000 ff60 	bl	8007178 <UART_AdvFeatureConfig>
 80062b8:	6878      	ldr	r0, [r7, #4]
 80062ba:	f000 fc61 	bl	8006b80 <UART_SetConfig>
 80062be:	4603      	mov	r3, r0
 80062c0:	2b01      	cmp	r3, #1
 80062c2:	d101      	bne.n	80062c8 <HAL_UART_Init+0x60>
 80062c4:	2301      	movs	r3, #1
 80062c6:	e01b      	b.n	8006300 <HAL_UART_Init+0x98>
 80062c8:	687b      	ldr	r3, [r7, #4]
 80062ca:	681b      	ldr	r3, [r3, #0]
 80062cc:	685a      	ldr	r2, [r3, #4]
 80062ce:	687b      	ldr	r3, [r7, #4]
 80062d0:	681b      	ldr	r3, [r3, #0]
 80062d2:	f422 4290 	bic.w	r2, r2, #18432	@ 0x4800
 80062d6:	605a      	str	r2, [r3, #4]
 80062d8:	687b      	ldr	r3, [r7, #4]
 80062da:	681b      	ldr	r3, [r3, #0]
 80062dc:	689a      	ldr	r2, [r3, #8]
 80062de:	687b      	ldr	r3, [r7, #4]
 80062e0:	681b      	ldr	r3, [r3, #0]
 80062e2:	f022 022a 	bic.w	r2, r2, #42	@ 0x2a
 80062e6:	609a      	str	r2, [r3, #8]
 80062e8:	687b      	ldr	r3, [r7, #4]
 80062ea:	681b      	ldr	r3, [r3, #0]
 80062ec:	681a      	ldr	r2, [r3, #0]
 80062ee:	687b      	ldr	r3, [r7, #4]
 80062f0:	681b      	ldr	r3, [r3, #0]
 80062f2:	f042 0201 	orr.w	r2, r2, #1
 80062f6:	601a      	str	r2, [r3, #0]
 80062f8:	6878      	ldr	r0, [r7, #4]
 80062fa:	f000 ffdf 	bl	80072bc <UART_CheckIdleState>
 80062fe:	4603      	mov	r3, r0
 8006300:	4618      	mov	r0, r3
 8006302:	3708      	adds	r7, #8
 8006304:	46bd      	mov	sp, r7
 8006306:	bd80      	pop	{r7, pc}

08006308 <HAL_UART_Transmit>:
 8006308:	b580      	push	{r7, lr}
 800630a:	b08a      	sub	sp, #40	@ 0x28
 800630c:	af02      	add	r7, sp, #8
 800630e:	60f8      	str	r0, [r7, #12]
 8006310:	60b9      	str	r1, [r7, #8]
 8006312:	603b      	str	r3, [r7, #0]
 8006314:	4613      	mov	r3, r2
 8006316:	80fb      	strh	r3, [r7, #6]
 8006318:	68fb      	ldr	r3, [r7, #12]
 800631a:	f8d3 3088 	ldr.w	r3, [r3, #136]	@ 0x88
 800631e:	2b20      	cmp	r3, #32
 8006320:	d17b      	bne.n	800641a <HAL_UART_Transmit+0x112>
 8006322:	68bb      	ldr	r3, [r7, #8]
 8006324:	2b00      	cmp	r3, #0
 8006326:	d002      	beq.n	800632e <HAL_UART_Transmit+0x26>
 8006328:	88fb      	ldrh	r3, [r7, #6]
 800632a:	2b00      	cmp	r3, #0
 800632c:	d101      	bne.n	8006332 <HAL_UART_Transmit+0x2a>
 800632e:	2301      	movs	r3, #1
 8006330:	e074      	b.n	800641c <HAL_UART_Transmit+0x114>
 8006332:	68fb      	ldr	r3, [r7, #12]
 8006334:	2200      	movs	r2, #0
 8006336:	f8c3 2090 	str.w	r2, [r3, #144]	@ 0x90
 800633a:	68fb      	ldr	r3, [r7, #12]
 800633c:	2221      	movs	r2, #33	@ 0x21
 800633e:	f8c3 2088 	str.w	r2, [r3, #136]	@ 0x88
 8006342:	f7fc f835 	bl	80023b0 <HAL_GetTick>
 8006346:	6178      	str	r0, [r7, #20]
 8006348:	68fb      	ldr	r3, [r7, #12]
 800634a:	88fa      	ldrh	r2, [r7, #6]
 800634c:	f8a3 2054 	strh.w	r2, [r3, #84]	@ 0x54
 8006350:	68fb      	ldr	r3, [r7, #12]
 8006352:	88fa      	ldrh	r2, [r7, #6]
 8006354:	f8a3 2056 	strh.w	r2, [r3, #86]	@ 0x56
 8006358:	68fb      	ldr	r3, [r7, #12]
 800635a:	689b      	ldr	r3, [r3, #8]
 800635c:	f5b3 5f80 	cmp.w	r3, #4096	@ 0x1000
 8006360:	d108      	bne.n	8006374 <HAL_UART_Transmit+0x6c>
 8006362:	68fb      	ldr	r3, [r7, #12]
 8006364:	691b      	ldr	r3, [r3, #16]
 8006366:	2b00      	cmp	r3, #0
 8006368:	d104      	bne.n	8006374 <HAL_UART_Transmit+0x6c>
 800636a:	2300      	movs	r3, #0
 800636c:	61fb      	str	r3, [r7, #28]
 800636e:	68bb      	ldr	r3, [r7, #8]
 8006370:	61bb      	str	r3, [r7, #24]
 8006372:	e003      	b.n	800637c <HAL_UART_Transmit+0x74>
 8006374:	68bb      	ldr	r3, [r7, #8]
 8006376:	61fb      	str	r3, [r7, #28]
 8006378:	2300      	movs	r3, #0
 800637a:	61bb      	str	r3, [r7, #24]
 800637c:	e030      	b.n	80063e0 <HAL_UART_Transmit+0xd8>
 800637e:	683b      	ldr	r3, [r7, #0]
 8006380:	9300      	str	r3, [sp, #0]
 8006382:	697b      	ldr	r3, [r7, #20]
 8006384:	2200      	movs	r2, #0
 8006386:	2180      	movs	r1, #128	@ 0x80
 8006388:	68f8      	ldr	r0, [r7, #12]
 800638a:	f001 f841 	bl	8007410 <UART_WaitOnFlagUntilTimeout>
 800638e:	4603      	mov	r3, r0
 8006390:	2b00      	cmp	r3, #0
 8006392:	d005      	beq.n	80063a0 <HAL_UART_Transmit+0x98>
 8006394:	68fb      	ldr	r3, [r7, #12]
 8006396:	2220      	movs	r2, #32
 8006398:	f8c3 2088 	str.w	r2, [r3, #136]	@ 0x88
 800639c:	2303      	movs	r3, #3
 800639e:	e03d      	b.n	800641c <HAL_UART_Transmit+0x114>
 80063a0:	69fb      	ldr	r3, [r7, #28]
 80063a2:	2b00      	cmp	r3, #0
 80063a4:	d10b      	bne.n	80063be <HAL_UART_Transmit+0xb6>
 80063a6:	69bb      	ldr	r3, [r7, #24]
 80063a8:	881b      	ldrh	r3, [r3, #0]
 80063aa:	461a      	mov	r2, r3
 80063ac:	68fb      	ldr	r3, [r7, #12]
 80063ae:	681b      	ldr	r3, [r3, #0]
 80063b0:	f3c2 0208 	ubfx	r2, r2, #0, #9
 80063b4:	629a      	str	r2, [r3, #40]	@ 0x28
 80063b6:	69bb      	ldr	r3, [r7, #24]
 80063b8:	3302      	adds	r3, #2
 80063ba:	61bb      	str	r3, [r7, #24]
 80063bc:	e007      	b.n	80063ce <HAL_UART_Transmit+0xc6>
 80063be:	69fb      	ldr	r3, [r7, #28]
 80063c0:	781a      	ldrb	r2, [r3, #0]
 80063c2:	68fb      	ldr	r3, [r7, #12]
 80063c4:	681b      	ldr	r3, [r3, #0]
 80063c6:	629a      	str	r2, [r3, #40]	@ 0x28
 80063c8:	69fb      	ldr	r3, [r7, #28]
 80063ca:	3301      	adds	r3, #1
 80063cc:	61fb      	str	r3, [r7, #28]
 80063ce:	68fb      	ldr	r3, [r7, #12]
 80063d0:	f8b3 3056 	ldrh.w	r3, [r3, #86]	@ 0x56
 80063d4:	b29b      	uxth	r3, r3
 80063d6:	3b01      	subs	r3, #1
 80063d8:	b29a      	uxth	r2, r3
 80063da:	68fb      	ldr	r3, [r7, #12]
 80063dc:	f8a3 2056 	strh.w	r2, [r3, #86]	@ 0x56
 80063e0:	68fb      	ldr	r3, [r7, #12]
 80063e2:	f8b3 3056 	ldrh.w	r3, [r3, #86]	@ 0x56
 80063e6:	b29b      	uxth	r3, r3
 80063e8:	2b00      	cmp	r3, #0
 80063ea:	d1c8      	bne.n	800637e <HAL_UART_Transmit+0x76>
 80063ec:	683b      	ldr	r3, [r7, #0]
 80063ee:	9300      	str	r3, [sp, #0]
 80063f0:	697b      	ldr	r3, [r7, #20]
 80063f2:	2200      	movs	r2, #0
 80063f4:	2140      	movs	r1, #64	@ 0x40
 80063f6:	68f8      	ldr	r0, [r7, #12]
 80063f8:	f001 f80a 	bl	8007410 <UART_WaitOnFlagUntilTimeout>
 80063fc:	4603      	mov	r3, r0
 80063fe:	2b00      	cmp	r3, #0
 8006400:	d005      	beq.n	800640e <HAL_UART_Transmit+0x106>
 8006402:	68fb      	ldr	r3, [r7, #12]
 8006404:	2220      	movs	r2, #32
 8006406:	f8c3 2088 	str.w	r2, [r3, #136]	@ 0x88
 800640a:	2303      	movs	r3, #3
 800640c:	e006      	b.n	800641c <HAL_UART_Transmit+0x114>
 800640e:	68fb      	ldr	r3, [r7, #12]
 8006410:	2220      	movs	r2, #32
 8006412:	f8c3 2088 	str.w	r2, [r3, #136]	@ 0x88
 8006416:	2300      	movs	r3, #0
 8006418:	e000      	b.n	800641c <HAL_UART_Transmit+0x114>
 800641a:	2302      	movs	r3, #2
 800641c:	4618      	mov	r0, r3
 800641e:	3720      	adds	r7, #32
 8006420:	46bd      	mov	sp, r7
 8006422:	bd80      	pop	{r7, pc}

08006424 <HAL_UART_Receive_IT>:
 8006424:	b580      	push	{r7, lr}
 8006426:	b08a      	sub	sp, #40	@ 0x28
 8006428:	af00      	add	r7, sp, #0
 800642a:	60f8      	str	r0, [r7, #12]
 800642c:	60b9      	str	r1, [r7, #8]
 800642e:	4613      	mov	r3, r2
 8006430:	80fb      	strh	r3, [r7, #6]
 8006432:	68fb      	ldr	r3, [r7, #12]
 8006434:	f8d3 308c 	ldr.w	r3, [r3, #140]	@ 0x8c
 8006438:	2b20      	cmp	r3, #32
 800643a:	d137      	bne.n	80064ac <HAL_UART_Receive_IT+0x88>
 800643c:	68bb      	ldr	r3, [r7, #8]
 800643e:	2b00      	cmp	r3, #0
 8006440:	d002      	beq.n	8006448 <HAL_UART_Receive_IT+0x24>
 8006442:	88fb      	ldrh	r3, [r7, #6]
 8006444:	2b00      	cmp	r3, #0
 8006446:	d101      	bne.n	800644c <HAL_UART_Receive_IT+0x28>
 8006448:	2301      	movs	r3, #1
 800644a:	e030      	b.n	80064ae <HAL_UART_Receive_IT+0x8a>
 800644c:	68fb      	ldr	r3, [r7, #12]
 800644e:	2200      	movs	r2, #0
 8006450:	66da      	str	r2, [r3, #108]	@ 0x6c
 8006452:	68fb      	ldr	r3, [r7, #12]
 8006454:	681b      	ldr	r3, [r3, #0]
 8006456:	4a18      	ldr	r2, [pc, #96]	@ (80064b8 <HAL_UART_Receive_IT+0x94>)
 8006458:	4293      	cmp	r3, r2
 800645a:	d01f      	beq.n	800649c <HAL_UART_Receive_IT+0x78>
 800645c:	68fb      	ldr	r3, [r7, #12]
 800645e:	681b      	ldr	r3, [r3, #0]
 8006460:	685b      	ldr	r3, [r3, #4]
 8006462:	f403 0300 	and.w	r3, r3, #8388608	@ 0x800000
 8006466:	2b00      	cmp	r3, #0
 8006468:	d018      	beq.n	800649c <HAL_UART_Receive_IT+0x78>
 800646a:	68fb      	ldr	r3, [r7, #12]
 800646c:	681b      	ldr	r3, [r3, #0]
 800646e:	617b      	str	r3, [r7, #20]
 8006470:	697b      	ldr	r3, [r7, #20]
 8006472:	e853 3f00 	ldrex	r3, [r3]
 8006476:	613b      	str	r3, [r7, #16]
 8006478:	693b      	ldr	r3, [r7, #16]
 800647a:	f043 6380 	orr.w	r3, r3, #67108864	@ 0x4000000
 800647e:	627b      	str	r3, [r7, #36]	@ 0x24
 8006480:	68fb      	ldr	r3, [r7, #12]
 8006482:	681b      	ldr	r3, [r3, #0]
 8006484:	461a      	mov	r2, r3
 8006486:	6a7b      	ldr	r3, [r7, #36]	@ 0x24
 8006488:	623b      	str	r3, [r7, #32]
 800648a:	61fa      	str	r2, [r7, #28]
 800648c:	69f9      	ldr	r1, [r7, #28]
 800648e:	6a3a      	ldr	r2, [r7, #32]
 8006490:	e841 2300 	strex	r3, r2, [r1]
 8006494:	61bb      	str	r3, [r7, #24]
 8006496:	69bb      	ldr	r3, [r7, #24]
 8006498:	2b00      	cmp	r3, #0
 800649a:	d1e6      	bne.n	800646a <HAL_UART_Receive_IT+0x46>
 800649c:	88fb      	ldrh	r3, [r7, #6]
 800649e:	461a      	mov	r2, r3
 80064a0:	68b9      	ldr	r1, [r7, #8]
 80064a2:	68f8      	ldr	r0, [r7, #12]
 80064a4:	f001 f822 	bl	80074ec <UART_Start_Receive_IT>
 80064a8:	4603      	mov	r3, r0
 80064aa:	e000      	b.n	80064ae <HAL_UART_Receive_IT+0x8a>
 80064ac:	2302      	movs	r3, #2
 80064ae:	4618      	mov	r0, r3
 80064b0:	3728      	adds	r7, #40	@ 0x28
 80064b2:	46bd      	mov	sp, r7
 80064b4:	bd80      	pop	{r7, pc}
 80064b6:	bf00      	nop
 80064b8:	40008000 	.word	0x40008000

080064bc <HAL_UART_IRQHandler>:
 80064bc:	b580      	push	{r7, lr}
 80064be:	b0ba      	sub	sp, #232	@ 0xe8
 80064c0:	af00      	add	r7, sp, #0
 80064c2:	6078      	str	r0, [r7, #4]
 80064c4:	687b      	ldr	r3, [r7, #4]
 80064c6:	681b      	ldr	r3, [r3, #0]
 80064c8:	69db      	ldr	r3, [r3, #28]
 80064ca:	f8c7 30e4 	str.w	r3, [r7, #228]	@ 0xe4
 80064ce:	687b      	ldr	r3, [r7, #4]
 80064d0:	681b      	ldr	r3, [r3, #0]
 80064d2:	681b      	ldr	r3, [r3, #0]
 80064d4:	f8c7 30e0 	str.w	r3, [r7, #224]	@ 0xe0
 80064d8:	687b      	ldr	r3, [r7, #4]
 80064da:	681b      	ldr	r3, [r3, #0]
 80064dc:	689b      	ldr	r3, [r3, #8]
 80064de:	f8c7 30dc 	str.w	r3, [r7, #220]	@ 0xdc
 80064e2:	f8d7 20e4 	ldr.w	r2, [r7, #228]	@ 0xe4
 80064e6:	f640 030f 	movw	r3, #2063	@ 0x80f
 80064ea:	4013      	ands	r3, r2
 80064ec:	f8c7 30d8 	str.w	r3, [r7, #216]	@ 0xd8
 80064f0:	f8d7 30d8 	ldr.w	r3, [r7, #216]	@ 0xd8
 80064f4:	2b00      	cmp	r3, #0
 80064f6:	d11b      	bne.n	8006530 <HAL_UART_IRQHandler+0x74>
 80064f8:	f8d7 30e4 	ldr.w	r3, [r7, #228]	@ 0xe4
 80064fc:	f003 0320 	and.w	r3, r3, #32
 8006500:	2b00      	cmp	r3, #0
 8006502:	d015      	beq.n	8006530 <HAL_UART_IRQHandler+0x74>
 8006504:	f8d7 30e0 	ldr.w	r3, [r7, #224]	@ 0xe0
 8006508:	f003 0320 	and.w	r3, r3, #32
 800650c:	2b00      	cmp	r3, #0
 800650e:	d105      	bne.n	800651c <HAL_UART_IRQHandler+0x60>
 8006510:	f8d7 30dc 	ldr.w	r3, [r7, #220]	@ 0xdc
 8006514:	f003 5380 	and.w	r3, r3, #268435456	@ 0x10000000
 8006518:	2b00      	cmp	r3, #0
 800651a:	d009      	beq.n	8006530 <HAL_UART_IRQHandler+0x74>
 800651c:	687b      	ldr	r3, [r7, #4]
 800651e:	6f5b      	ldr	r3, [r3, #116]	@ 0x74
 8006520:	2b00      	cmp	r3, #0
 8006522:	f000 8300 	beq.w	8006b26 <HAL_UART_IRQHandler+0x66a>
 8006526:	687b      	ldr	r3, [r7, #4]
 8006528:	6f5b      	ldr	r3, [r3, #116]	@ 0x74
 800652a:	6878      	ldr	r0, [r7, #4]
 800652c:	4798      	blx	r3
 800652e:	e2fa      	b.n	8006b26 <HAL_UART_IRQHandler+0x66a>
 8006530:	f8d7 30d8 	ldr.w	r3, [r7, #216]	@ 0xd8
 8006534:	2b00      	cmp	r3, #0
 8006536:	f000 8123 	beq.w	8006780 <HAL_UART_IRQHandler+0x2c4>
 800653a:	f8d7 20dc 	ldr.w	r2, [r7, #220]	@ 0xdc
 800653e:	4b8d      	ldr	r3, [pc, #564]	@ (8006774 <HAL_UART_IRQHandler+0x2b8>)
 8006540:	4013      	ands	r3, r2
 8006542:	2b00      	cmp	r3, #0
 8006544:	d106      	bne.n	8006554 <HAL_UART_IRQHandler+0x98>
 8006546:	f8d7 20e0 	ldr.w	r2, [r7, #224]	@ 0xe0
 800654a:	4b8b      	ldr	r3, [pc, #556]	@ (8006778 <HAL_UART_IRQHandler+0x2bc>)
 800654c:	4013      	ands	r3, r2
 800654e:	2b00      	cmp	r3, #0
 8006550:	f000 8116 	beq.w	8006780 <HAL_UART_IRQHandler+0x2c4>
 8006554:	f8d7 30e4 	ldr.w	r3, [r7, #228]	@ 0xe4
 8006558:	f003 0301 	and.w	r3, r3, #1
 800655c:	2b00      	cmp	r3, #0
 800655e:	d011      	beq.n	8006584 <HAL_UART_IRQHandler+0xc8>
 8006560:	f8d7 30e0 	ldr.w	r3, [r7, #224]	@ 0xe0
 8006564:	f403 7380 	and.w	r3, r3, #256	@ 0x100
 8006568:	2b00      	cmp	r3, #0
 800656a:	d00b      	beq.n	8006584 <HAL_UART_IRQHandler+0xc8>
 800656c:	687b      	ldr	r3, [r7, #4]
 800656e:	681b      	ldr	r3, [r3, #0]
 8006570:	2201      	movs	r2, #1
 8006572:	621a      	str	r2, [r3, #32]
 8006574:	687b      	ldr	r3, [r7, #4]
 8006576:	f8d3 3090 	ldr.w	r3, [r3, #144]	@ 0x90
 800657a:	f043 0201 	orr.w	r2, r3, #1
 800657e:	687b      	ldr	r3, [r7, #4]
 8006580:	f8c3 2090 	str.w	r2, [r3, #144]	@ 0x90
 8006584:	f8d7 30e4 	ldr.w	r3, [r7, #228]	@ 0xe4
 8006588:	f003 0302 	and.w	r3, r3, #2
 800658c:	2b00      	cmp	r3, #0
 800658e:	d011      	beq.n	80065b4 <HAL_UART_IRQHandler+0xf8>
 8006590:	f8d7 30dc 	ldr.w	r3, [r7, #220]	@ 0xdc
 8006594:	f003 0301 	and.w	r3, r3, #1
 8006598:	2b00      	cmp	r3, #0
 800659a:	d00b      	beq.n	80065b4 <HAL_UART_IRQHandler+0xf8>
 800659c:	687b      	ldr	r3, [r7, #4]
 800659e:	681b      	ldr	r3, [r3, #0]
 80065a0:	2202      	movs	r2, #2
 80065a2:	621a      	str	r2, [r3, #32]
 80065a4:	687b      	ldr	r3, [r7, #4]
 80065a6:	f8d3 3090 	ldr.w	r3, [r3, #144]	@ 0x90
 80065aa:	f043 0204 	orr.w	r2, r3, #4
 80065ae:	687b      	ldr	r3, [r7, #4]
 80065b0:	f8c3 2090 	str.w	r2, [r3, #144]	@ 0x90
 80065b4:	f8d7 30e4 	ldr.w	r3, [r7, #228]	@ 0xe4
 80065b8:	f003 0304 	and.w	r3, r3, #4
 80065bc:	2b00      	cmp	r3, #0
 80065be:	d011      	beq.n	80065e4 <HAL_UART_IRQHandler+0x128>
 80065c0:	f8d7 30dc 	ldr.w	r3, [r7, #220]	@ 0xdc
 80065c4:	f003 0301 	and.w	r3, r3, #1
 80065c8:	2b00      	cmp	r3, #0
 80065ca:	d00b      	beq.n	80065e4 <HAL_UART_IRQHandler+0x128>
 80065cc:	687b      	ldr	r3, [r7, #4]
 80065ce:	681b      	ldr	r3, [r3, #0]
 80065d0:	2204      	movs	r2, #4
 80065d2:	621a      	str	r2, [r3, #32]
 80065d4:	687b      	ldr	r3, [r7, #4]
 80065d6:	f8d3 3090 	ldr.w	r3, [r3, #144]	@ 0x90
 80065da:	f043 0202 	orr.w	r2, r3, #2
 80065de:	687b      	ldr	r3, [r7, #4]
 80065e0:	f8c3 2090 	str.w	r2, [r3, #144]	@ 0x90
 80065e4:	f8d7 30e4 	ldr.w	r3, [r7, #228]	@ 0xe4
 80065e8:	f003 0308 	and.w	r3, r3, #8
 80065ec:	2b00      	cmp	r3, #0
 80065ee:	d017      	beq.n	8006620 <HAL_UART_IRQHandler+0x164>
 80065f0:	f8d7 30e0 	ldr.w	r3, [r7, #224]	@ 0xe0
 80065f4:	f003 0320 	and.w	r3, r3, #32
 80065f8:	2b00      	cmp	r3, #0
 80065fa:	d105      	bne.n	8006608 <HAL_UART_IRQHandler+0x14c>
 80065fc:	f8d7 20dc 	ldr.w	r2, [r7, #220]	@ 0xdc
 8006600:	4b5c      	ldr	r3, [pc, #368]	@ (8006774 <HAL_UART_IRQHandler+0x2b8>)
 8006602:	4013      	ands	r3, r2
 8006604:	2b00      	cmp	r3, #0
 8006606:	d00b      	beq.n	8006620 <HAL_UART_IRQHandler+0x164>
 8006608:	687b      	ldr	r3, [r7, #4]
 800660a:	681b      	ldr	r3, [r3, #0]
 800660c:	2208      	movs	r2, #8
 800660e:	621a      	str	r2, [r3, #32]
 8006610:	687b      	ldr	r3, [r7, #4]
 8006612:	f8d3 3090 	ldr.w	r3, [r3, #144]	@ 0x90
 8006616:	f043 0208 	orr.w	r2, r3, #8
 800661a:	687b      	ldr	r3, [r7, #4]
 800661c:	f8c3 2090 	str.w	r2, [r3, #144]	@ 0x90
 8006620:	f8d7 30e4 	ldr.w	r3, [r7, #228]	@ 0xe4
 8006624:	f403 6300 	and.w	r3, r3, #2048	@ 0x800
 8006628:	2b00      	cmp	r3, #0
 800662a:	d012      	beq.n	8006652 <HAL_UART_IRQHandler+0x196>
 800662c:	f8d7 30e0 	ldr.w	r3, [r7, #224]	@ 0xe0
 8006630:	f003 6380 	and.w	r3, r3, #67108864	@ 0x4000000
 8006634:	2b00      	cmp	r3, #0
 8006636:	d00c      	beq.n	8006652 <HAL_UART_IRQHandler+0x196>
 8006638:	687b      	ldr	r3, [r7, #4]
 800663a:	681b      	ldr	r3, [r3, #0]
 800663c:	f44f 6200 	mov.w	r2, #2048	@ 0x800
 8006640:	621a      	str	r2, [r3, #32]
 8006642:	687b      	ldr	r3, [r7, #4]
 8006644:	f8d3 3090 	ldr.w	r3, [r3, #144]	@ 0x90
 8006648:	f043 0220 	orr.w	r2, r3, #32
 800664c:	687b      	ldr	r3, [r7, #4]
 800664e:	f8c3 2090 	str.w	r2, [r3, #144]	@ 0x90
 8006652:	687b      	ldr	r3, [r7, #4]
 8006654:	f8d3 3090 	ldr.w	r3, [r3, #144]	@ 0x90
 8006658:	2b00      	cmp	r3, #0
 800665a:	f000 8266 	beq.w	8006b2a <HAL_UART_IRQHandler+0x66e>
 800665e:	f8d7 30e4 	ldr.w	r3, [r7, #228]	@ 0xe4
 8006662:	f003 0320 	and.w	r3, r3, #32
 8006666:	2b00      	cmp	r3, #0
 8006668:	d013      	beq.n	8006692 <HAL_UART_IRQHandler+0x1d6>
 800666a:	f8d7 30e0 	ldr.w	r3, [r7, #224]	@ 0xe0
 800666e:	f003 0320 	and.w	r3, r3, #32
 8006672:	2b00      	cmp	r3, #0
 8006674:	d105      	bne.n	8006682 <HAL_UART_IRQHandler+0x1c6>
 8006676:	f8d7 30dc 	ldr.w	r3, [r7, #220]	@ 0xdc
 800667a:	f003 5380 	and.w	r3, r3, #268435456	@ 0x10000000
 800667e:	2b00      	cmp	r3, #0
 8006680:	d007      	beq.n	8006692 <HAL_UART_IRQHandler+0x1d6>
 8006682:	687b      	ldr	r3, [r7, #4]
 8006684:	6f5b      	ldr	r3, [r3, #116]	@ 0x74
 8006686:	2b00      	cmp	r3, #0
 8006688:	d003      	beq.n	8006692 <HAL_UART_IRQHandler+0x1d6>
 800668a:	687b      	ldr	r3, [r7, #4]
 800668c:	6f5b      	ldr	r3, [r3, #116]	@ 0x74
 800668e:	6878      	ldr	r0, [r7, #4]
 8006690:	4798      	blx	r3
 8006692:	687b      	ldr	r3, [r7, #4]
 8006694:	f8d3 3090 	ldr.w	r3, [r3, #144]	@ 0x90
 8006698:	f8c7 30d4 	str.w	r3, [r7, #212]	@ 0xd4
 800669c:	687b      	ldr	r3, [r7, #4]
 800669e:	681b      	ldr	r3, [r3, #0]
 80066a0:	689b      	ldr	r3, [r3, #8]
 80066a2:	f003 0340 	and.w	r3, r3, #64	@ 0x40
 80066a6:	2b40      	cmp	r3, #64	@ 0x40
 80066a8:	d005      	beq.n	80066b6 <HAL_UART_IRQHandler+0x1fa>
 80066aa:	f8d7 30d4 	ldr.w	r3, [r7, #212]	@ 0xd4
 80066ae:	f003 0328 	and.w	r3, r3, #40	@ 0x28
 80066b2:	2b00      	cmp	r3, #0
 80066b4:	d054      	beq.n	8006760 <HAL_UART_IRQHandler+0x2a4>
 80066b6:	6878      	ldr	r0, [r7, #4]
 80066b8:	f001 f83a 	bl	8007730 <UART_EndRxTransfer>
 80066bc:	687b      	ldr	r3, [r7, #4]
 80066be:	681b      	ldr	r3, [r3, #0]
 80066c0:	689b      	ldr	r3, [r3, #8]
 80066c2:	f003 0340 	and.w	r3, r3, #64	@ 0x40
 80066c6:	2b40      	cmp	r3, #64	@ 0x40
 80066c8:	d146      	bne.n	8006758 <HAL_UART_IRQHandler+0x29c>
 80066ca:	687b      	ldr	r3, [r7, #4]
 80066cc:	681b      	ldr	r3, [r3, #0]
 80066ce:	3308      	adds	r3, #8
 80066d0:	f8c7 309c 	str.w	r3, [r7, #156]	@ 0x9c
 80066d4:	f8d7 309c 	ldr.w	r3, [r7, #156]	@ 0x9c
 80066d8:	e853 3f00 	ldrex	r3, [r3]
 80066dc:	f8c7 3098 	str.w	r3, [r7, #152]	@ 0x98
 80066e0:	f8d7 3098 	ldr.w	r3, [r7, #152]	@ 0x98
 80066e4:	f023 0340 	bic.w	r3, r3, #64	@ 0x40
 80066e8:	f8c7 30d0 	str.w	r3, [r7, #208]	@ 0xd0
 80066ec:	687b      	ldr	r3, [r7, #4]
 80066ee:	681b      	ldr	r3, [r3, #0]
 80066f0:	3308      	adds	r3, #8
 80066f2:	f8d7 20d0 	ldr.w	r2, [r7, #208]	@ 0xd0
 80066f6:	f8c7 20a8 	str.w	r2, [r7, #168]	@ 0xa8
 80066fa:	f8c7 30a4 	str.w	r3, [r7, #164]	@ 0xa4
 80066fe:	f8d7 10a4 	ldr.w	r1, [r7, #164]	@ 0xa4
 8006702:	f8d7 20a8 	ldr.w	r2, [r7, #168]	@ 0xa8
 8006706:	e841 2300 	strex	r3, r2, [r1]
 800670a:	f8c7 30a0 	str.w	r3, [r7, #160]	@ 0xa0
 800670e:	f8d7 30a0 	ldr.w	r3, [r7, #160]	@ 0xa0
 8006712:	2b00      	cmp	r3, #0
 8006714:	d1d9      	bne.n	80066ca <HAL_UART_IRQHandler+0x20e>
 8006716:	687b      	ldr	r3, [r7, #4]
 8006718:	f8d3 3080 	ldr.w	r3, [r3, #128]	@ 0x80
 800671c:	2b00      	cmp	r3, #0
 800671e:	d017      	beq.n	8006750 <HAL_UART_IRQHandler+0x294>
 8006720:	687b      	ldr	r3, [r7, #4]
 8006722:	f8d3 3080 	ldr.w	r3, [r3, #128]	@ 0x80
 8006726:	4a15      	ldr	r2, [pc, #84]	@ (800677c <HAL_UART_IRQHandler+0x2c0>)
 8006728:	639a      	str	r2, [r3, #56]	@ 0x38
 800672a:	687b      	ldr	r3, [r7, #4]
 800672c:	f8d3 3080 	ldr.w	r3, [r3, #128]	@ 0x80
 8006730:	4618      	mov	r0, r3
 8006732:	f7fb ffd3 	bl	80026dc <HAL_DMA_Abort_IT>
 8006736:	4603      	mov	r3, r0
 8006738:	2b00      	cmp	r3, #0
 800673a:	d019      	beq.n	8006770 <HAL_UART_IRQHandler+0x2b4>
 800673c:	687b      	ldr	r3, [r7, #4]
 800673e:	f8d3 3080 	ldr.w	r3, [r3, #128]	@ 0x80
 8006742:	6b9b      	ldr	r3, [r3, #56]	@ 0x38
 8006744:	687a      	ldr	r2, [r7, #4]
 8006746:	f8d2 2080 	ldr.w	r2, [r2, #128]	@ 0x80
 800674a:	4610      	mov	r0, r2
 800674c:	4798      	blx	r3
 800674e:	e00f      	b.n	8006770 <HAL_UART_IRQHandler+0x2b4>
 8006750:	6878      	ldr	r0, [r7, #4]
 8006752:	f000 f9ff 	bl	8006b54 <HAL_UART_ErrorCallback>
 8006756:	e00b      	b.n	8006770 <HAL_UART_IRQHandler+0x2b4>
 8006758:	6878      	ldr	r0, [r7, #4]
 800675a:	f000 f9fb 	bl	8006b54 <HAL_UART_ErrorCallback>
 800675e:	e007      	b.n	8006770 <HAL_UART_IRQHandler+0x2b4>
 8006760:	6878      	ldr	r0, [r7, #4]
 8006762:	f000 f9f7 	bl	8006b54 <HAL_UART_ErrorCallback>
 8006766:	687b      	ldr	r3, [r7, #4]
 8006768:	2200      	movs	r2, #0
 800676a:	f8c3 2090 	str.w	r2, [r3, #144]	@ 0x90
 800676e:	e1dc      	b.n	8006b2a <HAL_UART_IRQHandler+0x66e>
 8006770:	bf00      	nop
 8006772:	e1da      	b.n	8006b2a <HAL_UART_IRQHandler+0x66e>
 8006774:	10000001 	.word	0x10000001
 8006778:	04000120 	.word	0x04000120
 800677c:	080077fd 	.word	0x080077fd
 8006780:	687b      	ldr	r3, [r7, #4]
 8006782:	6edb      	ldr	r3, [r3, #108]	@ 0x6c
 8006784:	2b01      	cmp	r3, #1
 8006786:	f040 8170 	bne.w	8006a6a <HAL_UART_IRQHandler+0x5ae>
 800678a:	f8d7 30e4 	ldr.w	r3, [r7, #228]	@ 0xe4
 800678e:	f003 0310 	and.w	r3, r3, #16
 8006792:	2b00      	cmp	r3, #0
 8006794:	f000 8169 	beq.w	8006a6a <HAL_UART_IRQHandler+0x5ae>
 8006798:	f8d7 30e0 	ldr.w	r3, [r7, #224]	@ 0xe0
 800679c:	f003 0310 	and.w	r3, r3, #16
 80067a0:	2b00      	cmp	r3, #0
 80067a2:	f000 8162 	beq.w	8006a6a <HAL_UART_IRQHandler+0x5ae>
 80067a6:	687b      	ldr	r3, [r7, #4]
 80067a8:	681b      	ldr	r3, [r3, #0]
 80067aa:	2210      	movs	r2, #16
 80067ac:	621a      	str	r2, [r3, #32]
 80067ae:	687b      	ldr	r3, [r7, #4]
 80067b0:	681b      	ldr	r3, [r3, #0]
 80067b2:	689b      	ldr	r3, [r3, #8]
 80067b4:	f003 0340 	and.w	r3, r3, #64	@ 0x40
 80067b8:	2b40      	cmp	r3, #64	@ 0x40
 80067ba:	f040 80d8 	bne.w	800696e <HAL_UART_IRQHandler+0x4b2>
 80067be:	687b      	ldr	r3, [r7, #4]
 80067c0:	f8d3 3080 	ldr.w	r3, [r3, #128]	@ 0x80
 80067c4:	681b      	ldr	r3, [r3, #0]
 80067c6:	685b      	ldr	r3, [r3, #4]
 80067c8:	f8a7 30be 	strh.w	r3, [r7, #190]	@ 0xbe
 80067cc:	f8b7 30be 	ldrh.w	r3, [r7, #190]	@ 0xbe
 80067d0:	2b00      	cmp	r3, #0
 80067d2:	f000 80af 	beq.w	8006934 <HAL_UART_IRQHandler+0x478>
 80067d6:	687b      	ldr	r3, [r7, #4]
 80067d8:	f8b3 305c 	ldrh.w	r3, [r3, #92]	@ 0x5c
 80067dc:	f8b7 20be 	ldrh.w	r2, [r7, #190]	@ 0xbe
 80067e0:	429a      	cmp	r2, r3
 80067e2:	f080 80a7 	bcs.w	8006934 <HAL_UART_IRQHandler+0x478>
 80067e6:	687b      	ldr	r3, [r7, #4]
 80067e8:	f8b7 20be 	ldrh.w	r2, [r7, #190]	@ 0xbe
 80067ec:	f8a3 205e 	strh.w	r2, [r3, #94]	@ 0x5e
 80067f0:	687b      	ldr	r3, [r7, #4]
 80067f2:	f8d3 3080 	ldr.w	r3, [r3, #128]	@ 0x80
 80067f6:	681b      	ldr	r3, [r3, #0]
 80067f8:	681b      	ldr	r3, [r3, #0]
 80067fa:	f003 0320 	and.w	r3, r3, #32
 80067fe:	2b00      	cmp	r3, #0
 8006800:	f040 8087 	bne.w	8006912 <HAL_UART_IRQHandler+0x456>
 8006804:	687b      	ldr	r3, [r7, #4]
 8006806:	681b      	ldr	r3, [r3, #0]
 8006808:	f8c7 3088 	str.w	r3, [r7, #136]	@ 0x88
 800680c:	f8d7 3088 	ldr.w	r3, [r7, #136]	@ 0x88
 8006810:	e853 3f00 	ldrex	r3, [r3]
 8006814:	f8c7 3084 	str.w	r3, [r7, #132]	@ 0x84
 8006818:	f8d7 3084 	ldr.w	r3, [r7, #132]	@ 0x84
 800681c:	f423 7380 	bic.w	r3, r3, #256	@ 0x100
 8006820:	f8c7 30b8 	str.w	r3, [r7, #184]	@ 0xb8
 8006824:	687b      	ldr	r3, [r7, #4]
 8006826:	681b      	ldr	r3, [r3, #0]
 8006828:	461a      	mov	r2, r3
 800682a:	f8d7 30b8 	ldr.w	r3, [r7, #184]	@ 0xb8
 800682e:	f8c7 3094 	str.w	r3, [r7, #148]	@ 0x94
 8006832:	f8c7 2090 	str.w	r2, [r7, #144]	@ 0x90
 8006836:	f8d7 1090 	ldr.w	r1, [r7, #144]	@ 0x90
 800683a:	f8d7 2094 	ldr.w	r2, [r7, #148]	@ 0x94
 800683e:	e841 2300 	strex	r3, r2, [r1]
 8006842:	f8c7 308c 	str.w	r3, [r7, #140]	@ 0x8c
 8006846:	f8d7 308c 	ldr.w	r3, [r7, #140]	@ 0x8c
 800684a:	2b00      	cmp	r3, #0
 800684c:	d1da      	bne.n	8006804 <HAL_UART_IRQHandler+0x348>
 800684e:	687b      	ldr	r3, [r7, #4]
 8006850:	681b      	ldr	r3, [r3, #0]
 8006852:	3308      	adds	r3, #8
 8006854:	677b      	str	r3, [r7, #116]	@ 0x74
 8006856:	6f7b      	ldr	r3, [r7, #116]	@ 0x74
 8006858:	e853 3f00 	ldrex	r3, [r3]
 800685c:	673b      	str	r3, [r7, #112]	@ 0x70
 800685e:	6f3b      	ldr	r3, [r7, #112]	@ 0x70
 8006860:	f023 0301 	bic.w	r3, r3, #1
 8006864:	f8c7 30b4 	str.w	r3, [r7, #180]	@ 0xb4
 8006868:	687b      	ldr	r3, [r7, #4]
 800686a:	681b      	ldr	r3, [r3, #0]
 800686c:	3308      	adds	r3, #8
 800686e:	f8d7 20b4 	ldr.w	r2, [r7, #180]	@ 0xb4
 8006872:	f8c7 2080 	str.w	r2, [r7, #128]	@ 0x80
 8006876:	67fb      	str	r3, [r7, #124]	@ 0x7c
 8006878:	6ff9      	ldr	r1, [r7, #124]	@ 0x7c
 800687a:	f8d7 2080 	ldr.w	r2, [r7, #128]	@ 0x80
 800687e:	e841 2300 	strex	r3, r2, [r1]
 8006882:	67bb      	str	r3, [r7, #120]	@ 0x78
 8006884:	6fbb      	ldr	r3, [r7, #120]	@ 0x78
 8006886:	2b00      	cmp	r3, #0
 8006888:	d1e1      	bne.n	800684e <HAL_UART_IRQHandler+0x392>
 800688a:	687b      	ldr	r3, [r7, #4]
 800688c:	681b      	ldr	r3, [r3, #0]
 800688e:	3308      	adds	r3, #8
 8006890:	663b      	str	r3, [r7, #96]	@ 0x60
 8006892:	6e3b      	ldr	r3, [r7, #96]	@ 0x60
 8006894:	e853 3f00 	ldrex	r3, [r3]
 8006898:	65fb      	str	r3, [r7, #92]	@ 0x5c
 800689a:	6dfb      	ldr	r3, [r7, #92]	@ 0x5c
 800689c:	f023 0340 	bic.w	r3, r3, #64	@ 0x40
 80068a0:	f8c7 30b0 	str.w	r3, [r7, #176]	@ 0xb0
 80068a4:	687b      	ldr	r3, [r7, #4]
 80068a6:	681b      	ldr	r3, [r3, #0]
 80068a8:	3308      	adds	r3, #8
 80068aa:	f8d7 20b0 	ldr.w	r2, [r7, #176]	@ 0xb0
 80068ae:	66fa      	str	r2, [r7, #108]	@ 0x6c
 80068b0:	66bb      	str	r3, [r7, #104]	@ 0x68
 80068b2:	6eb9      	ldr	r1, [r7, #104]	@ 0x68
 80068b4:	6efa      	ldr	r2, [r7, #108]	@ 0x6c
 80068b6:	e841 2300 	strex	r3, r2, [r1]
 80068ba:	667b      	str	r3, [r7, #100]	@ 0x64
 80068bc:	6e7b      	ldr	r3, [r7, #100]	@ 0x64
 80068be:	2b00      	cmp	r3, #0
 80068c0:	d1e3      	bne.n	800688a <HAL_UART_IRQHandler+0x3ce>
 80068c2:	687b      	ldr	r3, [r7, #4]
 80068c4:	2220      	movs	r2, #32
 80068c6:	f8c3 208c 	str.w	r2, [r3, #140]	@ 0x8c
 80068ca:	687b      	ldr	r3, [r7, #4]
 80068cc:	2200      	movs	r2, #0
 80068ce:	66da      	str	r2, [r3, #108]	@ 0x6c
 80068d0:	687b      	ldr	r3, [r7, #4]
 80068d2:	681b      	ldr	r3, [r3, #0]
 80068d4:	64fb      	str	r3, [r7, #76]	@ 0x4c
 80068d6:	6cfb      	ldr	r3, [r7, #76]	@ 0x4c
 80068d8:	e853 3f00 	ldrex	r3, [r3]
 80068dc:	64bb      	str	r3, [r7, #72]	@ 0x48
 80068de:	6cbb      	ldr	r3, [r7, #72]	@ 0x48
 80068e0:	f023 0310 	bic.w	r3, r3, #16
 80068e4:	f8c7 30ac 	str.w	r3, [r7, #172]	@ 0xac
 80068e8:	687b      	ldr	r3, [r7, #4]
 80068ea:	681b      	ldr	r3, [r3, #0]
 80068ec:	461a      	mov	r2, r3
 80068ee:	f8d7 30ac 	ldr.w	r3, [r7, #172]	@ 0xac
 80068f2:	65bb      	str	r3, [r7, #88]	@ 0x58
 80068f4:	657a      	str	r2, [r7, #84]	@ 0x54
 80068f6:	6d79      	ldr	r1, [r7, #84]	@ 0x54
 80068f8:	6dba      	ldr	r2, [r7, #88]	@ 0x58
 80068fa:	e841 2300 	strex	r3, r2, [r1]
 80068fe:	653b      	str	r3, [r7, #80]	@ 0x50
 8006900:	6d3b      	ldr	r3, [r7, #80]	@ 0x50
 8006902:	2b00      	cmp	r3, #0
 8006904:	d1e4      	bne.n	80068d0 <HAL_UART_IRQHandler+0x414>
 8006906:	687b      	ldr	r3, [r7, #4]
 8006908:	f8d3 3080 	ldr.w	r3, [r3, #128]	@ 0x80
 800690c:	4618      	mov	r0, r3
 800690e:	f7fb fe8c 	bl	800262a <HAL_DMA_Abort>
 8006912:	687b      	ldr	r3, [r7, #4]
 8006914:	2202      	movs	r2, #2
 8006916:	671a      	str	r2, [r3, #112]	@ 0x70
 8006918:	687b      	ldr	r3, [r7, #4]
 800691a:	f8b3 205c 	ldrh.w	r2, [r3, #92]	@ 0x5c
 800691e:	687b      	ldr	r3, [r7, #4]
 8006920:	f8b3 305e 	ldrh.w	r3, [r3, #94]	@ 0x5e
 8006924:	b29b      	uxth	r3, r3
 8006926:	1ad3      	subs	r3, r2, r3
 8006928:	b29b      	uxth	r3, r3
 800692a:	4619      	mov	r1, r3
 800692c:	6878      	ldr	r0, [r7, #4]
 800692e:	f000 f91b 	bl	8006b68 <HAL_UARTEx_RxEventCallback>
 8006932:	e0fc      	b.n	8006b2e <HAL_UART_IRQHandler+0x672>
 8006934:	687b      	ldr	r3, [r7, #4]
 8006936:	f8b3 305c 	ldrh.w	r3, [r3, #92]	@ 0x5c
 800693a:	f8b7 20be 	ldrh.w	r2, [r7, #190]	@ 0xbe
 800693e:	429a      	cmp	r2, r3
 8006940:	f040 80f5 	bne.w	8006b2e <HAL_UART_IRQHandler+0x672>
 8006944:	687b      	ldr	r3, [r7, #4]
 8006946:	f8d3 3080 	ldr.w	r3, [r3, #128]	@ 0x80
 800694a:	681b      	ldr	r3, [r3, #0]
 800694c:	681b      	ldr	r3, [r3, #0]
 800694e:	f003 0320 	and.w	r3, r3, #32
 8006952:	2b20      	cmp	r3, #32
 8006954:	f040 80eb 	bne.w	8006b2e <HAL_UART_IRQHandler+0x672>
 8006958:	687b      	ldr	r3, [r7, #4]
 800695a:	2202      	movs	r2, #2
 800695c:	671a      	str	r2, [r3, #112]	@ 0x70
 800695e:	687b      	ldr	r3, [r7, #4]
 8006960:	f8b3 305c 	ldrh.w	r3, [r3, #92]	@ 0x5c
 8006964:	4619      	mov	r1, r3
 8006966:	6878      	ldr	r0, [r7, #4]
 8006968:	f000 f8fe 	bl	8006b68 <HAL_UARTEx_RxEventCallback>
 800696c:	e0df      	b.n	8006b2e <HAL_UART_IRQHandler+0x672>
 800696e:	687b      	ldr	r3, [r7, #4]
 8006970:	f8b3 205c 	ldrh.w	r2, [r3, #92]	@ 0x5c
 8006974:	687b      	ldr	r3, [r7, #4]
 8006976:	f8b3 305e 	ldrh.w	r3, [r3, #94]	@ 0x5e
 800697a:	b29b      	uxth	r3, r3
 800697c:	1ad3      	subs	r3, r2, r3
 800697e:	f8a7 30ce 	strh.w	r3, [r7, #206]	@ 0xce
 8006982:	687b      	ldr	r3, [r7, #4]
 8006984:	f8b3 305e 	ldrh.w	r3, [r3, #94]	@ 0x5e
 8006988:	b29b      	uxth	r3, r3
 800698a:	2b00      	cmp	r3, #0
 800698c:	f000 80d1 	beq.w	8006b32 <HAL_UART_IRQHandler+0x676>
 8006990:	f8b7 30ce 	ldrh.w	r3, [r7, #206]	@ 0xce
 8006994:	2b00      	cmp	r3, #0
 8006996:	f000 80cc 	beq.w	8006b32 <HAL_UART_IRQHandler+0x676>
 800699a:	687b      	ldr	r3, [r7, #4]
 800699c:	681b      	ldr	r3, [r3, #0]
 800699e:	63bb      	str	r3, [r7, #56]	@ 0x38
 80069a0:	6bbb      	ldr	r3, [r7, #56]	@ 0x38
 80069a2:	e853 3f00 	ldrex	r3, [r3]
 80069a6:	637b      	str	r3, [r7, #52]	@ 0x34
 80069a8:	6b7b      	ldr	r3, [r7, #52]	@ 0x34
 80069aa:	f423 7390 	bic.w	r3, r3, #288	@ 0x120
 80069ae:	f8c7 30c8 	str.w	r3, [r7, #200]	@ 0xc8
 80069b2:	687b      	ldr	r3, [r7, #4]
 80069b4:	681b      	ldr	r3, [r3, #0]
 80069b6:	461a      	mov	r2, r3
 80069b8:	f8d7 30c8 	ldr.w	r3, [r7, #200]	@ 0xc8
 80069bc:	647b      	str	r3, [r7, #68]	@ 0x44
 80069be:	643a      	str	r2, [r7, #64]	@ 0x40
 80069c0:	6c39      	ldr	r1, [r7, #64]	@ 0x40
 80069c2:	6c7a      	ldr	r2, [r7, #68]	@ 0x44
 80069c4:	e841 2300 	strex	r3, r2, [r1]
 80069c8:	63fb      	str	r3, [r7, #60]	@ 0x3c
 80069ca:	6bfb      	ldr	r3, [r7, #60]	@ 0x3c
 80069cc:	2b00      	cmp	r3, #0
 80069ce:	d1e4      	bne.n	800699a <HAL_UART_IRQHandler+0x4de>
 80069d0:	687b      	ldr	r3, [r7, #4]
 80069d2:	681b      	ldr	r3, [r3, #0]
 80069d4:	3308      	adds	r3, #8
 80069d6:	627b      	str	r3, [r7, #36]	@ 0x24
 80069d8:	6a7b      	ldr	r3, [r7, #36]	@ 0x24
 80069da:	e853 3f00 	ldrex	r3, [r3]
 80069de:	623b      	str	r3, [r7, #32]
 80069e0:	6a3b      	ldr	r3, [r7, #32]
 80069e2:	f023 5380 	bic.w	r3, r3, #268435456	@ 0x10000000
 80069e6:	f023 0301 	bic.w	r3, r3, #1
 80069ea:	f8c7 30c4 	str.w	r3, [r7, #196]	@ 0xc4
 80069ee:	687b      	ldr	r3, [r7, #4]
 80069f0:	681b      	ldr	r3, [r3, #0]
 80069f2:	3308      	adds	r3, #8
 80069f4:	f8d7 20c4 	ldr.w	r2, [r7, #196]	@ 0xc4
 80069f8:	633a      	str	r2, [r7, #48]	@ 0x30
 80069fa:	62fb      	str	r3, [r7, #44]	@ 0x2c
 80069fc:	6af9      	ldr	r1, [r7, #44]	@ 0x2c
 80069fe:	6b3a      	ldr	r2, [r7, #48]	@ 0x30
 8006a00:	e841 2300 	strex	r3, r2, [r1]
 8006a04:	62bb      	str	r3, [r7, #40]	@ 0x28
 8006a06:	6abb      	ldr	r3, [r7, #40]	@ 0x28
 8006a08:	2b00      	cmp	r3, #0
 8006a0a:	d1e1      	bne.n	80069d0 <HAL_UART_IRQHandler+0x514>
 8006a0c:	687b      	ldr	r3, [r7, #4]
 8006a0e:	2220      	movs	r2, #32
 8006a10:	f8c3 208c 	str.w	r2, [r3, #140]	@ 0x8c
 8006a14:	687b      	ldr	r3, [r7, #4]
 8006a16:	2200      	movs	r2, #0
 8006a18:	66da      	str	r2, [r3, #108]	@ 0x6c
 8006a1a:	687b      	ldr	r3, [r7, #4]
 8006a1c:	2200      	movs	r2, #0
 8006a1e:	675a      	str	r2, [r3, #116]	@ 0x74
 8006a20:	687b      	ldr	r3, [r7, #4]
 8006a22:	681b      	ldr	r3, [r3, #0]
 8006a24:	613b      	str	r3, [r7, #16]
 8006a26:	693b      	ldr	r3, [r7, #16]
 8006a28:	e853 3f00 	ldrex	r3, [r3]
 8006a2c:	60fb      	str	r3, [r7, #12]
 8006a2e:	68fb      	ldr	r3, [r7, #12]
 8006a30:	f023 0310 	bic.w	r3, r3, #16
 8006a34:	f8c7 30c0 	str.w	r3, [r7, #192]	@ 0xc0
 8006a38:	687b      	ldr	r3, [r7, #4]
 8006a3a:	681b      	ldr	r3, [r3, #0]
 8006a3c:	461a      	mov	r2, r3
 8006a3e:	f8d7 30c0 	ldr.w	r3, [r7, #192]	@ 0xc0
 8006a42:	61fb      	str	r3, [r7, #28]
 8006a44:	61ba      	str	r2, [r7, #24]
 8006a46:	69b9      	ldr	r1, [r7, #24]
 8006a48:	69fa      	ldr	r2, [r7, #28]
 8006a4a:	e841 2300 	strex	r3, r2, [r1]
 8006a4e:	617b      	str	r3, [r7, #20]
 8006a50:	697b      	ldr	r3, [r7, #20]
 8006a52:	2b00      	cmp	r3, #0
 8006a54:	d1e4      	bne.n	8006a20 <HAL_UART_IRQHandler+0x564>
 8006a56:	687b      	ldr	r3, [r7, #4]
 8006a58:	2202      	movs	r2, #2
 8006a5a:	671a      	str	r2, [r3, #112]	@ 0x70
 8006a5c:	f8b7 30ce 	ldrh.w	r3, [r7, #206]	@ 0xce
 8006a60:	4619      	mov	r1, r3
 8006a62:	6878      	ldr	r0, [r7, #4]
 8006a64:	f000 f880 	bl	8006b68 <HAL_UARTEx_RxEventCallback>
 8006a68:	e063      	b.n	8006b32 <HAL_UART_IRQHandler+0x676>
 8006a6a:	f8d7 30e4 	ldr.w	r3, [r7, #228]	@ 0xe4
 8006a6e:	f403 1380 	and.w	r3, r3, #1048576	@ 0x100000
 8006a72:	2b00      	cmp	r3, #0
 8006a74:	d00e      	beq.n	8006a94 <HAL_UART_IRQHandler+0x5d8>
 8006a76:	f8d7 30dc 	ldr.w	r3, [r7, #220]	@ 0xdc
 8006a7a:	f403 0380 	and.w	r3, r3, #4194304	@ 0x400000
 8006a7e:	2b00      	cmp	r3, #0
 8006a80:	d008      	beq.n	8006a94 <HAL_UART_IRQHandler+0x5d8>
 8006a82:	687b      	ldr	r3, [r7, #4]
 8006a84:	681b      	ldr	r3, [r3, #0]
 8006a86:	f44f 1280 	mov.w	r2, #1048576	@ 0x100000
 8006a8a:	621a      	str	r2, [r3, #32]
 8006a8c:	6878      	ldr	r0, [r7, #4]
 8006a8e:	f001 fc13 	bl	80082b8 <HAL_UARTEx_WakeupCallback>
 8006a92:	e051      	b.n	8006b38 <HAL_UART_IRQHandler+0x67c>
 8006a94:	f8d7 30e4 	ldr.w	r3, [r7, #228]	@ 0xe4
 8006a98:	f003 0380 	and.w	r3, r3, #128	@ 0x80
 8006a9c:	2b00      	cmp	r3, #0
 8006a9e:	d014      	beq.n	8006aca <HAL_UART_IRQHandler+0x60e>
 8006aa0:	f8d7 30e0 	ldr.w	r3, [r7, #224]	@ 0xe0
 8006aa4:	f003 0380 	and.w	r3, r3, #128	@ 0x80
 8006aa8:	2b00      	cmp	r3, #0
 8006aaa:	d105      	bne.n	8006ab8 <HAL_UART_IRQHandler+0x5fc>
 8006aac:	f8d7 30dc 	ldr.w	r3, [r7, #220]	@ 0xdc
 8006ab0:	f403 0300 	and.w	r3, r3, #8388608	@ 0x800000
 8006ab4:	2b00      	cmp	r3, #0
 8006ab6:	d008      	beq.n	8006aca <HAL_UART_IRQHandler+0x60e>
 8006ab8:	687b      	ldr	r3, [r7, #4]
 8006aba:	6f9b      	ldr	r3, [r3, #120]	@ 0x78
 8006abc:	2b00      	cmp	r3, #0
 8006abe:	d03a      	beq.n	8006b36 <HAL_UART_IRQHandler+0x67a>
 8006ac0:	687b      	ldr	r3, [r7, #4]
 8006ac2:	6f9b      	ldr	r3, [r3, #120]	@ 0x78
 8006ac4:	6878      	ldr	r0, [r7, #4]
 8006ac6:	4798      	blx	r3
 8006ac8:	e035      	b.n	8006b36 <HAL_UART_IRQHandler+0x67a>
 8006aca:	f8d7 30e4 	ldr.w	r3, [r7, #228]	@ 0xe4
 8006ace:	f003 0340 	and.w	r3, r3, #64	@ 0x40
 8006ad2:	2b00      	cmp	r3, #0
 8006ad4:	d009      	beq.n	8006aea <HAL_UART_IRQHandler+0x62e>
 8006ad6:	f8d7 30e0 	ldr.w	r3, [r7, #224]	@ 0xe0
 8006ada:	f003 0340 	and.w	r3, r3, #64	@ 0x40
 8006ade:	2b00      	cmp	r3, #0
 8006ae0:	d003      	beq.n	8006aea <HAL_UART_IRQHandler+0x62e>
 8006ae2:	6878      	ldr	r0, [r7, #4]
 8006ae4:	f000 fe9c 	bl	8007820 <UART_EndTransmit_IT>
 8006ae8:	e026      	b.n	8006b38 <HAL_UART_IRQHandler+0x67c>
 8006aea:	f8d7 30e4 	ldr.w	r3, [r7, #228]	@ 0xe4
 8006aee:	f403 0300 	and.w	r3, r3, #8388608	@ 0x800000
 8006af2:	2b00      	cmp	r3, #0
 8006af4:	d009      	beq.n	8006b0a <HAL_UART_IRQHandler+0x64e>
 8006af6:	f8d7 30e0 	ldr.w	r3, [r7, #224]	@ 0xe0
 8006afa:	f003 4380 	and.w	r3, r3, #1073741824	@ 0x40000000
 8006afe:	2b00      	cmp	r3, #0
 8006b00:	d003      	beq.n	8006b0a <HAL_UART_IRQHandler+0x64e>
 8006b02:	6878      	ldr	r0, [r7, #4]
 8006b04:	f001 fbec 	bl	80082e0 <HAL_UARTEx_TxFifoEmptyCallback>
 8006b08:	e016      	b.n	8006b38 <HAL_UART_IRQHandler+0x67c>
 8006b0a:	f8d7 30e4 	ldr.w	r3, [r7, #228]	@ 0xe4
 8006b0e:	f003 7380 	and.w	r3, r3, #16777216	@ 0x1000000
 8006b12:	2b00      	cmp	r3, #0
 8006b14:	d010      	beq.n	8006b38 <HAL_UART_IRQHandler+0x67c>
 8006b16:	f8d7 30e0 	ldr.w	r3, [r7, #224]	@ 0xe0
 8006b1a:	2b00      	cmp	r3, #0
 8006b1c:	da0c      	bge.n	8006b38 <HAL_UART_IRQHandler+0x67c>
 8006b1e:	6878      	ldr	r0, [r7, #4]
 8006b20:	f001 fbd4 	bl	80082cc <HAL_UARTEx_RxFifoFullCallback>
 8006b24:	e008      	b.n	8006b38 <HAL_UART_IRQHandler+0x67c>
 8006b26:	bf00      	nop
 8006b28:	e006      	b.n	8006b38 <HAL_UART_IRQHandler+0x67c>
 8006b2a:	bf00      	nop
 8006b2c:	e004      	b.n	8006b38 <HAL_UART_IRQHandler+0x67c>
 8006b2e:	bf00      	nop
 8006b30:	e002      	b.n	8006b38 <HAL_UART_IRQHandler+0x67c>
 8006b32:	bf00      	nop
 8006b34:	e000      	b.n	8006b38 <HAL_UART_IRQHandler+0x67c>
 8006b36:	bf00      	nop
 8006b38:	37e8      	adds	r7, #232	@ 0xe8
 8006b3a:	46bd      	mov	sp, r7
 8006b3c:	bd80      	pop	{r7, pc}
 8006b3e:	bf00      	nop

08006b40 <HAL_UART_TxCpltCallback>:
 8006b40:	b480      	push	{r7}
 8006b42:	b083      	sub	sp, #12
 8006b44:	af00      	add	r7, sp, #0
 8006b46:	6078      	str	r0, [r7, #4]
 8006b48:	bf00      	nop
 8006b4a:	370c      	adds	r7, #12
 8006b4c:	46bd      	mov	sp, r7
 8006b4e:	f85d 7b04 	ldr.w	r7, [sp], #4
 8006b52:	4770      	bx	lr

08006b54 <HAL_UART_ErrorCallback>:
 8006b54:	b480      	push	{r7}
 8006b56:	b083      	sub	sp, #12
 8006b58:	af00      	add	r7, sp, #0
 8006b5a:	6078      	str	r0, [r7, #4]
 8006b5c:	bf00      	nop
 8006b5e:	370c      	adds	r7, #12
 8006b60:	46bd      	mov	sp, r7
 8006b62:	f85d 7b04 	ldr.w	r7, [sp], #4
 8006b66:	4770      	bx	lr

08006b68 <HAL_UARTEx_RxEventCallback>:
 8006b68:	b480      	push	{r7}
 8006b6a:	b083      	sub	sp, #12
 8006b6c:	af00      	add	r7, sp, #0
 8006b6e:	6078      	str	r0, [r7, #4]
 8006b70:	460b      	mov	r3, r1
 8006b72:	807b      	strh	r3, [r7, #2]
 8006b74:	bf00      	nop
 8006b76:	370c      	adds	r7, #12
 8006b78:	46bd      	mov	sp, r7
 8006b7a:	f85d 7b04 	ldr.w	r7, [sp], #4
 8006b7e:	4770      	bx	lr

08006b80 <UART_SetConfig>:
 8006b80:	e92d 4fb0 	stmdb	sp!, {r4, r5, r7, r8, r9, sl, fp, lr}
 8006b84:	b08c      	sub	sp, #48	@ 0x30
 8006b86:	af00      	add	r7, sp, #0
 8006b88:	6178      	str	r0, [r7, #20]
 8006b8a:	2300      	movs	r3, #0
 8006b8c:	f887 302a 	strb.w	r3, [r7, #42]	@ 0x2a
 8006b90:	697b      	ldr	r3, [r7, #20]
 8006b92:	689a      	ldr	r2, [r3, #8]
 8006b94:	697b      	ldr	r3, [r7, #20]
 8006b96:	691b      	ldr	r3, [r3, #16]
 8006b98:	431a      	orrs	r2, r3
 8006b9a:	697b      	ldr	r3, [r7, #20]
 8006b9c:	695b      	ldr	r3, [r3, #20]
 8006b9e:	431a      	orrs	r2, r3
 8006ba0:	697b      	ldr	r3, [r7, #20]
 8006ba2:	69db      	ldr	r3, [r3, #28]
 8006ba4:	4313      	orrs	r3, r2
 8006ba6:	62fb      	str	r3, [r7, #44]	@ 0x2c
 8006ba8:	697b      	ldr	r3, [r7, #20]
 8006baa:	681b      	ldr	r3, [r3, #0]
 8006bac:	681a      	ldr	r2, [r3, #0]
 8006bae:	4baa      	ldr	r3, [pc, #680]	@ (8006e58 <UART_SetConfig+0x2d8>)
 8006bb0:	4013      	ands	r3, r2
 8006bb2:	697a      	ldr	r2, [r7, #20]
 8006bb4:	6812      	ldr	r2, [r2, #0]
 8006bb6:	6af9      	ldr	r1, [r7, #44]	@ 0x2c
 8006bb8:	430b      	orrs	r3, r1
 8006bba:	6013      	str	r3, [r2, #0]
 8006bbc:	697b      	ldr	r3, [r7, #20]
 8006bbe:	681b      	ldr	r3, [r3, #0]
 8006bc0:	685b      	ldr	r3, [r3, #4]
 8006bc2:	f423 5140 	bic.w	r1, r3, #12288	@ 0x3000
 8006bc6:	697b      	ldr	r3, [r7, #20]
 8006bc8:	68da      	ldr	r2, [r3, #12]
 8006bca:	697b      	ldr	r3, [r7, #20]
 8006bcc:	681b      	ldr	r3, [r3, #0]
 8006bce:	430a      	orrs	r2, r1
 8006bd0:	605a      	str	r2, [r3, #4]
 8006bd2:	697b      	ldr	r3, [r7, #20]
 8006bd4:	699b      	ldr	r3, [r3, #24]
 8006bd6:	62fb      	str	r3, [r7, #44]	@ 0x2c
 8006bd8:	697b      	ldr	r3, [r7, #20]
 8006bda:	681b      	ldr	r3, [r3, #0]
 8006bdc:	4a9f      	ldr	r2, [pc, #636]	@ (8006e5c <UART_SetConfig+0x2dc>)
 8006bde:	4293      	cmp	r3, r2
 8006be0:	d004      	beq.n	8006bec <UART_SetConfig+0x6c>
 8006be2:	697b      	ldr	r3, [r7, #20]
 8006be4:	6a1b      	ldr	r3, [r3, #32]
 8006be6:	6afa      	ldr	r2, [r7, #44]	@ 0x2c
 8006be8:	4313      	orrs	r3, r2
 8006bea:	62fb      	str	r3, [r7, #44]	@ 0x2c
 8006bec:	697b      	ldr	r3, [r7, #20]
 8006bee:	681b      	ldr	r3, [r3, #0]
 8006bf0:	689b      	ldr	r3, [r3, #8]
 8006bf2:	f023 436e 	bic.w	r3, r3, #3992977408	@ 0xee000000
 8006bf6:	f423 6330 	bic.w	r3, r3, #2816	@ 0xb00
 8006bfa:	697a      	ldr	r2, [r7, #20]
 8006bfc:	6812      	ldr	r2, [r2, #0]
 8006bfe:	6af9      	ldr	r1, [r7, #44]	@ 0x2c
 8006c00:	430b      	orrs	r3, r1
 8006c02:	6093      	str	r3, [r2, #8]
 8006c04:	697b      	ldr	r3, [r7, #20]
 8006c06:	681b      	ldr	r3, [r3, #0]
 8006c08:	6adb      	ldr	r3, [r3, #44]	@ 0x2c
 8006c0a:	f023 010f 	bic.w	r1, r3, #15
 8006c0e:	697b      	ldr	r3, [r7, #20]
 8006c10:	6a5a      	ldr	r2, [r3, #36]	@ 0x24
 8006c12:	697b      	ldr	r3, [r7, #20]
 8006c14:	681b      	ldr	r3, [r3, #0]
 8006c16:	430a      	orrs	r2, r1
 8006c18:	62da      	str	r2, [r3, #44]	@ 0x2c
 8006c1a:	697b      	ldr	r3, [r7, #20]
 8006c1c:	681b      	ldr	r3, [r3, #0]
 8006c1e:	4a90      	ldr	r2, [pc, #576]	@ (8006e60 <UART_SetConfig+0x2e0>)
 8006c20:	4293      	cmp	r3, r2
 8006c22:	d125      	bne.n	8006c70 <UART_SetConfig+0xf0>
 8006c24:	4b8f      	ldr	r3, [pc, #572]	@ (8006e64 <UART_SetConfig+0x2e4>)
 8006c26:	f8d3 3088 	ldr.w	r3, [r3, #136]	@ 0x88
 8006c2a:	f003 0303 	and.w	r3, r3, #3
 8006c2e:	2b03      	cmp	r3, #3
 8006c30:	d81a      	bhi.n	8006c68 <UART_SetConfig+0xe8>
 8006c32:	a201      	add	r2, pc, #4	@ (adr r2, 8006c38 <UART_SetConfig+0xb8>)
 8006c34:	f852 f023 	ldr.w	pc, [r2, r3, lsl #2]
 8006c38:	08006c49 	.word	0x08006c49
 8006c3c:	08006c59 	.word	0x08006c59
 8006c40:	08006c51 	.word	0x08006c51
 8006c44:	08006c61 	.word	0x08006c61
 8006c48:	2301      	movs	r3, #1
 8006c4a:	f887 302b 	strb.w	r3, [r7, #43]	@ 0x2b
 8006c4e:	e116      	b.n	8006e7e <UART_SetConfig+0x2fe>
 8006c50:	2302      	movs	r3, #2
 8006c52:	f887 302b 	strb.w	r3, [r7, #43]	@ 0x2b
 8006c56:	e112      	b.n	8006e7e <UART_SetConfig+0x2fe>
 8006c58:	2304      	movs	r3, #4
 8006c5a:	f887 302b 	strb.w	r3, [r7, #43]	@ 0x2b
 8006c5e:	e10e      	b.n	8006e7e <UART_SetConfig+0x2fe>
 8006c60:	2308      	movs	r3, #8
 8006c62:	f887 302b 	strb.w	r3, [r7, #43]	@ 0x2b
 8006c66:	e10a      	b.n	8006e7e <UART_SetConfig+0x2fe>
 8006c68:	2310      	movs	r3, #16
 8006c6a:	f887 302b 	strb.w	r3, [r7, #43]	@ 0x2b
 8006c6e:	e106      	b.n	8006e7e <UART_SetConfig+0x2fe>
 8006c70:	697b      	ldr	r3, [r7, #20]
 8006c72:	681b      	ldr	r3, [r3, #0]
 8006c74:	4a7c      	ldr	r2, [pc, #496]	@ (8006e68 <UART_SetConfig+0x2e8>)
 8006c76:	4293      	cmp	r3, r2
 8006c78:	d138      	bne.n	8006cec <UART_SetConfig+0x16c>
 8006c7a:	4b7a      	ldr	r3, [pc, #488]	@ (8006e64 <UART_SetConfig+0x2e4>)
 8006c7c:	f8d3 3088 	ldr.w	r3, [r3, #136]	@ 0x88
 8006c80:	f003 030c 	and.w	r3, r3, #12
 8006c84:	2b0c      	cmp	r3, #12
 8006c86:	d82d      	bhi.n	8006ce4 <UART_SetConfig+0x164>
 8006c88:	a201      	add	r2, pc, #4	@ (adr r2, 8006c90 <UART_SetConfig+0x110>)
 8006c8a:	f852 f023 	ldr.w	pc, [r2, r3, lsl #2]
 8006c8e:	bf00      	nop
 8006c90:	08006cc5 	.word	0x08006cc5
 8006c94:	08006ce5 	.word	0x08006ce5
 8006c98:	08006ce5 	.word	0x08006ce5
 8006c9c:	08006ce5 	.word	0x08006ce5
 8006ca0:	08006cd5 	.word	0x08006cd5
 8006ca4:	08006ce5 	.word	0x08006ce5
 8006ca8:	08006ce5 	.word	0x08006ce5
 8006cac:	08006ce5 	.word	0x08006ce5
 8006cb0:	08006ccd 	.word	0x08006ccd
 8006cb4:	08006ce5 	.word	0x08006ce5
 8006cb8:	08006ce5 	.word	0x08006ce5
 8006cbc:	08006ce5 	.word	0x08006ce5
 8006cc0:	08006cdd 	.word	0x08006cdd
 8006cc4:	2300      	movs	r3, #0
 8006cc6:	f887 302b 	strb.w	r3, [r7, #43]	@ 0x2b
 8006cca:	e0d8      	b.n	8006e7e <UART_SetConfig+0x2fe>
 8006ccc:	2302      	movs	r3, #2
 8006cce:	f887 302b 	strb.w	r3, [r7, #43]	@ 0x2b
 8006cd2:	e0d4      	b.n	8006e7e <UART_SetConfig+0x2fe>
 8006cd4:	2304      	movs	r3, #4
 8006cd6:	f887 302b 	strb.w	r3, [r7, #43]	@ 0x2b
 8006cda:	e0d0      	b.n	8006e7e <UART_SetConfig+0x2fe>
 8006cdc:	2308      	movs	r3, #8
 8006cde:	f887 302b 	strb.w	r3, [r7, #43]	@ 0x2b
 8006ce2:	e0cc      	b.n	8006e7e <UART_SetConfig+0x2fe>
 8006ce4:	2310      	movs	r3, #16
 8006ce6:	f887 302b 	strb.w	r3, [r7, #43]	@ 0x2b
 8006cea:	e0c8      	b.n	8006e7e <UART_SetConfig+0x2fe>
 8006cec:	697b      	ldr	r3, [r7, #20]
 8006cee:	681b      	ldr	r3, [r3, #0]
 8006cf0:	4a5e      	ldr	r2, [pc, #376]	@ (8006e6c <UART_SetConfig+0x2ec>)
 8006cf2:	4293      	cmp	r3, r2
 8006cf4:	d125      	bne.n	8006d42 <UART_SetConfig+0x1c2>
 8006cf6:	4b5b      	ldr	r3, [pc, #364]	@ (8006e64 <UART_SetConfig+0x2e4>)
 8006cf8:	f8d3 3088 	ldr.w	r3, [r3, #136]	@ 0x88
 8006cfc:	f003 0330 	and.w	r3, r3, #48	@ 0x30
 8006d00:	2b30      	cmp	r3, #48	@ 0x30
 8006d02:	d016      	beq.n	8006d32 <UART_SetConfig+0x1b2>
 8006d04:	2b30      	cmp	r3, #48	@ 0x30
 8006d06:	d818      	bhi.n	8006d3a <UART_SetConfig+0x1ba>
 8006d08:	2b20      	cmp	r3, #32
 8006d0a:	d00a      	beq.n	8006d22 <UART_SetConfig+0x1a2>
 8006d0c:	2b20      	cmp	r3, #32
 8006d0e:	d814      	bhi.n	8006d3a <UART_SetConfig+0x1ba>
 8006d10:	2b00      	cmp	r3, #0
 8006d12:	d002      	beq.n	8006d1a <UART_SetConfig+0x19a>
 8006d14:	2b10      	cmp	r3, #16
 8006d16:	d008      	beq.n	8006d2a <UART_SetConfig+0x1aa>
 8006d18:	e00f      	b.n	8006d3a <UART_SetConfig+0x1ba>
 8006d1a:	2300      	movs	r3, #0
 8006d1c:	f887 302b 	strb.w	r3, [r7, #43]	@ 0x2b
 8006d20:	e0ad      	b.n	8006e7e <UART_SetConfig+0x2fe>
 8006d22:	2302      	movs	r3, #2
 8006d24:	f887 302b 	strb.w	r3, [r7, #43]	@ 0x2b
 8006d28:	e0a9      	b.n	8006e7e <UART_SetConfig+0x2fe>
 8006d2a:	2304      	movs	r3, #4
 8006d2c:	f887 302b 	strb.w	r3, [r7, #43]	@ 0x2b
 8006d30:	e0a5      	b.n	8006e7e <UART_SetConfig+0x2fe>
 8006d32:	2308      	movs	r3, #8
 8006d34:	f887 302b 	strb.w	r3, [r7, #43]	@ 0x2b
 8006d38:	e0a1      	b.n	8006e7e <UART_SetConfig+0x2fe>
 8006d3a:	2310      	movs	r3, #16
 8006d3c:	f887 302b 	strb.w	r3, [r7, #43]	@ 0x2b
 8006d40:	e09d      	b.n	8006e7e <UART_SetConfig+0x2fe>
 8006d42:	697b      	ldr	r3, [r7, #20]
 8006d44:	681b      	ldr	r3, [r3, #0]
 8006d46:	4a4a      	ldr	r2, [pc, #296]	@ (8006e70 <UART_SetConfig+0x2f0>)
 8006d48:	4293      	cmp	r3, r2
 8006d4a:	d125      	bne.n	8006d98 <UART_SetConfig+0x218>
 8006d4c:	4b45      	ldr	r3, [pc, #276]	@ (8006e64 <UART_SetConfig+0x2e4>)
 8006d4e:	f8d3 3088 	ldr.w	r3, [r3, #136]	@ 0x88
 8006d52:	f003 03c0 	and.w	r3, r3, #192	@ 0xc0
 8006d56:	2bc0      	cmp	r3, #192	@ 0xc0
 8006d58:	d016      	beq.n	8006d88 <UART_SetConfig+0x208>
 8006d5a:	2bc0      	cmp	r3, #192	@ 0xc0
 8006d5c:	d818      	bhi.n	8006d90 <UART_SetConfig+0x210>
 8006d5e:	2b80      	cmp	r3, #128	@ 0x80
 8006d60:	d00a      	beq.n	8006d78 <UART_SetConfig+0x1f8>
 8006d62:	2b80      	cmp	r3, #128	@ 0x80
 8006d64:	d814      	bhi.n	8006d90 <UART_SetConfig+0x210>
 8006d66:	2b00      	cmp	r3, #0
 8006d68:	d002      	beq.n	8006d70 <UART_SetConfig+0x1f0>
 8006d6a:	2b40      	cmp	r3, #64	@ 0x40
 8006d6c:	d008      	beq.n	8006d80 <UART_SetConfig+0x200>
 8006d6e:	e00f      	b.n	8006d90 <UART_SetConfig+0x210>
 8006d70:	2300      	movs	r3, #0
 8006d72:	f887 302b 	strb.w	r3, [r7, #43]	@ 0x2b
 8006d76:	e082      	b.n	8006e7e <UART_SetConfig+0x2fe>
 8006d78:	2302      	movs	r3, #2
 8006d7a:	f887 302b 	strb.w	r3, [r7, #43]	@ 0x2b
 8006d7e:	e07e      	b.n	8006e7e <UART_SetConfig+0x2fe>
 8006d80:	2304      	movs	r3, #4
 8006d82:	f887 302b 	strb.w	r3, [r7, #43]	@ 0x2b
 8006d86:	e07a      	b.n	8006e7e <UART_SetConfig+0x2fe>
 8006d88:	2308      	movs	r3, #8
 8006d8a:	f887 302b 	strb.w	r3, [r7, #43]	@ 0x2b
 8006d8e:	e076      	b.n	8006e7e <UART_SetConfig+0x2fe>
 8006d90:	2310      	movs	r3, #16
 8006d92:	f887 302b 	strb.w	r3, [r7, #43]	@ 0x2b
 8006d96:	e072      	b.n	8006e7e <UART_SetConfig+0x2fe>
 8006d98:	697b      	ldr	r3, [r7, #20]
 8006d9a:	681b      	ldr	r3, [r3, #0]
 8006d9c:	4a35      	ldr	r2, [pc, #212]	@ (8006e74 <UART_SetConfig+0x2f4>)
 8006d9e:	4293      	cmp	r3, r2
 8006da0:	d12a      	bne.n	8006df8 <UART_SetConfig+0x278>
 8006da2:	4b30      	ldr	r3, [pc, #192]	@ (8006e64 <UART_SetConfig+0x2e4>)
 8006da4:	f8d3 3088 	ldr.w	r3, [r3, #136]	@ 0x88
 8006da8:	f403 7340 	and.w	r3, r3, #768	@ 0x300
 8006dac:	f5b3 7f40 	cmp.w	r3, #768	@ 0x300
 8006db0:	d01a      	beq.n	8006de8 <UART_SetConfig+0x268>
 8006db2:	f5b3 7f40 	cmp.w	r3, #768	@ 0x300
 8006db6:	d81b      	bhi.n	8006df0 <UART_SetConfig+0x270>
 8006db8:	f5b3 7f00 	cmp.w	r3, #512	@ 0x200
 8006dbc:	d00c      	beq.n	8006dd8 <UART_SetConfig+0x258>
 8006dbe:	f5b3 7f00 	cmp.w	r3, #512	@ 0x200
 8006dc2:	d815      	bhi.n	8006df0 <UART_SetConfig+0x270>
 8006dc4:	2b00      	cmp	r3, #0
 8006dc6:	d003      	beq.n	8006dd0 <UART_SetConfig+0x250>
 8006dc8:	f5b3 7f80 	cmp.w	r3, #256	@ 0x100
 8006dcc:	d008      	beq.n	8006de0 <UART_SetConfig+0x260>
 8006dce:	e00f      	b.n	8006df0 <UART_SetConfig+0x270>
 8006dd0:	2300      	movs	r3, #0
 8006dd2:	f887 302b 	strb.w	r3, [r7, #43]	@ 0x2b
 8006dd6:	e052      	b.n	8006e7e <UART_SetConfig+0x2fe>
 8006dd8:	2302      	movs	r3, #2
 8006dda:	f887 302b 	strb.w	r3, [r7, #43]	@ 0x2b
 8006dde:	e04e      	b.n	8006e7e <UART_SetConfig+0x2fe>
 8006de0:	2304      	movs	r3, #4
 8006de2:	f887 302b 	strb.w	r3, [r7, #43]	@ 0x2b
 8006de6:	e04a      	b.n	8006e7e <UART_SetConfig+0x2fe>
 8006de8:	2308      	movs	r3, #8
 8006dea:	f887 302b 	strb.w	r3, [r7, #43]	@ 0x2b
 8006dee:	e046      	b.n	8006e7e <UART_SetConfig+0x2fe>
 8006df0:	2310      	movs	r3, #16
 8006df2:	f887 302b 	strb.w	r3, [r7, #43]	@ 0x2b
 8006df6:	e042      	b.n	8006e7e <UART_SetConfig+0x2fe>
 8006df8:	697b      	ldr	r3, [r7, #20]
 8006dfa:	681b      	ldr	r3, [r3, #0]
 8006dfc:	4a17      	ldr	r2, [pc, #92]	@ (8006e5c <UART_SetConfig+0x2dc>)
 8006dfe:	4293      	cmp	r3, r2
 8006e00:	d13a      	bne.n	8006e78 <UART_SetConfig+0x2f8>
 8006e02:	4b18      	ldr	r3, [pc, #96]	@ (8006e64 <UART_SetConfig+0x2e4>)
 8006e04:	f8d3 3088 	ldr.w	r3, [r3, #136]	@ 0x88
 8006e08:	f403 6340 	and.w	r3, r3, #3072	@ 0xc00
 8006e0c:	f5b3 6f40 	cmp.w	r3, #3072	@ 0xc00
 8006e10:	d01a      	beq.n	8006e48 <UART_SetConfig+0x2c8>
 8006e12:	f5b3 6f40 	cmp.w	r3, #3072	@ 0xc00
 8006e16:	d81b      	bhi.n	8006e50 <UART_SetConfig+0x2d0>
 8006e18:	f5b3 6f00 	cmp.w	r3, #2048	@ 0x800
 8006e1c:	d00c      	beq.n	8006e38 <UART_SetConfig+0x2b8>
 8006e1e:	f5b3 6f00 	cmp.w	r3, #2048	@ 0x800
 8006e22:	d815      	bhi.n	8006e50 <UART_SetConfig+0x2d0>
 8006e24:	2b00      	cmp	r3, #0
 8006e26:	d003      	beq.n	8006e30 <UART_SetConfig+0x2b0>
 8006e28:	f5b3 6f80 	cmp.w	r3, #1024	@ 0x400
 8006e2c:	d008      	beq.n	8006e40 <UART_SetConfig+0x2c0>
 8006e2e:	e00f      	b.n	8006e50 <UART_SetConfig+0x2d0>
 8006e30:	2300      	movs	r3, #0
 8006e32:	f887 302b 	strb.w	r3, [r7, #43]	@ 0x2b
 8006e36:	e022      	b.n	8006e7e <UART_SetConfig+0x2fe>
 8006e38:	2302      	movs	r3, #2
 8006e3a:	f887 302b 	strb.w	r3, [r7, #43]	@ 0x2b
 8006e3e:	e01e      	b.n	8006e7e <UART_SetConfig+0x2fe>
 8006e40:	2304      	movs	r3, #4
 8006e42:	f887 302b 	strb.w	r3, [r7, #43]	@ 0x2b
 8006e46:	e01a      	b.n	8006e7e <UART_SetConfig+0x2fe>
 8006e48:	2308      	movs	r3, #8
 8006e4a:	f887 302b 	strb.w	r3, [r7, #43]	@ 0x2b
 8006e4e:	e016      	b.n	8006e7e <UART_SetConfig+0x2fe>
 8006e50:	2310      	movs	r3, #16
 8006e52:	f887 302b 	strb.w	r3, [r7, #43]	@ 0x2b
 8006e56:	e012      	b.n	8006e7e <UART_SetConfig+0x2fe>
 8006e58:	cfff69f3 	.word	0xcfff69f3
 8006e5c:	40008000 	.word	0x40008000
 8006e60:	40013800 	.word	0x40013800
 8006e64:	40021000 	.word	0x40021000
 8006e68:	40004400 	.word	0x40004400
 8006e6c:	40004800 	.word	0x40004800
 8006e70:	40004c00 	.word	0x40004c00
 8006e74:	40005000 	.word	0x40005000
 8006e78:	2310      	movs	r3, #16
 8006e7a:	f887 302b 	strb.w	r3, [r7, #43]	@ 0x2b
 8006e7e:	697b      	ldr	r3, [r7, #20]
 8006e80:	681b      	ldr	r3, [r3, #0]
 8006e82:	4aae      	ldr	r2, [pc, #696]	@ (800713c <UART_SetConfig+0x5bc>)
 8006e84:	4293      	cmp	r3, r2
 8006e86:	f040 8097 	bne.w	8006fb8 <UART_SetConfig+0x438>
 8006e8a:	f897 302b 	ldrb.w	r3, [r7, #43]	@ 0x2b
 8006e8e:	2b08      	cmp	r3, #8
 8006e90:	d823      	bhi.n	8006eda <UART_SetConfig+0x35a>
 8006e92:	a201      	add	r2, pc, #4	@ (adr r2, 8006e98 <UART_SetConfig+0x318>)
 8006e94:	f852 f023 	ldr.w	pc, [r2, r3, lsl #2]
 8006e98:	08006ebd 	.word	0x08006ebd
 8006e9c:	08006edb 	.word	0x08006edb
 8006ea0:	08006ec5 	.word	0x08006ec5
 8006ea4:	08006edb 	.word	0x08006edb
 8006ea8:	08006ecb 	.word	0x08006ecb
 8006eac:	08006edb 	.word	0x08006edb
 8006eb0:	08006edb 	.word	0x08006edb
 8006eb4:	08006edb 	.word	0x08006edb
 8006eb8:	08006ed3 	.word	0x08006ed3
 8006ebc:	f7fe ff14 	bl	8005ce8 <HAL_RCC_GetPCLK1Freq>
 8006ec0:	6278      	str	r0, [r7, #36]	@ 0x24
 8006ec2:	e010      	b.n	8006ee6 <UART_SetConfig+0x366>
 8006ec4:	4b9e      	ldr	r3, [pc, #632]	@ (8007140 <UART_SetConfig+0x5c0>)
 8006ec6:	627b      	str	r3, [r7, #36]	@ 0x24
 8006ec8:	e00d      	b.n	8006ee6 <UART_SetConfig+0x366>
 8006eca:	f7fe fe9f 	bl	8005c0c <HAL_RCC_GetSysClockFreq>
 8006ece:	6278      	str	r0, [r7, #36]	@ 0x24
 8006ed0:	e009      	b.n	8006ee6 <UART_SetConfig+0x366>
 8006ed2:	f44f 4300 	mov.w	r3, #32768	@ 0x8000
 8006ed6:	627b      	str	r3, [r7, #36]	@ 0x24
 8006ed8:	e005      	b.n	8006ee6 <UART_SetConfig+0x366>
 8006eda:	2300      	movs	r3, #0
 8006edc:	627b      	str	r3, [r7, #36]	@ 0x24
 8006ede:	2301      	movs	r3, #1
 8006ee0:	f887 302a 	strb.w	r3, [r7, #42]	@ 0x2a
 8006ee4:	bf00      	nop
 8006ee6:	6a7b      	ldr	r3, [r7, #36]	@ 0x24
 8006ee8:	2b00      	cmp	r3, #0
 8006eea:	f000 8130 	beq.w	800714e <UART_SetConfig+0x5ce>
 8006eee:	697b      	ldr	r3, [r7, #20]
 8006ef0:	6a5b      	ldr	r3, [r3, #36]	@ 0x24
 8006ef2:	4a94      	ldr	r2, [pc, #592]	@ (8007144 <UART_SetConfig+0x5c4>)
 8006ef4:	f832 3013 	ldrh.w	r3, [r2, r3, lsl #1]
 8006ef8:	461a      	mov	r2, r3
 8006efa:	6a7b      	ldr	r3, [r7, #36]	@ 0x24
 8006efc:	fbb3 f3f2 	udiv	r3, r3, r2
 8006f00:	61bb      	str	r3, [r7, #24]
 8006f02:	697b      	ldr	r3, [r7, #20]
 8006f04:	685a      	ldr	r2, [r3, #4]
 8006f06:	4613      	mov	r3, r2
 8006f08:	005b      	lsls	r3, r3, #1
 8006f0a:	4413      	add	r3, r2
 8006f0c:	69ba      	ldr	r2, [r7, #24]
 8006f0e:	429a      	cmp	r2, r3
 8006f10:	d305      	bcc.n	8006f1e <UART_SetConfig+0x39e>
 8006f12:	697b      	ldr	r3, [r7, #20]
 8006f14:	685b      	ldr	r3, [r3, #4]
 8006f16:	031b      	lsls	r3, r3, #12
 8006f18:	69ba      	ldr	r2, [r7, #24]
 8006f1a:	429a      	cmp	r2, r3
 8006f1c:	d903      	bls.n	8006f26 <UART_SetConfig+0x3a6>
 8006f1e:	2301      	movs	r3, #1
 8006f20:	f887 302a 	strb.w	r3, [r7, #42]	@ 0x2a
 8006f24:	e113      	b.n	800714e <UART_SetConfig+0x5ce>
 8006f26:	6a7b      	ldr	r3, [r7, #36]	@ 0x24
 8006f28:	2200      	movs	r2, #0
 8006f2a:	60bb      	str	r3, [r7, #8]
 8006f2c:	60fa      	str	r2, [r7, #12]
 8006f2e:	697b      	ldr	r3, [r7, #20]
 8006f30:	6a5b      	ldr	r3, [r3, #36]	@ 0x24
 8006f32:	4a84      	ldr	r2, [pc, #528]	@ (8007144 <UART_SetConfig+0x5c4>)
 8006f34:	f832 3013 	ldrh.w	r3, [r2, r3, lsl #1]
 8006f38:	b29b      	uxth	r3, r3
 8006f3a:	2200      	movs	r2, #0
 8006f3c:	603b      	str	r3, [r7, #0]
 8006f3e:	607a      	str	r2, [r7, #4]
 8006f40:	e9d7 2300 	ldrd	r2, r3, [r7]
 8006f44:	e9d7 0102 	ldrd	r0, r1, [r7, #8]
 8006f48:	f7f9 fe54 	bl	8000bf4 <__aeabi_uldivmod>
 8006f4c:	4602      	mov	r2, r0
 8006f4e:	460b      	mov	r3, r1
 8006f50:	4610      	mov	r0, r2
 8006f52:	4619      	mov	r1, r3
 8006f54:	f04f 0200 	mov.w	r2, #0
 8006f58:	f04f 0300 	mov.w	r3, #0
 8006f5c:	020b      	lsls	r3, r1, #8
 8006f5e:	ea43 6310 	orr.w	r3, r3, r0, lsr #24
 8006f62:	0202      	lsls	r2, r0, #8
 8006f64:	6979      	ldr	r1, [r7, #20]
 8006f66:	6849      	ldr	r1, [r1, #4]
 8006f68:	0849      	lsrs	r1, r1, #1
 8006f6a:	2000      	movs	r0, #0
 8006f6c:	460c      	mov	r4, r1
 8006f6e:	4605      	mov	r5, r0
 8006f70:	eb12 0804 	adds.w	r8, r2, r4
 8006f74:	eb43 0905 	adc.w	r9, r3, r5
 8006f78:	697b      	ldr	r3, [r7, #20]
 8006f7a:	685b      	ldr	r3, [r3, #4]
 8006f7c:	2200      	movs	r2, #0
 8006f7e:	469a      	mov	sl, r3
 8006f80:	4693      	mov	fp, r2
 8006f82:	4652      	mov	r2, sl
 8006f84:	465b      	mov	r3, fp
 8006f86:	4640      	mov	r0, r8
 8006f88:	4649      	mov	r1, r9
 8006f8a:	f7f9 fe33 	bl	8000bf4 <__aeabi_uldivmod>
 8006f8e:	4602      	mov	r2, r0
 8006f90:	460b      	mov	r3, r1
 8006f92:	4613      	mov	r3, r2
 8006f94:	623b      	str	r3, [r7, #32]
 8006f96:	6a3b      	ldr	r3, [r7, #32]
 8006f98:	f5b3 7f40 	cmp.w	r3, #768	@ 0x300
 8006f9c:	d308      	bcc.n	8006fb0 <UART_SetConfig+0x430>
 8006f9e:	6a3b      	ldr	r3, [r7, #32]
 8006fa0:	f5b3 1f80 	cmp.w	r3, #1048576	@ 0x100000
 8006fa4:	d204      	bcs.n	8006fb0 <UART_SetConfig+0x430>
 8006fa6:	697b      	ldr	r3, [r7, #20]
 8006fa8:	681b      	ldr	r3, [r3, #0]
 8006faa:	6a3a      	ldr	r2, [r7, #32]
 8006fac:	60da      	str	r2, [r3, #12]
 8006fae:	e0ce      	b.n	800714e <UART_SetConfig+0x5ce>
 8006fb0:	2301      	movs	r3, #1
 8006fb2:	f887 302a 	strb.w	r3, [r7, #42]	@ 0x2a
 8006fb6:	e0ca      	b.n	800714e <UART_SetConfig+0x5ce>
 8006fb8:	697b      	ldr	r3, [r7, #20]
 8006fba:	69db      	ldr	r3, [r3, #28]
 8006fbc:	f5b3 4f00 	cmp.w	r3, #32768	@ 0x8000
 8006fc0:	d166      	bne.n	8007090 <UART_SetConfig+0x510>
 8006fc2:	f897 302b 	ldrb.w	r3, [r7, #43]	@ 0x2b
 8006fc6:	2b08      	cmp	r3, #8
 8006fc8:	d827      	bhi.n	800701a <UART_SetConfig+0x49a>
 8006fca:	a201      	add	r2, pc, #4	@ (adr r2, 8006fd0 <UART_SetConfig+0x450>)
 8006fcc:	f852 f023 	ldr.w	pc, [r2, r3, lsl #2]
 8006fd0:	08006ff5 	.word	0x08006ff5
 8006fd4:	08006ffd 	.word	0x08006ffd
 8006fd8:	08007005 	.word	0x08007005
 8006fdc:	0800701b 	.word	0x0800701b
 8006fe0:	0800700b 	.word	0x0800700b
 8006fe4:	0800701b 	.word	0x0800701b
 8006fe8:	0800701b 	.word	0x0800701b
 8006fec:	0800701b 	.word	0x0800701b
 8006ff0:	08007013 	.word	0x08007013
 8006ff4:	f7fe fe78 	bl	8005ce8 <HAL_RCC_GetPCLK1Freq>
 8006ff8:	6278      	str	r0, [r7, #36]	@ 0x24
 8006ffa:	e014      	b.n	8007026 <UART_SetConfig+0x4a6>
 8006ffc:	f7fe fe8a 	bl	8005d14 <HAL_RCC_GetPCLK2Freq>
 8007000:	6278      	str	r0, [r7, #36]	@ 0x24
 8007002:	e010      	b.n	8007026 <UART_SetConfig+0x4a6>
 8007004:	4b4e      	ldr	r3, [pc, #312]	@ (8007140 <UART_SetConfig+0x5c0>)
 8007006:	627b      	str	r3, [r7, #36]	@ 0x24
 8007008:	e00d      	b.n	8007026 <UART_SetConfig+0x4a6>
 800700a:	f7fe fdff 	bl	8005c0c <HAL_RCC_GetSysClockFreq>
 800700e:	6278      	str	r0, [r7, #36]	@ 0x24
 8007010:	e009      	b.n	8007026 <UART_SetConfig+0x4a6>
 8007012:	f44f 4300 	mov.w	r3, #32768	@ 0x8000
 8007016:	627b      	str	r3, [r7, #36]	@ 0x24
 8007018:	e005      	b.n	8007026 <UART_SetConfig+0x4a6>
 800701a:	2300      	movs	r3, #0
 800701c:	627b      	str	r3, [r7, #36]	@ 0x24
 800701e:	2301      	movs	r3, #1
 8007020:	f887 302a 	strb.w	r3, [r7, #42]	@ 0x2a
 8007024:	bf00      	nop
 8007026:	6a7b      	ldr	r3, [r7, #36]	@ 0x24
 8007028:	2b00      	cmp	r3, #0
 800702a:	f000 8090 	beq.w	800714e <UART_SetConfig+0x5ce>
 800702e:	697b      	ldr	r3, [r7, #20]
 8007030:	6a5b      	ldr	r3, [r3, #36]	@ 0x24
 8007032:	4a44      	ldr	r2, [pc, #272]	@ (8007144 <UART_SetConfig+0x5c4>)
 8007034:	f832 3013 	ldrh.w	r3, [r2, r3, lsl #1]
 8007038:	461a      	mov	r2, r3
 800703a:	6a7b      	ldr	r3, [r7, #36]	@ 0x24
 800703c:	fbb3 f3f2 	udiv	r3, r3, r2
 8007040:	005a      	lsls	r2, r3, #1
 8007042:	697b      	ldr	r3, [r7, #20]
 8007044:	685b      	ldr	r3, [r3, #4]
 8007046:	085b      	lsrs	r3, r3, #1
 8007048:	441a      	add	r2, r3
 800704a:	697b      	ldr	r3, [r7, #20]
 800704c:	685b      	ldr	r3, [r3, #4]
 800704e:	fbb2 f3f3 	udiv	r3, r2, r3
 8007052:	623b      	str	r3, [r7, #32]
 8007054:	6a3b      	ldr	r3, [r7, #32]
 8007056:	2b0f      	cmp	r3, #15
 8007058:	d916      	bls.n	8007088 <UART_SetConfig+0x508>
 800705a:	6a3b      	ldr	r3, [r7, #32]
 800705c:	f5b3 3f80 	cmp.w	r3, #65536	@ 0x10000
 8007060:	d212      	bcs.n	8007088 <UART_SetConfig+0x508>
 8007062:	6a3b      	ldr	r3, [r7, #32]
 8007064:	b29b      	uxth	r3, r3
 8007066:	f023 030f 	bic.w	r3, r3, #15
 800706a:	83fb      	strh	r3, [r7, #30]
 800706c:	6a3b      	ldr	r3, [r7, #32]
 800706e:	085b      	lsrs	r3, r3, #1
 8007070:	b29b      	uxth	r3, r3
 8007072:	f003 0307 	and.w	r3, r3, #7
 8007076:	b29a      	uxth	r2, r3
 8007078:	8bfb      	ldrh	r3, [r7, #30]
 800707a:	4313      	orrs	r3, r2
 800707c:	83fb      	strh	r3, [r7, #30]
 800707e:	697b      	ldr	r3, [r7, #20]
 8007080:	681b      	ldr	r3, [r3, #0]
 8007082:	8bfa      	ldrh	r2, [r7, #30]
 8007084:	60da      	str	r2, [r3, #12]
 8007086:	e062      	b.n	800714e <UART_SetConfig+0x5ce>
 8007088:	2301      	movs	r3, #1
 800708a:	f887 302a 	strb.w	r3, [r7, #42]	@ 0x2a
 800708e:	e05e      	b.n	800714e <UART_SetConfig+0x5ce>
 8007090:	f897 302b 	ldrb.w	r3, [r7, #43]	@ 0x2b
 8007094:	2b08      	cmp	r3, #8
 8007096:	d828      	bhi.n	80070ea <UART_SetConfig+0x56a>
 8007098:	a201      	add	r2, pc, #4	@ (adr r2, 80070a0 <UART_SetConfig+0x520>)
 800709a:	f852 f023 	ldr.w	pc, [r2, r3, lsl #2]
 800709e:	bf00      	nop
 80070a0:	080070c5 	.word	0x080070c5
 80070a4:	080070cd 	.word	0x080070cd
 80070a8:	080070d5 	.word	0x080070d5
 80070ac:	080070eb 	.word	0x080070eb
 80070b0:	080070db 	.word	0x080070db
 80070b4:	080070eb 	.word	0x080070eb
 80070b8:	080070eb 	.word	0x080070eb
 80070bc:	080070eb 	.word	0x080070eb
 80070c0:	080070e3 	.word	0x080070e3
 80070c4:	f7fe fe10 	bl	8005ce8 <HAL_RCC_GetPCLK1Freq>
 80070c8:	6278      	str	r0, [r7, #36]	@ 0x24
 80070ca:	e014      	b.n	80070f6 <UART_SetConfig+0x576>
 80070cc:	f7fe fe22 	bl	8005d14 <HAL_RCC_GetPCLK2Freq>
 80070d0:	6278      	str	r0, [r7, #36]	@ 0x24
 80070d2:	e010      	b.n	80070f6 <UART_SetConfig+0x576>
 80070d4:	4b1a      	ldr	r3, [pc, #104]	@ (8007140 <UART_SetConfig+0x5c0>)
 80070d6:	627b      	str	r3, [r7, #36]	@ 0x24
 80070d8:	e00d      	b.n	80070f6 <UART_SetConfig+0x576>
 80070da:	f7fe fd97 	bl	8005c0c <HAL_RCC_GetSysClockFreq>
 80070de:	6278      	str	r0, [r7, #36]	@ 0x24
 80070e0:	e009      	b.n	80070f6 <UART_SetConfig+0x576>
 80070e2:	f44f 4300 	mov.w	r3, #32768	@ 0x8000
 80070e6:	627b      	str	r3, [r7, #36]	@ 0x24
 80070e8:	e005      	b.n	80070f6 <UART_SetConfig+0x576>
 80070ea:	2300      	movs	r3, #0
 80070ec:	627b      	str	r3, [r7, #36]	@ 0x24
 80070ee:	2301      	movs	r3, #1
 80070f0:	f887 302a 	strb.w	r3, [r7, #42]	@ 0x2a
 80070f4:	bf00      	nop
 80070f6:	6a7b      	ldr	r3, [r7, #36]	@ 0x24
 80070f8:	2b00      	cmp	r3, #0
 80070fa:	d028      	beq.n	800714e <UART_SetConfig+0x5ce>
 80070fc:	697b      	ldr	r3, [r7, #20]
 80070fe:	6a5b      	ldr	r3, [r3, #36]	@ 0x24
 8007100:	4a10      	ldr	r2, [pc, #64]	@ (8007144 <UART_SetConfig+0x5c4>)
 8007102:	f832 3013 	ldrh.w	r3, [r2, r3, lsl #1]
 8007106:	461a      	mov	r2, r3
 8007108:	6a7b      	ldr	r3, [r7, #36]	@ 0x24
 800710a:	fbb3 f2f2 	udiv	r2, r3, r2
 800710e:	697b      	ldr	r3, [r7, #20]
 8007110:	685b      	ldr	r3, [r3, #4]
 8007112:	085b      	lsrs	r3, r3, #1
 8007114:	441a      	add	r2, r3
 8007116:	697b      	ldr	r3, [r7, #20]
 8007118:	685b      	ldr	r3, [r3, #4]
 800711a:	fbb2 f3f3 	udiv	r3, r2, r3
 800711e:	623b      	str	r3, [r7, #32]
 8007120:	6a3b      	ldr	r3, [r7, #32]
 8007122:	2b0f      	cmp	r3, #15
 8007124:	d910      	bls.n	8007148 <UART_SetConfig+0x5c8>
 8007126:	6a3b      	ldr	r3, [r7, #32]
 8007128:	f5b3 3f80 	cmp.w	r3, #65536	@ 0x10000
 800712c:	d20c      	bcs.n	8007148 <UART_SetConfig+0x5c8>
 800712e:	6a3b      	ldr	r3, [r7, #32]
 8007130:	b29a      	uxth	r2, r3
 8007132:	697b      	ldr	r3, [r7, #20]
 8007134:	681b      	ldr	r3, [r3, #0]
 8007136:	60da      	str	r2, [r3, #12]
 8007138:	e009      	b.n	800714e <UART_SetConfig+0x5ce>
 800713a:	bf00      	nop
 800713c:	40008000 	.word	0x40008000
 8007140:	00f42400 	.word	0x00f42400
 8007144:	0800d640 	.word	0x0800d640
 8007148:	2301      	movs	r3, #1
 800714a:	f887 302a 	strb.w	r3, [r7, #42]	@ 0x2a
 800714e:	697b      	ldr	r3, [r7, #20]
 8007150:	2201      	movs	r2, #1
 8007152:	f8a3 206a 	strh.w	r2, [r3, #106]	@ 0x6a
 8007156:	697b      	ldr	r3, [r7, #20]
 8007158:	2201      	movs	r2, #1
 800715a:	f8a3 2068 	strh.w	r2, [r3, #104]	@ 0x68
 800715e:	697b      	ldr	r3, [r7, #20]
 8007160:	2200      	movs	r2, #0
 8007162:	675a      	str	r2, [r3, #116]	@ 0x74
 8007164:	697b      	ldr	r3, [r7, #20]
 8007166:	2200      	movs	r2, #0
 8007168:	679a      	str	r2, [r3, #120]	@ 0x78
 800716a:	f897 302a 	ldrb.w	r3, [r7, #42]	@ 0x2a
 800716e:	4618      	mov	r0, r3
 8007170:	3730      	adds	r7, #48	@ 0x30
 8007172:	46bd      	mov	sp, r7
 8007174:	e8bd 8fb0 	ldmia.w	sp!, {r4, r5, r7, r8, r9, sl, fp, pc}

08007178 <UART_AdvFeatureConfig>:
 8007178:	b480      	push	{r7}
 800717a:	b083      	sub	sp, #12
 800717c:	af00      	add	r7, sp, #0
 800717e:	6078      	str	r0, [r7, #4]
 8007180:	687b      	ldr	r3, [r7, #4]
 8007182:	6a9b      	ldr	r3, [r3, #40]	@ 0x28
 8007184:	f003 0308 	and.w	r3, r3, #8
 8007188:	2b00      	cmp	r3, #0
 800718a:	d00a      	beq.n	80071a2 <UART_AdvFeatureConfig+0x2a>
 800718c:	687b      	ldr	r3, [r7, #4]
 800718e:	681b      	ldr	r3, [r3, #0]
 8007190:	685b      	ldr	r3, [r3, #4]
 8007192:	f423 4100 	bic.w	r1, r3, #32768	@ 0x8000
 8007196:	687b      	ldr	r3, [r7, #4]
 8007198:	6b9a      	ldr	r2, [r3, #56]	@ 0x38
 800719a:	687b      	ldr	r3, [r7, #4]
 800719c:	681b      	ldr	r3, [r3, #0]
 800719e:	430a      	orrs	r2, r1
 80071a0:	605a      	str	r2, [r3, #4]
 80071a2:	687b      	ldr	r3, [r7, #4]
 80071a4:	6a9b      	ldr	r3, [r3, #40]	@ 0x28
 80071a6:	f003 0301 	and.w	r3, r3, #1
 80071aa:	2b00      	cmp	r3, #0
 80071ac:	d00a      	beq.n	80071c4 <UART_AdvFeatureConfig+0x4c>
 80071ae:	687b      	ldr	r3, [r7, #4]
 80071b0:	681b      	ldr	r3, [r3, #0]
 80071b2:	685b      	ldr	r3, [r3, #4]
 80071b4:	f423 3100 	bic.w	r1, r3, #131072	@ 0x20000
 80071b8:	687b      	ldr	r3, [r7, #4]
 80071ba:	6ada      	ldr	r2, [r3, #44]	@ 0x2c
 80071bc:	687b      	ldr	r3, [r7, #4]
 80071be:	681b      	ldr	r3, [r3, #0]
 80071c0:	430a      	orrs	r2, r1
 80071c2:	605a      	str	r2, [r3, #4]
 80071c4:	687b      	ldr	r3, [r7, #4]
 80071c6:	6a9b      	ldr	r3, [r3, #40]	@ 0x28
 80071c8:	f003 0302 	and.w	r3, r3, #2
 80071cc:	2b00      	cmp	r3, #0
 80071ce:	d00a      	beq.n	80071e6 <UART_AdvFeatureConfig+0x6e>
 80071d0:	687b      	ldr	r3, [r7, #4]
 80071d2:	681b      	ldr	r3, [r3, #0]
 80071d4:	685b      	ldr	r3, [r3, #4]
 80071d6:	f423 3180 	bic.w	r1, r3, #65536	@ 0x10000
 80071da:	687b      	ldr	r3, [r7, #4]
 80071dc:	6b1a      	ldr	r2, [r3, #48]	@ 0x30
 80071de:	687b      	ldr	r3, [r7, #4]
 80071e0:	681b      	ldr	r3, [r3, #0]
 80071e2:	430a      	orrs	r2, r1
 80071e4:	605a      	str	r2, [r3, #4]
 80071e6:	687b      	ldr	r3, [r7, #4]
 80071e8:	6a9b      	ldr	r3, [r3, #40]	@ 0x28
 80071ea:	f003 0304 	and.w	r3, r3, #4
 80071ee:	2b00      	cmp	r3, #0
 80071f0:	d00a      	beq.n	8007208 <UART_AdvFeatureConfig+0x90>
 80071f2:	687b      	ldr	r3, [r7, #4]
 80071f4:	681b      	ldr	r3, [r3, #0]
 80071f6:	685b      	ldr	r3, [r3, #4]
 80071f8:	f423 2180 	bic.w	r1, r3, #262144	@ 0x40000
 80071fc:	687b      	ldr	r3, [r7, #4]
 80071fe:	6b5a      	ldr	r2, [r3, #52]	@ 0x34
 8007200:	687b      	ldr	r3, [r7, #4]
 8007202:	681b      	ldr	r3, [r3, #0]
 8007204:	430a      	orrs	r2, r1
 8007206:	605a      	str	r2, [r3, #4]
 8007208:	687b      	ldr	r3, [r7, #4]
 800720a:	6a9b      	ldr	r3, [r3, #40]	@ 0x28
 800720c:	f003 0310 	and.w	r3, r3, #16
 8007210:	2b00      	cmp	r3, #0
 8007212:	d00a      	beq.n	800722a <UART_AdvFeatureConfig+0xb2>
 8007214:	687b      	ldr	r3, [r7, #4]
 8007216:	681b      	ldr	r3, [r3, #0]
 8007218:	689b      	ldr	r3, [r3, #8]
 800721a:	f423 5180 	bic.w	r1, r3, #4096	@ 0x1000
 800721e:	687b      	ldr	r3, [r7, #4]
 8007220:	6bda      	ldr	r2, [r3, #60]	@ 0x3c
 8007222:	687b      	ldr	r3, [r7, #4]
 8007224:	681b      	ldr	r3, [r3, #0]
 8007226:	430a      	orrs	r2, r1
 8007228:	609a      	str	r2, [r3, #8]
 800722a:	687b      	ldr	r3, [r7, #4]
 800722c:	6a9b      	ldr	r3, [r3, #40]	@ 0x28
 800722e:	f003 0320 	and.w	r3, r3, #32
 8007232:	2b00      	cmp	r3, #0
 8007234:	d00a      	beq.n	800724c <UART_AdvFeatureConfig+0xd4>
 8007236:	687b      	ldr	r3, [r7, #4]
 8007238:	681b      	ldr	r3, [r3, #0]
 800723a:	689b      	ldr	r3, [r3, #8]
 800723c:	f423 5100 	bic.w	r1, r3, #8192	@ 0x2000
 8007240:	687b      	ldr	r3, [r7, #4]
 8007242:	6c1a      	ldr	r2, [r3, #64]	@ 0x40
 8007244:	687b      	ldr	r3, [r7, #4]
 8007246:	681b      	ldr	r3, [r3, #0]
 8007248:	430a      	orrs	r2, r1
 800724a:	609a      	str	r2, [r3, #8]
 800724c:	687b      	ldr	r3, [r7, #4]
 800724e:	6a9b      	ldr	r3, [r3, #40]	@ 0x28
 8007250:	f003 0340 	and.w	r3, r3, #64	@ 0x40
 8007254:	2b00      	cmp	r3, #0
 8007256:	d01a      	beq.n	800728e <UART_AdvFeatureConfig+0x116>
 8007258:	687b      	ldr	r3, [r7, #4]
 800725a:	681b      	ldr	r3, [r3, #0]
 800725c:	685b      	ldr	r3, [r3, #4]
 800725e:	f423 1180 	bic.w	r1, r3, #1048576	@ 0x100000
 8007262:	687b      	ldr	r3, [r7, #4]
 8007264:	6c5a      	ldr	r2, [r3, #68]	@ 0x44
 8007266:	687b      	ldr	r3, [r7, #4]
 8007268:	681b      	ldr	r3, [r3, #0]
 800726a:	430a      	orrs	r2, r1
 800726c:	605a      	str	r2, [r3, #4]
 800726e:	687b      	ldr	r3, [r7, #4]
 8007270:	6c5b      	ldr	r3, [r3, #68]	@ 0x44
 8007272:	f5b3 1f80 	cmp.w	r3, #1048576	@ 0x100000
 8007276:	d10a      	bne.n	800728e <UART_AdvFeatureConfig+0x116>
 8007278:	687b      	ldr	r3, [r7, #4]
 800727a:	681b      	ldr	r3, [r3, #0]
 800727c:	685b      	ldr	r3, [r3, #4]
 800727e:	f423 01c0 	bic.w	r1, r3, #6291456	@ 0x600000
 8007282:	687b      	ldr	r3, [r7, #4]
 8007284:	6c9a      	ldr	r2, [r3, #72]	@ 0x48
 8007286:	687b      	ldr	r3, [r7, #4]
 8007288:	681b      	ldr	r3, [r3, #0]
 800728a:	430a      	orrs	r2, r1
 800728c:	605a      	str	r2, [r3, #4]
 800728e:	687b      	ldr	r3, [r7, #4]
 8007290:	6a9b      	ldr	r3, [r3, #40]	@ 0x28
 8007292:	f003 0380 	and.w	r3, r3, #128	@ 0x80
 8007296:	2b00      	cmp	r3, #0
 8007298:	d00a      	beq.n	80072b0 <UART_AdvFeatureConfig+0x138>
 800729a:	687b      	ldr	r3, [r7, #4]
 800729c:	681b      	ldr	r3, [r3, #0]
 800729e:	685b      	ldr	r3, [r3, #4]
 80072a0:	f423 2100 	bic.w	r1, r3, #524288	@ 0x80000
 80072a4:	687b      	ldr	r3, [r7, #4]
 80072a6:	6cda      	ldr	r2, [r3, #76]	@ 0x4c
 80072a8:	687b      	ldr	r3, [r7, #4]
 80072aa:	681b      	ldr	r3, [r3, #0]
 80072ac:	430a      	orrs	r2, r1
 80072ae:	605a      	str	r2, [r3, #4]
 80072b0:	bf00      	nop
 80072b2:	370c      	adds	r7, #12
 80072b4:	46bd      	mov	sp, r7
 80072b6:	f85d 7b04 	ldr.w	r7, [sp], #4
 80072ba:	4770      	bx	lr

080072bc <UART_CheckIdleState>:
 80072bc:	b580      	push	{r7, lr}
 80072be:	b098      	sub	sp, #96	@ 0x60
 80072c0:	af02      	add	r7, sp, #8
 80072c2:	6078      	str	r0, [r7, #4]
 80072c4:	687b      	ldr	r3, [r7, #4]
 80072c6:	2200      	movs	r2, #0
 80072c8:	f8c3 2090 	str.w	r2, [r3, #144]	@ 0x90
 80072cc:	f7fb f870 	bl	80023b0 <HAL_GetTick>
 80072d0:	6578      	str	r0, [r7, #84]	@ 0x54
 80072d2:	687b      	ldr	r3, [r7, #4]
 80072d4:	681b      	ldr	r3, [r3, #0]
 80072d6:	681b      	ldr	r3, [r3, #0]
 80072d8:	f003 0308 	and.w	r3, r3, #8
 80072dc:	2b08      	cmp	r3, #8
 80072de:	d12f      	bne.n	8007340 <UART_CheckIdleState+0x84>
 80072e0:	f06f 437e 	mvn.w	r3, #4261412864	@ 0xfe000000
 80072e4:	9300      	str	r3, [sp, #0]
 80072e6:	6d7b      	ldr	r3, [r7, #84]	@ 0x54
 80072e8:	2200      	movs	r2, #0
 80072ea:	f44f 1100 	mov.w	r1, #2097152	@ 0x200000
 80072ee:	6878      	ldr	r0, [r7, #4]
 80072f0:	f000 f88e 	bl	8007410 <UART_WaitOnFlagUntilTimeout>
 80072f4:	4603      	mov	r3, r0
 80072f6:	2b00      	cmp	r3, #0
 80072f8:	d022      	beq.n	8007340 <UART_CheckIdleState+0x84>
 80072fa:	687b      	ldr	r3, [r7, #4]
 80072fc:	681b      	ldr	r3, [r3, #0]
 80072fe:	63bb      	str	r3, [r7, #56]	@ 0x38
 8007300:	6bbb      	ldr	r3, [r7, #56]	@ 0x38
 8007302:	e853 3f00 	ldrex	r3, [r3]
 8007306:	637b      	str	r3, [r7, #52]	@ 0x34
 8007308:	6b7b      	ldr	r3, [r7, #52]	@ 0x34
 800730a:	f023 0380 	bic.w	r3, r3, #128	@ 0x80
 800730e:	653b      	str	r3, [r7, #80]	@ 0x50
 8007310:	687b      	ldr	r3, [r7, #4]
 8007312:	681b      	ldr	r3, [r3, #0]
 8007314:	461a      	mov	r2, r3
 8007316:	6d3b      	ldr	r3, [r7, #80]	@ 0x50
 8007318:	647b      	str	r3, [r7, #68]	@ 0x44
 800731a:	643a      	str	r2, [r7, #64]	@ 0x40
 800731c:	6c39      	ldr	r1, [r7, #64]	@ 0x40
 800731e:	6c7a      	ldr	r2, [r7, #68]	@ 0x44
 8007320:	e841 2300 	strex	r3, r2, [r1]
 8007324:	63fb      	str	r3, [r7, #60]	@ 0x3c
 8007326:	6bfb      	ldr	r3, [r7, #60]	@ 0x3c
 8007328:	2b00      	cmp	r3, #0
 800732a:	d1e6      	bne.n	80072fa <UART_CheckIdleState+0x3e>
 800732c:	687b      	ldr	r3, [r7, #4]
 800732e:	2220      	movs	r2, #32
 8007330:	f8c3 2088 	str.w	r2, [r3, #136]	@ 0x88
 8007334:	687b      	ldr	r3, [r7, #4]
 8007336:	2200      	movs	r2, #0
 8007338:	f883 2084 	strb.w	r2, [r3, #132]	@ 0x84
 800733c:	2303      	movs	r3, #3
 800733e:	e063      	b.n	8007408 <UART_CheckIdleState+0x14c>
 8007340:	687b      	ldr	r3, [r7, #4]
 8007342:	681b      	ldr	r3, [r3, #0]
 8007344:	681b      	ldr	r3, [r3, #0]
 8007346:	f003 0304 	and.w	r3, r3, #4
 800734a:	2b04      	cmp	r3, #4
 800734c:	d149      	bne.n	80073e2 <UART_CheckIdleState+0x126>
 800734e:	f06f 437e 	mvn.w	r3, #4261412864	@ 0xfe000000
 8007352:	9300      	str	r3, [sp, #0]
 8007354:	6d7b      	ldr	r3, [r7, #84]	@ 0x54
 8007356:	2200      	movs	r2, #0
 8007358:	f44f 0180 	mov.w	r1, #4194304	@ 0x400000
 800735c:	6878      	ldr	r0, [r7, #4]
 800735e:	f000 f857 	bl	8007410 <UART_WaitOnFlagUntilTimeout>
 8007362:	4603      	mov	r3, r0
 8007364:	2b00      	cmp	r3, #0
 8007366:	d03c      	beq.n	80073e2 <UART_CheckIdleState+0x126>
 8007368:	687b      	ldr	r3, [r7, #4]
 800736a:	681b      	ldr	r3, [r3, #0]
 800736c:	627b      	str	r3, [r7, #36]	@ 0x24
 800736e:	6a7b      	ldr	r3, [r7, #36]	@ 0x24
 8007370:	e853 3f00 	ldrex	r3, [r3]
 8007374:	623b      	str	r3, [r7, #32]
 8007376:	6a3b      	ldr	r3, [r7, #32]
 8007378:	f423 7390 	bic.w	r3, r3, #288	@ 0x120
 800737c:	64fb      	str	r3, [r7, #76]	@ 0x4c
 800737e:	687b      	ldr	r3, [r7, #4]
 8007380:	681b      	ldr	r3, [r3, #0]
 8007382:	461a      	mov	r2, r3
 8007384:	6cfb      	ldr	r3, [r7, #76]	@ 0x4c
 8007386:	633b      	str	r3, [r7, #48]	@ 0x30
 8007388:	62fa      	str	r2, [r7, #44]	@ 0x2c
 800738a:	6af9      	ldr	r1, [r7, #44]	@ 0x2c
 800738c:	6b3a      	ldr	r2, [r7, #48]	@ 0x30
 800738e:	e841 2300 	strex	r3, r2, [r1]
 8007392:	62bb      	str	r3, [r7, #40]	@ 0x28
 8007394:	6abb      	ldr	r3, [r7, #40]	@ 0x28
 8007396:	2b00      	cmp	r3, #0
 8007398:	d1e6      	bne.n	8007368 <UART_CheckIdleState+0xac>
 800739a:	687b      	ldr	r3, [r7, #4]
 800739c:	681b      	ldr	r3, [r3, #0]
 800739e:	3308      	adds	r3, #8
 80073a0:	613b      	str	r3, [r7, #16]
 80073a2:	693b      	ldr	r3, [r7, #16]
 80073a4:	e853 3f00 	ldrex	r3, [r3]
 80073a8:	60fb      	str	r3, [r7, #12]
 80073aa:	68fb      	ldr	r3, [r7, #12]
 80073ac:	f023 0301 	bic.w	r3, r3, #1
 80073b0:	64bb      	str	r3, [r7, #72]	@ 0x48
 80073b2:	687b      	ldr	r3, [r7, #4]
 80073b4:	681b      	ldr	r3, [r3, #0]
 80073b6:	3308      	adds	r3, #8
 80073b8:	6cba      	ldr	r2, [r7, #72]	@ 0x48
 80073ba:	61fa      	str	r2, [r7, #28]
 80073bc:	61bb      	str	r3, [r7, #24]
 80073be:	69b9      	ldr	r1, [r7, #24]
 80073c0:	69fa      	ldr	r2, [r7, #28]
 80073c2:	e841 2300 	strex	r3, r2, [r1]
 80073c6:	617b      	str	r3, [r7, #20]
 80073c8:	697b      	ldr	r3, [r7, #20]
 80073ca:	2b00      	cmp	r3, #0
 80073cc:	d1e5      	bne.n	800739a <UART_CheckIdleState+0xde>
 80073ce:	687b      	ldr	r3, [r7, #4]
 80073d0:	2220      	movs	r2, #32
 80073d2:	f8c3 208c 	str.w	r2, [r3, #140]	@ 0x8c
 80073d6:	687b      	ldr	r3, [r7, #4]
 80073d8:	2200      	movs	r2, #0
 80073da:	f883 2084 	strb.w	r2, [r3, #132]	@ 0x84
 80073de:	2303      	movs	r3, #3
 80073e0:	e012      	b.n	8007408 <UART_CheckIdleState+0x14c>
 80073e2:	687b      	ldr	r3, [r7, #4]
 80073e4:	2220      	movs	r2, #32
 80073e6:	f8c3 2088 	str.w	r2, [r3, #136]	@ 0x88
 80073ea:	687b      	ldr	r3, [r7, #4]
 80073ec:	2220      	movs	r2, #32
 80073ee:	f8c3 208c 	str.w	r2, [r3, #140]	@ 0x8c
 80073f2:	687b      	ldr	r3, [r7, #4]
 80073f4:	2200      	movs	r2, #0
 80073f6:	66da      	str	r2, [r3, #108]	@ 0x6c
 80073f8:	687b      	ldr	r3, [r7, #4]
 80073fa:	2200      	movs	r2, #0
 80073fc:	671a      	str	r2, [r3, #112]	@ 0x70
 80073fe:	687b      	ldr	r3, [r7, #4]
 8007400:	2200      	movs	r2, #0
 8007402:	f883 2084 	strb.w	r2, [r3, #132]	@ 0x84
 8007406:	2300      	movs	r3, #0
 8007408:	4618      	mov	r0, r3
 800740a:	3758      	adds	r7, #88	@ 0x58
 800740c:	46bd      	mov	sp, r7
 800740e:	bd80      	pop	{r7, pc}

08007410 <UART_WaitOnFlagUntilTimeout>:
 8007410:	b580      	push	{r7, lr}
 8007412:	b084      	sub	sp, #16
 8007414:	af00      	add	r7, sp, #0
 8007416:	60f8      	str	r0, [r7, #12]
 8007418:	60b9      	str	r1, [r7, #8]
 800741a:	603b      	str	r3, [r7, #0]
 800741c:	4613      	mov	r3, r2
 800741e:	71fb      	strb	r3, [r7, #7]
 8007420:	e04f      	b.n	80074c2 <UART_WaitOnFlagUntilTimeout+0xb2>
 8007422:	69bb      	ldr	r3, [r7, #24]
 8007424:	f1b3 3fff 	cmp.w	r3, #4294967295	@ 0xffffffff
 8007428:	d04b      	beq.n	80074c2 <UART_WaitOnFlagUntilTimeout+0xb2>
 800742a:	f7fa ffc1 	bl	80023b0 <HAL_GetTick>
 800742e:	4602      	mov	r2, r0
 8007430:	683b      	ldr	r3, [r7, #0]
 8007432:	1ad3      	subs	r3, r2, r3
 8007434:	69ba      	ldr	r2, [r7, #24]
 8007436:	429a      	cmp	r2, r3
 8007438:	d302      	bcc.n	8007440 <UART_WaitOnFlagUntilTimeout+0x30>
 800743a:	69bb      	ldr	r3, [r7, #24]
 800743c:	2b00      	cmp	r3, #0
 800743e:	d101      	bne.n	8007444 <UART_WaitOnFlagUntilTimeout+0x34>
 8007440:	2303      	movs	r3, #3
 8007442:	e04e      	b.n	80074e2 <UART_WaitOnFlagUntilTimeout+0xd2>
 8007444:	68fb      	ldr	r3, [r7, #12]
 8007446:	681b      	ldr	r3, [r3, #0]
 8007448:	681b      	ldr	r3, [r3, #0]
 800744a:	f003 0304 	and.w	r3, r3, #4
 800744e:	2b00      	cmp	r3, #0
 8007450:	d037      	beq.n	80074c2 <UART_WaitOnFlagUntilTimeout+0xb2>
 8007452:	68bb      	ldr	r3, [r7, #8]
 8007454:	2b80      	cmp	r3, #128	@ 0x80
 8007456:	d034      	beq.n	80074c2 <UART_WaitOnFlagUntilTimeout+0xb2>
 8007458:	68bb      	ldr	r3, [r7, #8]
 800745a:	2b40      	cmp	r3, #64	@ 0x40
 800745c:	d031      	beq.n	80074c2 <UART_WaitOnFlagUntilTimeout+0xb2>
 800745e:	68fb      	ldr	r3, [r7, #12]
 8007460:	681b      	ldr	r3, [r3, #0]
 8007462:	69db      	ldr	r3, [r3, #28]
 8007464:	f003 0308 	and.w	r3, r3, #8
 8007468:	2b08      	cmp	r3, #8
 800746a:	d110      	bne.n	800748e <UART_WaitOnFlagUntilTimeout+0x7e>
 800746c:	68fb      	ldr	r3, [r7, #12]
 800746e:	681b      	ldr	r3, [r3, #0]
 8007470:	2208      	movs	r2, #8
 8007472:	621a      	str	r2, [r3, #32]
 8007474:	68f8      	ldr	r0, [r7, #12]
 8007476:	f000 f95b 	bl	8007730 <UART_EndRxTransfer>
 800747a:	68fb      	ldr	r3, [r7, #12]
 800747c:	2208      	movs	r2, #8
 800747e:	f8c3 2090 	str.w	r2, [r3, #144]	@ 0x90
 8007482:	68fb      	ldr	r3, [r7, #12]
 8007484:	2200      	movs	r2, #0
 8007486:	f883 2084 	strb.w	r2, [r3, #132]	@ 0x84
 800748a:	2301      	movs	r3, #1
 800748c:	e029      	b.n	80074e2 <UART_WaitOnFlagUntilTimeout+0xd2>
 800748e:	68fb      	ldr	r3, [r7, #12]
 8007490:	681b      	ldr	r3, [r3, #0]
 8007492:	69db      	ldr	r3, [r3, #28]
 8007494:	f403 6300 	and.w	r3, r3, #2048	@ 0x800
 8007498:	f5b3 6f00 	cmp.w	r3, #2048	@ 0x800
 800749c:	d111      	bne.n	80074c2 <UART_WaitOnFlagUntilTimeout+0xb2>
 800749e:	68fb      	ldr	r3, [r7, #12]
 80074a0:	681b      	ldr	r3, [r3, #0]
 80074a2:	f44f 6200 	mov.w	r2, #2048	@ 0x800
 80074a6:	621a      	str	r2, [r3, #32]
 80074a8:	68f8      	ldr	r0, [r7, #12]
 80074aa:	f000 f941 	bl	8007730 <UART_EndRxTransfer>
 80074ae:	68fb      	ldr	r3, [r7, #12]
 80074b0:	2220      	movs	r2, #32
 80074b2:	f8c3 2090 	str.w	r2, [r3, #144]	@ 0x90
 80074b6:	68fb      	ldr	r3, [r7, #12]
 80074b8:	2200      	movs	r2, #0
 80074ba:	f883 2084 	strb.w	r2, [r3, #132]	@ 0x84
 80074be:	2303      	movs	r3, #3
 80074c0:	e00f      	b.n	80074e2 <UART_WaitOnFlagUntilTimeout+0xd2>
 80074c2:	68fb      	ldr	r3, [r7, #12]
 80074c4:	681b      	ldr	r3, [r3, #0]
 80074c6:	69da      	ldr	r2, [r3, #28]
 80074c8:	68bb      	ldr	r3, [r7, #8]
 80074ca:	4013      	ands	r3, r2
 80074cc:	68ba      	ldr	r2, [r7, #8]
 80074ce:	429a      	cmp	r2, r3
 80074d0:	bf0c      	ite	eq
 80074d2:	2301      	moveq	r3, #1
 80074d4:	2300      	movne	r3, #0
 80074d6:	b2db      	uxtb	r3, r3
 80074d8:	461a      	mov	r2, r3
 80074da:	79fb      	ldrb	r3, [r7, #7]
 80074dc:	429a      	cmp	r2, r3
 80074de:	d0a0      	beq.n	8007422 <UART_WaitOnFlagUntilTimeout+0x12>
 80074e0:	2300      	movs	r3, #0
 80074e2:	4618      	mov	r0, r3
 80074e4:	3710      	adds	r7, #16
 80074e6:	46bd      	mov	sp, r7
 80074e8:	bd80      	pop	{r7, pc}
	...

080074ec <UART_Start_Receive_IT>:
 80074ec:	b480      	push	{r7}
 80074ee:	b0a3      	sub	sp, #140	@ 0x8c
 80074f0:	af00      	add	r7, sp, #0
 80074f2:	60f8      	str	r0, [r7, #12]
 80074f4:	60b9      	str	r1, [r7, #8]
 80074f6:	4613      	mov	r3, r2
 80074f8:	80fb      	strh	r3, [r7, #6]
 80074fa:	68fb      	ldr	r3, [r7, #12]
 80074fc:	68ba      	ldr	r2, [r7, #8]
 80074fe:	659a      	str	r2, [r3, #88]	@ 0x58
 8007500:	68fb      	ldr	r3, [r7, #12]
 8007502:	88fa      	ldrh	r2, [r7, #6]
 8007504:	f8a3 205c 	strh.w	r2, [r3, #92]	@ 0x5c
 8007508:	68fb      	ldr	r3, [r7, #12]
 800750a:	88fa      	ldrh	r2, [r7, #6]
 800750c:	f8a3 205e 	strh.w	r2, [r3, #94]	@ 0x5e
 8007510:	68fb      	ldr	r3, [r7, #12]
 8007512:	2200      	movs	r2, #0
 8007514:	675a      	str	r2, [r3, #116]	@ 0x74
 8007516:	68fb      	ldr	r3, [r7, #12]
 8007518:	689b      	ldr	r3, [r3, #8]
 800751a:	f5b3 5f80 	cmp.w	r3, #4096	@ 0x1000
 800751e:	d10e      	bne.n	800753e <UART_Start_Receive_IT+0x52>
 8007520:	68fb      	ldr	r3, [r7, #12]
 8007522:	691b      	ldr	r3, [r3, #16]
 8007524:	2b00      	cmp	r3, #0
 8007526:	d105      	bne.n	8007534 <UART_Start_Receive_IT+0x48>
 8007528:	68fb      	ldr	r3, [r7, #12]
 800752a:	f240 12ff 	movw	r2, #511	@ 0x1ff
 800752e:	f8a3 2060 	strh.w	r2, [r3, #96]	@ 0x60
 8007532:	e02d      	b.n	8007590 <UART_Start_Receive_IT+0xa4>
 8007534:	68fb      	ldr	r3, [r7, #12]
 8007536:	22ff      	movs	r2, #255	@ 0xff
 8007538:	f8a3 2060 	strh.w	r2, [r3, #96]	@ 0x60
 800753c:	e028      	b.n	8007590 <UART_Start_Receive_IT+0xa4>
 800753e:	68fb      	ldr	r3, [r7, #12]
 8007540:	689b      	ldr	r3, [r3, #8]
 8007542:	2b00      	cmp	r3, #0
 8007544:	d10d      	bne.n	8007562 <UART_Start_Receive_IT+0x76>
 8007546:	68fb      	ldr	r3, [r7, #12]
 8007548:	691b      	ldr	r3, [r3, #16]
 800754a:	2b00      	cmp	r3, #0
 800754c:	d104      	bne.n	8007558 <UART_Start_Receive_IT+0x6c>
 800754e:	68fb      	ldr	r3, [r7, #12]
 8007550:	22ff      	movs	r2, #255	@ 0xff
 8007552:	f8a3 2060 	strh.w	r2, [r3, #96]	@ 0x60
 8007556:	e01b      	b.n	8007590 <UART_Start_Receive_IT+0xa4>
 8007558:	68fb      	ldr	r3, [r7, #12]
 800755a:	227f      	movs	r2, #127	@ 0x7f
 800755c:	f8a3 2060 	strh.w	r2, [r3, #96]	@ 0x60
 8007560:	e016      	b.n	8007590 <UART_Start_Receive_IT+0xa4>
 8007562:	68fb      	ldr	r3, [r7, #12]
 8007564:	689b      	ldr	r3, [r3, #8]
 8007566:	f1b3 5f80 	cmp.w	r3, #268435456	@ 0x10000000
 800756a:	d10d      	bne.n	8007588 <UART_Start_Receive_IT+0x9c>
 800756c:	68fb      	ldr	r3, [r7, #12]
 800756e:	691b      	ldr	r3, [r3, #16]
 8007570:	2b00      	cmp	r3, #0
 8007572:	d104      	bne.n	800757e <UART_Start_Receive_IT+0x92>
 8007574:	68fb      	ldr	r3, [r7, #12]
 8007576:	227f      	movs	r2, #127	@ 0x7f
 8007578:	f8a3 2060 	strh.w	r2, [r3, #96]	@ 0x60
 800757c:	e008      	b.n	8007590 <UART_Start_Receive_IT+0xa4>
 800757e:	68fb      	ldr	r3, [r7, #12]
 8007580:	223f      	movs	r2, #63	@ 0x3f
 8007582:	f8a3 2060 	strh.w	r2, [r3, #96]	@ 0x60
 8007586:	e003      	b.n	8007590 <UART_Start_Receive_IT+0xa4>
 8007588:	68fb      	ldr	r3, [r7, #12]
 800758a:	2200      	movs	r2, #0
 800758c:	f8a3 2060 	strh.w	r2, [r3, #96]	@ 0x60
 8007590:	68fb      	ldr	r3, [r7, #12]
 8007592:	2200      	movs	r2, #0
 8007594:	f8c3 2090 	str.w	r2, [r3, #144]	@ 0x90
 8007598:	68fb      	ldr	r3, [r7, #12]
 800759a:	2222      	movs	r2, #34	@ 0x22
 800759c:	f8c3 208c 	str.w	r2, [r3, #140]	@ 0x8c
 80075a0:	68fb      	ldr	r3, [r7, #12]
 80075a2:	681b      	ldr	r3, [r3, #0]
 80075a4:	3308      	adds	r3, #8
 80075a6:	667b      	str	r3, [r7, #100]	@ 0x64
 80075a8:	6e7b      	ldr	r3, [r7, #100]	@ 0x64
 80075aa:	e853 3f00 	ldrex	r3, [r3]
 80075ae:	663b      	str	r3, [r7, #96]	@ 0x60
 80075b0:	6e3b      	ldr	r3, [r7, #96]	@ 0x60
 80075b2:	f043 0301 	orr.w	r3, r3, #1
 80075b6:	f8c7 3084 	str.w	r3, [r7, #132]	@ 0x84
 80075ba:	68fb      	ldr	r3, [r7, #12]
 80075bc:	681b      	ldr	r3, [r3, #0]
 80075be:	3308      	adds	r3, #8
 80075c0:	f8d7 2084 	ldr.w	r2, [r7, #132]	@ 0x84
 80075c4:	673a      	str	r2, [r7, #112]	@ 0x70
 80075c6:	66fb      	str	r3, [r7, #108]	@ 0x6c
 80075c8:	6ef9      	ldr	r1, [r7, #108]	@ 0x6c
 80075ca:	6f3a      	ldr	r2, [r7, #112]	@ 0x70
 80075cc:	e841 2300 	strex	r3, r2, [r1]
 80075d0:	66bb      	str	r3, [r7, #104]	@ 0x68
 80075d2:	6ebb      	ldr	r3, [r7, #104]	@ 0x68
 80075d4:	2b00      	cmp	r3, #0
 80075d6:	d1e3      	bne.n	80075a0 <UART_Start_Receive_IT+0xb4>
 80075d8:	68fb      	ldr	r3, [r7, #12]
 80075da:	6e5b      	ldr	r3, [r3, #100]	@ 0x64
 80075dc:	f1b3 5f00 	cmp.w	r3, #536870912	@ 0x20000000
 80075e0:	d14f      	bne.n	8007682 <UART_Start_Receive_IT+0x196>
 80075e2:	68fb      	ldr	r3, [r7, #12]
 80075e4:	f8b3 3068 	ldrh.w	r3, [r3, #104]	@ 0x68
 80075e8:	88fa      	ldrh	r2, [r7, #6]
 80075ea:	429a      	cmp	r2, r3
 80075ec:	d349      	bcc.n	8007682 <UART_Start_Receive_IT+0x196>
 80075ee:	68fb      	ldr	r3, [r7, #12]
 80075f0:	689b      	ldr	r3, [r3, #8]
 80075f2:	f5b3 5f80 	cmp.w	r3, #4096	@ 0x1000
 80075f6:	d107      	bne.n	8007608 <UART_Start_Receive_IT+0x11c>
 80075f8:	68fb      	ldr	r3, [r7, #12]
 80075fa:	691b      	ldr	r3, [r3, #16]
 80075fc:	2b00      	cmp	r3, #0
 80075fe:	d103      	bne.n	8007608 <UART_Start_Receive_IT+0x11c>
 8007600:	68fb      	ldr	r3, [r7, #12]
 8007602:	4a47      	ldr	r2, [pc, #284]	@ (8007720 <UART_Start_Receive_IT+0x234>)
 8007604:	675a      	str	r2, [r3, #116]	@ 0x74
 8007606:	e002      	b.n	800760e <UART_Start_Receive_IT+0x122>
 8007608:	68fb      	ldr	r3, [r7, #12]
 800760a:	4a46      	ldr	r2, [pc, #280]	@ (8007724 <UART_Start_Receive_IT+0x238>)
 800760c:	675a      	str	r2, [r3, #116]	@ 0x74
 800760e:	68fb      	ldr	r3, [r7, #12]
 8007610:	691b      	ldr	r3, [r3, #16]
 8007612:	2b00      	cmp	r3, #0
 8007614:	d01a      	beq.n	800764c <UART_Start_Receive_IT+0x160>
 8007616:	68fb      	ldr	r3, [r7, #12]
 8007618:	681b      	ldr	r3, [r3, #0]
 800761a:	653b      	str	r3, [r7, #80]	@ 0x50
 800761c:	6d3b      	ldr	r3, [r7, #80]	@ 0x50
 800761e:	e853 3f00 	ldrex	r3, [r3]
 8007622:	64fb      	str	r3, [r7, #76]	@ 0x4c
 8007624:	6cfb      	ldr	r3, [r7, #76]	@ 0x4c
 8007626:	f443 7380 	orr.w	r3, r3, #256	@ 0x100
 800762a:	f8c7 3080 	str.w	r3, [r7, #128]	@ 0x80
 800762e:	68fb      	ldr	r3, [r7, #12]
 8007630:	681b      	ldr	r3, [r3, #0]
 8007632:	461a      	mov	r2, r3
 8007634:	f8d7 3080 	ldr.w	r3, [r7, #128]	@ 0x80
 8007638:	65fb      	str	r3, [r7, #92]	@ 0x5c
 800763a:	65ba      	str	r2, [r7, #88]	@ 0x58
 800763c:	6db9      	ldr	r1, [r7, #88]	@ 0x58
 800763e:	6dfa      	ldr	r2, [r7, #92]	@ 0x5c
 8007640:	e841 2300 	strex	r3, r2, [r1]
 8007644:	657b      	str	r3, [r7, #84]	@ 0x54
 8007646:	6d7b      	ldr	r3, [r7, #84]	@ 0x54
 8007648:	2b00      	cmp	r3, #0
 800764a:	d1e4      	bne.n	8007616 <UART_Start_Receive_IT+0x12a>
 800764c:	68fb      	ldr	r3, [r7, #12]
 800764e:	681b      	ldr	r3, [r3, #0]
 8007650:	3308      	adds	r3, #8
 8007652:	63fb      	str	r3, [r7, #60]	@ 0x3c
 8007654:	6bfb      	ldr	r3, [r7, #60]	@ 0x3c
 8007656:	e853 3f00 	ldrex	r3, [r3]
 800765a:	63bb      	str	r3, [r7, #56]	@ 0x38
 800765c:	6bbb      	ldr	r3, [r7, #56]	@ 0x38
 800765e:	f043 5380 	orr.w	r3, r3, #268435456	@ 0x10000000
 8007662:	67fb      	str	r3, [r7, #124]	@ 0x7c
 8007664:	68fb      	ldr	r3, [r7, #12]
 8007666:	681b      	ldr	r3, [r3, #0]
 8007668:	3308      	adds	r3, #8
 800766a:	6ffa      	ldr	r2, [r7, #124]	@ 0x7c
 800766c:	64ba      	str	r2, [r7, #72]	@ 0x48
 800766e:	647b      	str	r3, [r7, #68]	@ 0x44
 8007670:	6c79      	ldr	r1, [r7, #68]	@ 0x44
 8007672:	6cba      	ldr	r2, [r7, #72]	@ 0x48
 8007674:	e841 2300 	strex	r3, r2, [r1]
 8007678:	643b      	str	r3, [r7, #64]	@ 0x40
 800767a:	6c3b      	ldr	r3, [r7, #64]	@ 0x40
 800767c:	2b00      	cmp	r3, #0
 800767e:	d1e5      	bne.n	800764c <UART_Start_Receive_IT+0x160>
 8007680:	e046      	b.n	8007710 <UART_Start_Receive_IT+0x224>
 8007682:	68fb      	ldr	r3, [r7, #12]
 8007684:	689b      	ldr	r3, [r3, #8]
 8007686:	f5b3 5f80 	cmp.w	r3, #4096	@ 0x1000
 800768a:	d107      	bne.n	800769c <UART_Start_Receive_IT+0x1b0>
 800768c:	68fb      	ldr	r3, [r7, #12]
 800768e:	691b      	ldr	r3, [r3, #16]
 8007690:	2b00      	cmp	r3, #0
 8007692:	d103      	bne.n	800769c <UART_Start_Receive_IT+0x1b0>
 8007694:	68fb      	ldr	r3, [r7, #12]
 8007696:	4a24      	ldr	r2, [pc, #144]	@ (8007728 <UART_Start_Receive_IT+0x23c>)
 8007698:	675a      	str	r2, [r3, #116]	@ 0x74
 800769a:	e002      	b.n	80076a2 <UART_Start_Receive_IT+0x1b6>
 800769c:	68fb      	ldr	r3, [r7, #12]
 800769e:	4a23      	ldr	r2, [pc, #140]	@ (800772c <UART_Start_Receive_IT+0x240>)
 80076a0:	675a      	str	r2, [r3, #116]	@ 0x74
 80076a2:	68fb      	ldr	r3, [r7, #12]
 80076a4:	691b      	ldr	r3, [r3, #16]
 80076a6:	2b00      	cmp	r3, #0
 80076a8:	d019      	beq.n	80076de <UART_Start_Receive_IT+0x1f2>
 80076aa:	68fb      	ldr	r3, [r7, #12]
 80076ac:	681b      	ldr	r3, [r3, #0]
 80076ae:	62bb      	str	r3, [r7, #40]	@ 0x28
 80076b0:	6abb      	ldr	r3, [r7, #40]	@ 0x28
 80076b2:	e853 3f00 	ldrex	r3, [r3]
 80076b6:	627b      	str	r3, [r7, #36]	@ 0x24
 80076b8:	6a7b      	ldr	r3, [r7, #36]	@ 0x24
 80076ba:	f443 7390 	orr.w	r3, r3, #288	@ 0x120
 80076be:	677b      	str	r3, [r7, #116]	@ 0x74
 80076c0:	68fb      	ldr	r3, [r7, #12]
 80076c2:	681b      	ldr	r3, [r3, #0]
 80076c4:	461a      	mov	r2, r3
 80076c6:	6f7b      	ldr	r3, [r7, #116]	@ 0x74
 80076c8:	637b      	str	r3, [r7, #52]	@ 0x34
 80076ca:	633a      	str	r2, [r7, #48]	@ 0x30
 80076cc:	6b39      	ldr	r1, [r7, #48]	@ 0x30
 80076ce:	6b7a      	ldr	r2, [r7, #52]	@ 0x34
 80076d0:	e841 2300 	strex	r3, r2, [r1]
 80076d4:	62fb      	str	r3, [r7, #44]	@ 0x2c
 80076d6:	6afb      	ldr	r3, [r7, #44]	@ 0x2c
 80076d8:	2b00      	cmp	r3, #0
 80076da:	d1e6      	bne.n	80076aa <UART_Start_Receive_IT+0x1be>
 80076dc:	e018      	b.n	8007710 <UART_Start_Receive_IT+0x224>
 80076de:	68fb      	ldr	r3, [r7, #12]
 80076e0:	681b      	ldr	r3, [r3, #0]
 80076e2:	617b      	str	r3, [r7, #20]
 80076e4:	697b      	ldr	r3, [r7, #20]
 80076e6:	e853 3f00 	ldrex	r3, [r3]
 80076ea:	613b      	str	r3, [r7, #16]
 80076ec:	693b      	ldr	r3, [r7, #16]
 80076ee:	f043 0320 	orr.w	r3, r3, #32
 80076f2:	67bb      	str	r3, [r7, #120]	@ 0x78
 80076f4:	68fb      	ldr	r3, [r7, #12]
 80076f6:	681b      	ldr	r3, [r3, #0]
 80076f8:	461a      	mov	r2, r3
 80076fa:	6fbb      	ldr	r3, [r7, #120]	@ 0x78
 80076fc:	623b      	str	r3, [r7, #32]
 80076fe:	61fa      	str	r2, [r7, #28]
 8007700:	69f9      	ldr	r1, [r7, #28]
 8007702:	6a3a      	ldr	r2, [r7, #32]
 8007704:	e841 2300 	strex	r3, r2, [r1]
 8007708:	61bb      	str	r3, [r7, #24]
 800770a:	69bb      	ldr	r3, [r7, #24]
 800770c:	2b00      	cmp	r3, #0
 800770e:	d1e6      	bne.n	80076de <UART_Start_Receive_IT+0x1f2>
 8007710:	2300      	movs	r3, #0
 8007712:	4618      	mov	r0, r3
 8007714:	378c      	adds	r7, #140	@ 0x8c
 8007716:	46bd      	mov	sp, r7
 8007718:	f85d 7b04 	ldr.w	r7, [sp], #4
 800771c:	4770      	bx	lr
 800771e:	bf00      	nop
 8007720:	08007f4d 	.word	0x08007f4d
 8007724:	08007be9 	.word	0x08007be9
 8007728:	08007a31 	.word	0x08007a31
 800772c:	08007879 	.word	0x08007879

08007730 <UART_EndRxTransfer>:
 8007730:	b480      	push	{r7}
 8007732:	b095      	sub	sp, #84	@ 0x54
 8007734:	af00      	add	r7, sp, #0
 8007736:	6078      	str	r0, [r7, #4]
 8007738:	687b      	ldr	r3, [r7, #4]
 800773a:	681b      	ldr	r3, [r3, #0]
 800773c:	637b      	str	r3, [r7, #52]	@ 0x34
 800773e:	6b7b      	ldr	r3, [r7, #52]	@ 0x34
 8007740:	e853 3f00 	ldrex	r3, [r3]
 8007744:	633b      	str	r3, [r7, #48]	@ 0x30
 8007746:	6b3b      	ldr	r3, [r7, #48]	@ 0x30
 8007748:	f423 7390 	bic.w	r3, r3, #288	@ 0x120
 800774c:	64fb      	str	r3, [r7, #76]	@ 0x4c
 800774e:	687b      	ldr	r3, [r7, #4]
 8007750:	681b      	ldr	r3, [r3, #0]
 8007752:	461a      	mov	r2, r3
 8007754:	6cfb      	ldr	r3, [r7, #76]	@ 0x4c
 8007756:	643b      	str	r3, [r7, #64]	@ 0x40
 8007758:	63fa      	str	r2, [r7, #60]	@ 0x3c
 800775a:	6bf9      	ldr	r1, [r7, #60]	@ 0x3c
 800775c:	6c3a      	ldr	r2, [r7, #64]	@ 0x40
 800775e:	e841 2300 	strex	r3, r2, [r1]
 8007762:	63bb      	str	r3, [r7, #56]	@ 0x38
 8007764:	6bbb      	ldr	r3, [r7, #56]	@ 0x38
 8007766:	2b00      	cmp	r3, #0
 8007768:	d1e6      	bne.n	8007738 <UART_EndRxTransfer+0x8>
 800776a:	687b      	ldr	r3, [r7, #4]
 800776c:	681b      	ldr	r3, [r3, #0]
 800776e:	3308      	adds	r3, #8
 8007770:	623b      	str	r3, [r7, #32]
 8007772:	6a3b      	ldr	r3, [r7, #32]
 8007774:	e853 3f00 	ldrex	r3, [r3]
 8007778:	61fb      	str	r3, [r7, #28]
 800777a:	69fb      	ldr	r3, [r7, #28]
 800777c:	f023 5380 	bic.w	r3, r3, #268435456	@ 0x10000000
 8007780:	f023 0301 	bic.w	r3, r3, #1
 8007784:	64bb      	str	r3, [r7, #72]	@ 0x48
 8007786:	687b      	ldr	r3, [r7, #4]
 8007788:	681b      	ldr	r3, [r3, #0]
 800778a:	3308      	adds	r3, #8
 800778c:	6cba      	ldr	r2, [r7, #72]	@ 0x48
 800778e:	62fa      	str	r2, [r7, #44]	@ 0x2c
 8007790:	62bb      	str	r3, [r7, #40]	@ 0x28
 8007792:	6ab9      	ldr	r1, [r7, #40]	@ 0x28
 8007794:	6afa      	ldr	r2, [r7, #44]	@ 0x2c
 8007796:	e841 2300 	strex	r3, r2, [r1]
 800779a:	627b      	str	r3, [r7, #36]	@ 0x24
 800779c:	6a7b      	ldr	r3, [r7, #36]	@ 0x24
 800779e:	2b00      	cmp	r3, #0
 80077a0:	d1e3      	bne.n	800776a <UART_EndRxTransfer+0x3a>
 80077a2:	687b      	ldr	r3, [r7, #4]
 80077a4:	6edb      	ldr	r3, [r3, #108]	@ 0x6c
 80077a6:	2b01      	cmp	r3, #1
 80077a8:	d118      	bne.n	80077dc <UART_EndRxTransfer+0xac>
 80077aa:	687b      	ldr	r3, [r7, #4]
 80077ac:	681b      	ldr	r3, [r3, #0]
 80077ae:	60fb      	str	r3, [r7, #12]
 80077b0:	68fb      	ldr	r3, [r7, #12]
 80077b2:	e853 3f00 	ldrex	r3, [r3]
 80077b6:	60bb      	str	r3, [r7, #8]
 80077b8:	68bb      	ldr	r3, [r7, #8]
 80077ba:	f023 0310 	bic.w	r3, r3, #16
 80077be:	647b      	str	r3, [r7, #68]	@ 0x44
 80077c0:	687b      	ldr	r3, [r7, #4]
 80077c2:	681b      	ldr	r3, [r3, #0]
 80077c4:	461a      	mov	r2, r3
 80077c6:	6c7b      	ldr	r3, [r7, #68]	@ 0x44
 80077c8:	61bb      	str	r3, [r7, #24]
 80077ca:	617a      	str	r2, [r7, #20]
 80077cc:	6979      	ldr	r1, [r7, #20]
 80077ce:	69ba      	ldr	r2, [r7, #24]
 80077d0:	e841 2300 	strex	r3, r2, [r1]
 80077d4:	613b      	str	r3, [r7, #16]
 80077d6:	693b      	ldr	r3, [r7, #16]
 80077d8:	2b00      	cmp	r3, #0
 80077da:	d1e6      	bne.n	80077aa <UART_EndRxTransfer+0x7a>
 80077dc:	687b      	ldr	r3, [r7, #4]
 80077de:	2220      	movs	r2, #32
 80077e0:	f8c3 208c 	str.w	r2, [r3, #140]	@ 0x8c
 80077e4:	687b      	ldr	r3, [r7, #4]
 80077e6:	2200      	movs	r2, #0
 80077e8:	66da      	str	r2, [r3, #108]	@ 0x6c
 80077ea:	687b      	ldr	r3, [r7, #4]
 80077ec:	2200      	movs	r2, #0
 80077ee:	675a      	str	r2, [r3, #116]	@ 0x74
 80077f0:	bf00      	nop
 80077f2:	3754      	adds	r7, #84	@ 0x54
 80077f4:	46bd      	mov	sp, r7
 80077f6:	f85d 7b04 	ldr.w	r7, [sp], #4
 80077fa:	4770      	bx	lr

080077fc <UART_DMAAbortOnError>:
 80077fc:	b580      	push	{r7, lr}
 80077fe:	b084      	sub	sp, #16
 8007800:	af00      	add	r7, sp, #0
 8007802:	6078      	str	r0, [r7, #4]
 8007804:	687b      	ldr	r3, [r7, #4]
 8007806:	6a9b      	ldr	r3, [r3, #40]	@ 0x28
 8007808:	60fb      	str	r3, [r7, #12]
 800780a:	68fb      	ldr	r3, [r7, #12]
 800780c:	2200      	movs	r2, #0
 800780e:	f8a3 205e 	strh.w	r2, [r3, #94]	@ 0x5e
 8007812:	68f8      	ldr	r0, [r7, #12]
 8007814:	f7ff f99e 	bl	8006b54 <HAL_UART_ErrorCallback>
 8007818:	bf00      	nop
 800781a:	3710      	adds	r7, #16
 800781c:	46bd      	mov	sp, r7
 800781e:	bd80      	pop	{r7, pc}

08007820 <UART_EndTransmit_IT>:
 8007820:	b580      	push	{r7, lr}
 8007822:	b088      	sub	sp, #32
 8007824:	af00      	add	r7, sp, #0
 8007826:	6078      	str	r0, [r7, #4]
 8007828:	687b      	ldr	r3, [r7, #4]
 800782a:	681b      	ldr	r3, [r3, #0]
 800782c:	60fb      	str	r3, [r7, #12]
 800782e:	68fb      	ldr	r3, [r7, #12]
 8007830:	e853 3f00 	ldrex	r3, [r3]
 8007834:	60bb      	str	r3, [r7, #8]
 8007836:	68bb      	ldr	r3, [r7, #8]
 8007838:	f023 0340 	bic.w	r3, r3, #64	@ 0x40
 800783c:	61fb      	str	r3, [r7, #28]
 800783e:	687b      	ldr	r3, [r7, #4]
 8007840:	681b      	ldr	r3, [r3, #0]
 8007842:	461a      	mov	r2, r3
 8007844:	69fb      	ldr	r3, [r7, #28]
 8007846:	61bb      	str	r3, [r7, #24]
 8007848:	617a      	str	r2, [r7, #20]
 800784a:	6979      	ldr	r1, [r7, #20]
 800784c:	69ba      	ldr	r2, [r7, #24]
 800784e:	e841 2300 	strex	r3, r2, [r1]
 8007852:	613b      	str	r3, [r7, #16]
 8007854:	693b      	ldr	r3, [r7, #16]
 8007856:	2b00      	cmp	r3, #0
 8007858:	d1e6      	bne.n	8007828 <UART_EndTransmit_IT+0x8>
 800785a:	687b      	ldr	r3, [r7, #4]
 800785c:	2220      	movs	r2, #32
 800785e:	f8c3 2088 	str.w	r2, [r3, #136]	@ 0x88
 8007862:	687b      	ldr	r3, [r7, #4]
 8007864:	2200      	movs	r2, #0
 8007866:	679a      	str	r2, [r3, #120]	@ 0x78
 8007868:	6878      	ldr	r0, [r7, #4]
 800786a:	f7ff f969 	bl	8006b40 <HAL_UART_TxCpltCallback>
 800786e:	bf00      	nop
 8007870:	3720      	adds	r7, #32
 8007872:	46bd      	mov	sp, r7
 8007874:	bd80      	pop	{r7, pc}
	...

08007878 <UART_RxISR_8BIT>:
 8007878:	b580      	push	{r7, lr}
 800787a:	b09c      	sub	sp, #112	@ 0x70
 800787c:	af00      	add	r7, sp, #0
 800787e:	6078      	str	r0, [r7, #4]
 8007880:	687b      	ldr	r3, [r7, #4]
 8007882:	f8b3 3060 	ldrh.w	r3, [r3, #96]	@ 0x60
 8007886:	f8a7 306e 	strh.w	r3, [r7, #110]	@ 0x6e
 800788a:	687b      	ldr	r3, [r7, #4]
 800788c:	f8d3 308c 	ldr.w	r3, [r3, #140]	@ 0x8c
 8007890:	2b22      	cmp	r3, #34	@ 0x22
 8007892:	f040 80be 	bne.w	8007a12 <UART_RxISR_8BIT+0x19a>
 8007896:	687b      	ldr	r3, [r7, #4]
 8007898:	681b      	ldr	r3, [r3, #0]
 800789a:	6a5b      	ldr	r3, [r3, #36]	@ 0x24
 800789c:	f8a7 306c 	strh.w	r3, [r7, #108]	@ 0x6c
 80078a0:	f8b7 306c 	ldrh.w	r3, [r7, #108]	@ 0x6c
 80078a4:	b2d9      	uxtb	r1, r3
 80078a6:	f8b7 306e 	ldrh.w	r3, [r7, #110]	@ 0x6e
 80078aa:	b2da      	uxtb	r2, r3
 80078ac:	687b      	ldr	r3, [r7, #4]
 80078ae:	6d9b      	ldr	r3, [r3, #88]	@ 0x58
 80078b0:	400a      	ands	r2, r1
 80078b2:	b2d2      	uxtb	r2, r2
 80078b4:	701a      	strb	r2, [r3, #0]
 80078b6:	687b      	ldr	r3, [r7, #4]
 80078b8:	6d9b      	ldr	r3, [r3, #88]	@ 0x58
 80078ba:	1c5a      	adds	r2, r3, #1
 80078bc:	687b      	ldr	r3, [r7, #4]
 80078be:	659a      	str	r2, [r3, #88]	@ 0x58
 80078c0:	687b      	ldr	r3, [r7, #4]
 80078c2:	f8b3 305e 	ldrh.w	r3, [r3, #94]	@ 0x5e
 80078c6:	b29b      	uxth	r3, r3
 80078c8:	3b01      	subs	r3, #1
 80078ca:	b29a      	uxth	r2, r3
 80078cc:	687b      	ldr	r3, [r7, #4]
 80078ce:	f8a3 205e 	strh.w	r2, [r3, #94]	@ 0x5e
 80078d2:	687b      	ldr	r3, [r7, #4]
 80078d4:	f8b3 305e 	ldrh.w	r3, [r3, #94]	@ 0x5e
 80078d8:	b29b      	uxth	r3, r3
 80078da:	2b00      	cmp	r3, #0
 80078dc:	f040 80a1 	bne.w	8007a22 <UART_RxISR_8BIT+0x1aa>
 80078e0:	687b      	ldr	r3, [r7, #4]
 80078e2:	681b      	ldr	r3, [r3, #0]
 80078e4:	64fb      	str	r3, [r7, #76]	@ 0x4c
 80078e6:	6cfb      	ldr	r3, [r7, #76]	@ 0x4c
 80078e8:	e853 3f00 	ldrex	r3, [r3]
 80078ec:	64bb      	str	r3, [r7, #72]	@ 0x48
 80078ee:	6cbb      	ldr	r3, [r7, #72]	@ 0x48
 80078f0:	f423 7390 	bic.w	r3, r3, #288	@ 0x120
 80078f4:	66bb      	str	r3, [r7, #104]	@ 0x68
 80078f6:	687b      	ldr	r3, [r7, #4]
 80078f8:	681b      	ldr	r3, [r3, #0]
 80078fa:	461a      	mov	r2, r3
 80078fc:	6ebb      	ldr	r3, [r7, #104]	@ 0x68
 80078fe:	65bb      	str	r3, [r7, #88]	@ 0x58
 8007900:	657a      	str	r2, [r7, #84]	@ 0x54
 8007902:	6d79      	ldr	r1, [r7, #84]	@ 0x54
 8007904:	6dba      	ldr	r2, [r7, #88]	@ 0x58
 8007906:	e841 2300 	strex	r3, r2, [r1]
 800790a:	653b      	str	r3, [r7, #80]	@ 0x50
 800790c:	6d3b      	ldr	r3, [r7, #80]	@ 0x50
 800790e:	2b00      	cmp	r3, #0
 8007910:	d1e6      	bne.n	80078e0 <UART_RxISR_8BIT+0x68>
 8007912:	687b      	ldr	r3, [r7, #4]
 8007914:	681b      	ldr	r3, [r3, #0]
 8007916:	3308      	adds	r3, #8
 8007918:	63bb      	str	r3, [r7, #56]	@ 0x38
 800791a:	6bbb      	ldr	r3, [r7, #56]	@ 0x38
 800791c:	e853 3f00 	ldrex	r3, [r3]
 8007920:	637b      	str	r3, [r7, #52]	@ 0x34
 8007922:	6b7b      	ldr	r3, [r7, #52]	@ 0x34
 8007924:	f023 0301 	bic.w	r3, r3, #1
 8007928:	667b      	str	r3, [r7, #100]	@ 0x64
 800792a:	687b      	ldr	r3, [r7, #4]
 800792c:	681b      	ldr	r3, [r3, #0]
 800792e:	3308      	adds	r3, #8
 8007930:	6e7a      	ldr	r2, [r7, #100]	@ 0x64
 8007932:	647a      	str	r2, [r7, #68]	@ 0x44
 8007934:	643b      	str	r3, [r7, #64]	@ 0x40
 8007936:	6c39      	ldr	r1, [r7, #64]	@ 0x40
 8007938:	6c7a      	ldr	r2, [r7, #68]	@ 0x44
 800793a:	e841 2300 	strex	r3, r2, [r1]
 800793e:	63fb      	str	r3, [r7, #60]	@ 0x3c
 8007940:	6bfb      	ldr	r3, [r7, #60]	@ 0x3c
 8007942:	2b00      	cmp	r3, #0
 8007944:	d1e5      	bne.n	8007912 <UART_RxISR_8BIT+0x9a>
 8007946:	687b      	ldr	r3, [r7, #4]
 8007948:	2220      	movs	r2, #32
 800794a:	f8c3 208c 	str.w	r2, [r3, #140]	@ 0x8c
 800794e:	687b      	ldr	r3, [r7, #4]
 8007950:	2200      	movs	r2, #0
 8007952:	675a      	str	r2, [r3, #116]	@ 0x74
 8007954:	687b      	ldr	r3, [r7, #4]
 8007956:	2200      	movs	r2, #0
 8007958:	671a      	str	r2, [r3, #112]	@ 0x70
 800795a:	687b      	ldr	r3, [r7, #4]
 800795c:	681b      	ldr	r3, [r3, #0]
 800795e:	4a33      	ldr	r2, [pc, #204]	@ (8007a2c <UART_RxISR_8BIT+0x1b4>)
 8007960:	4293      	cmp	r3, r2
 8007962:	d01f      	beq.n	80079a4 <UART_RxISR_8BIT+0x12c>
 8007964:	687b      	ldr	r3, [r7, #4]
 8007966:	681b      	ldr	r3, [r3, #0]
 8007968:	685b      	ldr	r3, [r3, #4]
 800796a:	f403 0300 	and.w	r3, r3, #8388608	@ 0x800000
 800796e:	2b00      	cmp	r3, #0
 8007970:	d018      	beq.n	80079a4 <UART_RxISR_8BIT+0x12c>
 8007972:	687b      	ldr	r3, [r7, #4]
 8007974:	681b      	ldr	r3, [r3, #0]
 8007976:	627b      	str	r3, [r7, #36]	@ 0x24
 8007978:	6a7b      	ldr	r3, [r7, #36]	@ 0x24
 800797a:	e853 3f00 	ldrex	r3, [r3]
 800797e:	623b      	str	r3, [r7, #32]
 8007980:	6a3b      	ldr	r3, [r7, #32]
 8007982:	f023 6380 	bic.w	r3, r3, #67108864	@ 0x4000000
 8007986:	663b      	str	r3, [r7, #96]	@ 0x60
 8007988:	687b      	ldr	r3, [r7, #4]
 800798a:	681b      	ldr	r3, [r3, #0]
 800798c:	461a      	mov	r2, r3
 800798e:	6e3b      	ldr	r3, [r7, #96]	@ 0x60
 8007990:	633b      	str	r3, [r7, #48]	@ 0x30
 8007992:	62fa      	str	r2, [r7, #44]	@ 0x2c
 8007994:	6af9      	ldr	r1, [r7, #44]	@ 0x2c
 8007996:	6b3a      	ldr	r2, [r7, #48]	@ 0x30
 8007998:	e841 2300 	strex	r3, r2, [r1]
 800799c:	62bb      	str	r3, [r7, #40]	@ 0x28
 800799e:	6abb      	ldr	r3, [r7, #40]	@ 0x28
 80079a0:	2b00      	cmp	r3, #0
 80079a2:	d1e6      	bne.n	8007972 <UART_RxISR_8BIT+0xfa>
 80079a4:	687b      	ldr	r3, [r7, #4]
 80079a6:	6edb      	ldr	r3, [r3, #108]	@ 0x6c
 80079a8:	2b01      	cmp	r3, #1
 80079aa:	d12e      	bne.n	8007a0a <UART_RxISR_8BIT+0x192>
 80079ac:	687b      	ldr	r3, [r7, #4]
 80079ae:	2200      	movs	r2, #0
 80079b0:	66da      	str	r2, [r3, #108]	@ 0x6c
 80079b2:	687b      	ldr	r3, [r7, #4]
 80079b4:	681b      	ldr	r3, [r3, #0]
 80079b6:	613b      	str	r3, [r7, #16]
 80079b8:	693b      	ldr	r3, [r7, #16]
 80079ba:	e853 3f00 	ldrex	r3, [r3]
 80079be:	60fb      	str	r3, [r7, #12]
 80079c0:	68fb      	ldr	r3, [r7, #12]
 80079c2:	f023 0310 	bic.w	r3, r3, #16
 80079c6:	65fb      	str	r3, [r7, #92]	@ 0x5c
 80079c8:	687b      	ldr	r3, [r7, #4]
 80079ca:	681b      	ldr	r3, [r3, #0]
 80079cc:	461a      	mov	r2, r3
 80079ce:	6dfb      	ldr	r3, [r7, #92]	@ 0x5c
 80079d0:	61fb      	str	r3, [r7, #28]
 80079d2:	61ba      	str	r2, [r7, #24]
 80079d4:	69b9      	ldr	r1, [r7, #24]
 80079d6:	69fa      	ldr	r2, [r7, #28]
 80079d8:	e841 2300 	strex	r3, r2, [r1]
 80079dc:	617b      	str	r3, [r7, #20]
 80079de:	697b      	ldr	r3, [r7, #20]
 80079e0:	2b00      	cmp	r3, #0
 80079e2:	d1e6      	bne.n	80079b2 <UART_RxISR_8BIT+0x13a>
 80079e4:	687b      	ldr	r3, [r7, #4]
 80079e6:	681b      	ldr	r3, [r3, #0]
 80079e8:	69db      	ldr	r3, [r3, #28]
 80079ea:	f003 0310 	and.w	r3, r3, #16
 80079ee:	2b10      	cmp	r3, #16
 80079f0:	d103      	bne.n	80079fa <UART_RxISR_8BIT+0x182>
 80079f2:	687b      	ldr	r3, [r7, #4]
 80079f4:	681b      	ldr	r3, [r3, #0]
 80079f6:	2210      	movs	r2, #16
 80079f8:	621a      	str	r2, [r3, #32]
 80079fa:	687b      	ldr	r3, [r7, #4]
 80079fc:	f8b3 305c 	ldrh.w	r3, [r3, #92]	@ 0x5c
 8007a00:	4619      	mov	r1, r3
 8007a02:	6878      	ldr	r0, [r7, #4]
 8007a04:	f7ff f8b0 	bl	8006b68 <HAL_UARTEx_RxEventCallback>
 8007a08:	e00b      	b.n	8007a22 <UART_RxISR_8BIT+0x1aa>
 8007a0a:	6878      	ldr	r0, [r7, #4]
 8007a0c:	f7fa fb56 	bl	80020bc <HAL_UART_RxCpltCallback>
 8007a10:	e007      	b.n	8007a22 <UART_RxISR_8BIT+0x1aa>
 8007a12:	687b      	ldr	r3, [r7, #4]
 8007a14:	681b      	ldr	r3, [r3, #0]
 8007a16:	699a      	ldr	r2, [r3, #24]
 8007a18:	687b      	ldr	r3, [r7, #4]
 8007a1a:	681b      	ldr	r3, [r3, #0]
 8007a1c:	f042 0208 	orr.w	r2, r2, #8
 8007a20:	619a      	str	r2, [r3, #24]
 8007a22:	bf00      	nop
 8007a24:	3770      	adds	r7, #112	@ 0x70
 8007a26:	46bd      	mov	sp, r7
 8007a28:	bd80      	pop	{r7, pc}
 8007a2a:	bf00      	nop
 8007a2c:	40008000 	.word	0x40008000

08007a30 <UART_RxISR_16BIT>:
 8007a30:	b580      	push	{r7, lr}
 8007a32:	b09c      	sub	sp, #112	@ 0x70
 8007a34:	af00      	add	r7, sp, #0
 8007a36:	6078      	str	r0, [r7, #4]
 8007a38:	687b      	ldr	r3, [r7, #4]
 8007a3a:	f8b3 3060 	ldrh.w	r3, [r3, #96]	@ 0x60
 8007a3e:	f8a7 306e 	strh.w	r3, [r7, #110]	@ 0x6e
 8007a42:	687b      	ldr	r3, [r7, #4]
 8007a44:	f8d3 308c 	ldr.w	r3, [r3, #140]	@ 0x8c
 8007a48:	2b22      	cmp	r3, #34	@ 0x22
 8007a4a:	f040 80be 	bne.w	8007bca <UART_RxISR_16BIT+0x19a>
 8007a4e:	687b      	ldr	r3, [r7, #4]
 8007a50:	681b      	ldr	r3, [r3, #0]
 8007a52:	6a5b      	ldr	r3, [r3, #36]	@ 0x24
 8007a54:	f8a7 306c 	strh.w	r3, [r7, #108]	@ 0x6c
 8007a58:	687b      	ldr	r3, [r7, #4]
 8007a5a:	6d9b      	ldr	r3, [r3, #88]	@ 0x58
 8007a5c:	66bb      	str	r3, [r7, #104]	@ 0x68
 8007a5e:	f8b7 206c 	ldrh.w	r2, [r7, #108]	@ 0x6c
 8007a62:	f8b7 306e 	ldrh.w	r3, [r7, #110]	@ 0x6e
 8007a66:	4013      	ands	r3, r2
 8007a68:	b29a      	uxth	r2, r3
 8007a6a:	6ebb      	ldr	r3, [r7, #104]	@ 0x68
 8007a6c:	801a      	strh	r2, [r3, #0]
 8007a6e:	687b      	ldr	r3, [r7, #4]
 8007a70:	6d9b      	ldr	r3, [r3, #88]	@ 0x58
 8007a72:	1c9a      	adds	r2, r3, #2
 8007a74:	687b      	ldr	r3, [r7, #4]
 8007a76:	659a      	str	r2, [r3, #88]	@ 0x58
 8007a78:	687b      	ldr	r3, [r7, #4]
 8007a7a:	f8b3 305e 	ldrh.w	r3, [r3, #94]	@ 0x5e
 8007a7e:	b29b      	uxth	r3, r3
 8007a80:	3b01      	subs	r3, #1
 8007a82:	b29a      	uxth	r2, r3
 8007a84:	687b      	ldr	r3, [r7, #4]
 8007a86:	f8a3 205e 	strh.w	r2, [r3, #94]	@ 0x5e
 8007a8a:	687b      	ldr	r3, [r7, #4]
 8007a8c:	f8b3 305e 	ldrh.w	r3, [r3, #94]	@ 0x5e
 8007a90:	b29b      	uxth	r3, r3
 8007a92:	2b00      	cmp	r3, #0
 8007a94:	f040 80a1 	bne.w	8007bda <UART_RxISR_16BIT+0x1aa>
 8007a98:	687b      	ldr	r3, [r7, #4]
 8007a9a:	681b      	ldr	r3, [r3, #0]
 8007a9c:	64bb      	str	r3, [r7, #72]	@ 0x48
 8007a9e:	6cbb      	ldr	r3, [r7, #72]	@ 0x48
 8007aa0:	e853 3f00 	ldrex	r3, [r3]
 8007aa4:	647b      	str	r3, [r7, #68]	@ 0x44
 8007aa6:	6c7b      	ldr	r3, [r7, #68]	@ 0x44
 8007aa8:	f423 7390 	bic.w	r3, r3, #288	@ 0x120
 8007aac:	667b      	str	r3, [r7, #100]	@ 0x64
 8007aae:	687b      	ldr	r3, [r7, #4]
 8007ab0:	681b      	ldr	r3, [r3, #0]
 8007ab2:	461a      	mov	r2, r3
 8007ab4:	6e7b      	ldr	r3, [r7, #100]	@ 0x64
 8007ab6:	657b      	str	r3, [r7, #84]	@ 0x54
 8007ab8:	653a      	str	r2, [r7, #80]	@ 0x50
 8007aba:	6d39      	ldr	r1, [r7, #80]	@ 0x50
 8007abc:	6d7a      	ldr	r2, [r7, #84]	@ 0x54
 8007abe:	e841 2300 	strex	r3, r2, [r1]
 8007ac2:	64fb      	str	r3, [r7, #76]	@ 0x4c
 8007ac4:	6cfb      	ldr	r3, [r7, #76]	@ 0x4c
 8007ac6:	2b00      	cmp	r3, #0
 8007ac8:	d1e6      	bne.n	8007a98 <UART_RxISR_16BIT+0x68>
 8007aca:	687b      	ldr	r3, [r7, #4]
 8007acc:	681b      	ldr	r3, [r3, #0]
 8007ace:	3308      	adds	r3, #8
 8007ad0:	637b      	str	r3, [r7, #52]	@ 0x34
 8007ad2:	6b7b      	ldr	r3, [r7, #52]	@ 0x34
 8007ad4:	e853 3f00 	ldrex	r3, [r3]
 8007ad8:	633b      	str	r3, [r7, #48]	@ 0x30
 8007ada:	6b3b      	ldr	r3, [r7, #48]	@ 0x30
 8007adc:	f023 0301 	bic.w	r3, r3, #1
 8007ae0:	663b      	str	r3, [r7, #96]	@ 0x60
 8007ae2:	687b      	ldr	r3, [r7, #4]
 8007ae4:	681b      	ldr	r3, [r3, #0]
 8007ae6:	3308      	adds	r3, #8
 8007ae8:	6e3a      	ldr	r2, [r7, #96]	@ 0x60
 8007aea:	643a      	str	r2, [r7, #64]	@ 0x40
 8007aec:	63fb      	str	r3, [r7, #60]	@ 0x3c
 8007aee:	6bf9      	ldr	r1, [r7, #60]	@ 0x3c
 8007af0:	6c3a      	ldr	r2, [r7, #64]	@ 0x40
 8007af2:	e841 2300 	strex	r3, r2, [r1]
 8007af6:	63bb      	str	r3, [r7, #56]	@ 0x38
 8007af8:	6bbb      	ldr	r3, [r7, #56]	@ 0x38
 8007afa:	2b00      	cmp	r3, #0
 8007afc:	d1e5      	bne.n	8007aca <UART_RxISR_16BIT+0x9a>
 8007afe:	687b      	ldr	r3, [r7, #4]
 8007b00:	2220      	movs	r2, #32
 8007b02:	f8c3 208c 	str.w	r2, [r3, #140]	@ 0x8c
 8007b06:	687b      	ldr	r3, [r7, #4]
 8007b08:	2200      	movs	r2, #0
 8007b0a:	675a      	str	r2, [r3, #116]	@ 0x74
 8007b0c:	687b      	ldr	r3, [r7, #4]
 8007b0e:	2200      	movs	r2, #0
 8007b10:	671a      	str	r2, [r3, #112]	@ 0x70
 8007b12:	687b      	ldr	r3, [r7, #4]
 8007b14:	681b      	ldr	r3, [r3, #0]
 8007b16:	4a33      	ldr	r2, [pc, #204]	@ (8007be4 <UART_RxISR_16BIT+0x1b4>)
 8007b18:	4293      	cmp	r3, r2
 8007b1a:	d01f      	beq.n	8007b5c <UART_RxISR_16BIT+0x12c>
 8007b1c:	687b      	ldr	r3, [r7, #4]
 8007b1e:	681b      	ldr	r3, [r3, #0]
 8007b20:	685b      	ldr	r3, [r3, #4]
 8007b22:	f403 0300 	and.w	r3, r3, #8388608	@ 0x800000
 8007b26:	2b00      	cmp	r3, #0
 8007b28:	d018      	beq.n	8007b5c <UART_RxISR_16BIT+0x12c>
 8007b2a:	687b      	ldr	r3, [r7, #4]
 8007b2c:	681b      	ldr	r3, [r3, #0]
 8007b2e:	623b      	str	r3, [r7, #32]
 8007b30:	6a3b      	ldr	r3, [r7, #32]
 8007b32:	e853 3f00 	ldrex	r3, [r3]
 8007b36:	61fb      	str	r3, [r7, #28]
 8007b38:	69fb      	ldr	r3, [r7, #28]
 8007b3a:	f023 6380 	bic.w	r3, r3, #67108864	@ 0x4000000
 8007b3e:	65fb      	str	r3, [r7, #92]	@ 0x5c
 8007b40:	687b      	ldr	r3, [r7, #4]
 8007b42:	681b      	ldr	r3, [r3, #0]
 8007b44:	461a      	mov	r2, r3
 8007b46:	6dfb      	ldr	r3, [r7, #92]	@ 0x5c
 8007b48:	62fb      	str	r3, [r7, #44]	@ 0x2c
 8007b4a:	62ba      	str	r2, [r7, #40]	@ 0x28
 8007b4c:	6ab9      	ldr	r1, [r7, #40]	@ 0x28
 8007b4e:	6afa      	ldr	r2, [r7, #44]	@ 0x2c
 8007b50:	e841 2300 	strex	r3, r2, [r1]
 8007b54:	627b      	str	r3, [r7, #36]	@ 0x24
 8007b56:	6a7b      	ldr	r3, [r7, #36]	@ 0x24
 8007b58:	2b00      	cmp	r3, #0
 8007b5a:	d1e6      	bne.n	8007b2a <UART_RxISR_16BIT+0xfa>
 8007b5c:	687b      	ldr	r3, [r7, #4]
 8007b5e:	6edb      	ldr	r3, [r3, #108]	@ 0x6c
 8007b60:	2b01      	cmp	r3, #1
 8007b62:	d12e      	bne.n	8007bc2 <UART_RxISR_16BIT+0x192>
 8007b64:	687b      	ldr	r3, [r7, #4]
 8007b66:	2200      	movs	r2, #0
 8007b68:	66da      	str	r2, [r3, #108]	@ 0x6c
 8007b6a:	687b      	ldr	r3, [r7, #4]
 8007b6c:	681b      	ldr	r3, [r3, #0]
 8007b6e:	60fb      	str	r3, [r7, #12]
 8007b70:	68fb      	ldr	r3, [r7, #12]
 8007b72:	e853 3f00 	ldrex	r3, [r3]
 8007b76:	60bb      	str	r3, [r7, #8]
 8007b78:	68bb      	ldr	r3, [r7, #8]
 8007b7a:	f023 0310 	bic.w	r3, r3, #16
 8007b7e:	65bb      	str	r3, [r7, #88]	@ 0x58
 8007b80:	687b      	ldr	r3, [r7, #4]
 8007b82:	681b      	ldr	r3, [r3, #0]
 8007b84:	461a      	mov	r2, r3
 8007b86:	6dbb      	ldr	r3, [r7, #88]	@ 0x58
 8007b88:	61bb      	str	r3, [r7, #24]
 8007b8a:	617a      	str	r2, [r7, #20]
 8007b8c:	6979      	ldr	r1, [r7, #20]
 8007b8e:	69ba      	ldr	r2, [r7, #24]
 8007b90:	e841 2300 	strex	r3, r2, [r1]
 8007b94:	613b      	str	r3, [r7, #16]
 8007b96:	693b      	ldr	r3, [r7, #16]
 8007b98:	2b00      	cmp	r3, #0
 8007b9a:	d1e6      	bne.n	8007b6a <UART_RxISR_16BIT+0x13a>
 8007b9c:	687b      	ldr	r3, [r7, #4]
 8007b9e:	681b      	ldr	r3, [r3, #0]
 8007ba0:	69db      	ldr	r3, [r3, #28]
 8007ba2:	f003 0310 	and.w	r3, r3, #16
 8007ba6:	2b10      	cmp	r3, #16
 8007ba8:	d103      	bne.n	8007bb2 <UART_RxISR_16BIT+0x182>
 8007baa:	687b      	ldr	r3, [r7, #4]
 8007bac:	681b      	ldr	r3, [r3, #0]
 8007bae:	2210      	movs	r2, #16
 8007bb0:	621a      	str	r2, [r3, #32]
 8007bb2:	687b      	ldr	r3, [r7, #4]
 8007bb4:	f8b3 305c 	ldrh.w	r3, [r3, #92]	@ 0x5c
 8007bb8:	4619      	mov	r1, r3
 8007bba:	6878      	ldr	r0, [r7, #4]
 8007bbc:	f7fe ffd4 	bl	8006b68 <HAL_UARTEx_RxEventCallback>
 8007bc0:	e00b      	b.n	8007bda <UART_RxISR_16BIT+0x1aa>
 8007bc2:	6878      	ldr	r0, [r7, #4]
 8007bc4:	f7fa fa7a 	bl	80020bc <HAL_UART_RxCpltCallback>
 8007bc8:	e007      	b.n	8007bda <UART_RxISR_16BIT+0x1aa>
 8007bca:	687b      	ldr	r3, [r7, #4]
 8007bcc:	681b      	ldr	r3, [r3, #0]
 8007bce:	699a      	ldr	r2, [r3, #24]
 8007bd0:	687b      	ldr	r3, [r7, #4]
 8007bd2:	681b      	ldr	r3, [r3, #0]
 8007bd4:	f042 0208 	orr.w	r2, r2, #8
 8007bd8:	619a      	str	r2, [r3, #24]
 8007bda:	bf00      	nop
 8007bdc:	3770      	adds	r7, #112	@ 0x70
 8007bde:	46bd      	mov	sp, r7
 8007be0:	bd80      	pop	{r7, pc}
 8007be2:	bf00      	nop
 8007be4:	40008000 	.word	0x40008000

08007be8 <UART_RxISR_8BIT_FIFOEN>:
 8007be8:	b580      	push	{r7, lr}
 8007bea:	b0ac      	sub	sp, #176	@ 0xb0
 8007bec:	af00      	add	r7, sp, #0
 8007bee:	6078      	str	r0, [r7, #4]
 8007bf0:	687b      	ldr	r3, [r7, #4]
 8007bf2:	f8b3 3060 	ldrh.w	r3, [r3, #96]	@ 0x60
 8007bf6:	f8a7 30aa 	strh.w	r3, [r7, #170]	@ 0xaa
 8007bfa:	687b      	ldr	r3, [r7, #4]
 8007bfc:	681b      	ldr	r3, [r3, #0]
 8007bfe:	69db      	ldr	r3, [r3, #28]
 8007c00:	f8c7 30ac 	str.w	r3, [r7, #172]	@ 0xac
 8007c04:	687b      	ldr	r3, [r7, #4]
 8007c06:	681b      	ldr	r3, [r3, #0]
 8007c08:	681b      	ldr	r3, [r3, #0]
 8007c0a:	f8c7 30a4 	str.w	r3, [r7, #164]	@ 0xa4
 8007c0e:	687b      	ldr	r3, [r7, #4]
 8007c10:	681b      	ldr	r3, [r3, #0]
 8007c12:	689b      	ldr	r3, [r3, #8]
 8007c14:	f8c7 30a0 	str.w	r3, [r7, #160]	@ 0xa0
 8007c18:	687b      	ldr	r3, [r7, #4]
 8007c1a:	f8d3 308c 	ldr.w	r3, [r3, #140]	@ 0x8c
 8007c1e:	2b22      	cmp	r3, #34	@ 0x22
 8007c20:	f040 8183 	bne.w	8007f2a <UART_RxISR_8BIT_FIFOEN+0x342>
 8007c24:	687b      	ldr	r3, [r7, #4]
 8007c26:	f8b3 3068 	ldrh.w	r3, [r3, #104]	@ 0x68
 8007c2a:	f8a7 309e 	strh.w	r3, [r7, #158]	@ 0x9e
 8007c2e:	e126      	b.n	8007e7e <UART_RxISR_8BIT_FIFOEN+0x296>
 8007c30:	687b      	ldr	r3, [r7, #4]
 8007c32:	681b      	ldr	r3, [r3, #0]
 8007c34:	6a5b      	ldr	r3, [r3, #36]	@ 0x24
 8007c36:	f8a7 309c 	strh.w	r3, [r7, #156]	@ 0x9c
 8007c3a:	f8b7 309c 	ldrh.w	r3, [r7, #156]	@ 0x9c
 8007c3e:	b2d9      	uxtb	r1, r3
 8007c40:	f8b7 30aa 	ldrh.w	r3, [r7, #170]	@ 0xaa
 8007c44:	b2da      	uxtb	r2, r3
 8007c46:	687b      	ldr	r3, [r7, #4]
 8007c48:	6d9b      	ldr	r3, [r3, #88]	@ 0x58
 8007c4a:	400a      	ands	r2, r1
 8007c4c:	b2d2      	uxtb	r2, r2
 8007c4e:	701a      	strb	r2, [r3, #0]
 8007c50:	687b      	ldr	r3, [r7, #4]
 8007c52:	6d9b      	ldr	r3, [r3, #88]	@ 0x58
 8007c54:	1c5a      	adds	r2, r3, #1
 8007c56:	687b      	ldr	r3, [r7, #4]
 8007c58:	659a      	str	r2, [r3, #88]	@ 0x58
 8007c5a:	687b      	ldr	r3, [r7, #4]
 8007c5c:	f8b3 305e 	ldrh.w	r3, [r3, #94]	@ 0x5e
 8007c60:	b29b      	uxth	r3, r3
 8007c62:	3b01      	subs	r3, #1
 8007c64:	b29a      	uxth	r2, r3
 8007c66:	687b      	ldr	r3, [r7, #4]
 8007c68:	f8a3 205e 	strh.w	r2, [r3, #94]	@ 0x5e
 8007c6c:	687b      	ldr	r3, [r7, #4]
 8007c6e:	681b      	ldr	r3, [r3, #0]
 8007c70:	69db      	ldr	r3, [r3, #28]
 8007c72:	f8c7 30ac 	str.w	r3, [r7, #172]	@ 0xac
 8007c76:	f8d7 30ac 	ldr.w	r3, [r7, #172]	@ 0xac
 8007c7a:	f003 0307 	and.w	r3, r3, #7
 8007c7e:	2b00      	cmp	r3, #0
 8007c80:	d053      	beq.n	8007d2a <UART_RxISR_8BIT_FIFOEN+0x142>
 8007c82:	f8d7 30ac 	ldr.w	r3, [r7, #172]	@ 0xac
 8007c86:	f003 0301 	and.w	r3, r3, #1
 8007c8a:	2b00      	cmp	r3, #0
 8007c8c:	d011      	beq.n	8007cb2 <UART_RxISR_8BIT_FIFOEN+0xca>
 8007c8e:	f8d7 30a4 	ldr.w	r3, [r7, #164]	@ 0xa4
 8007c92:	f403 7380 	and.w	r3, r3, #256	@ 0x100
 8007c96:	2b00      	cmp	r3, #0
 8007c98:	d00b      	beq.n	8007cb2 <UART_RxISR_8BIT_FIFOEN+0xca>
 8007c9a:	687b      	ldr	r3, [r7, #4]
 8007c9c:	681b      	ldr	r3, [r3, #0]
 8007c9e:	2201      	movs	r2, #1
 8007ca0:	621a      	str	r2, [r3, #32]
 8007ca2:	687b      	ldr	r3, [r7, #4]
 8007ca4:	f8d3 3090 	ldr.w	r3, [r3, #144]	@ 0x90
 8007ca8:	f043 0201 	orr.w	r2, r3, #1
 8007cac:	687b      	ldr	r3, [r7, #4]
 8007cae:	f8c3 2090 	str.w	r2, [r3, #144]	@ 0x90
 8007cb2:	f8d7 30ac 	ldr.w	r3, [r7, #172]	@ 0xac
 8007cb6:	f003 0302 	and.w	r3, r3, #2
 8007cba:	2b00      	cmp	r3, #0
 8007cbc:	d011      	beq.n	8007ce2 <UART_RxISR_8BIT_FIFOEN+0xfa>
 8007cbe:	f8d7 30a0 	ldr.w	r3, [r7, #160]	@ 0xa0
 8007cc2:	f003 0301 	and.w	r3, r3, #1
 8007cc6:	2b00      	cmp	r3, #0
 8007cc8:	d00b      	beq.n	8007ce2 <UART_RxISR_8BIT_FIFOEN+0xfa>
 8007cca:	687b      	ldr	r3, [r7, #4]
 8007ccc:	681b      	ldr	r3, [r3, #0]
 8007cce:	2202      	movs	r2, #2
 8007cd0:	621a      	str	r2, [r3, #32]
 8007cd2:	687b      	ldr	r3, [r7, #4]
 8007cd4:	f8d3 3090 	ldr.w	r3, [r3, #144]	@ 0x90
 8007cd8:	f043 0204 	orr.w	r2, r3, #4
 8007cdc:	687b      	ldr	r3, [r7, #4]
 8007cde:	f8c3 2090 	str.w	r2, [r3, #144]	@ 0x90
 8007ce2:	f8d7 30ac 	ldr.w	r3, [r7, #172]	@ 0xac
 8007ce6:	f003 0304 	and.w	r3, r3, #4
 8007cea:	2b00      	cmp	r3, #0
 8007cec:	d011      	beq.n	8007d12 <UART_RxISR_8BIT_FIFOEN+0x12a>
 8007cee:	f8d7 30a0 	ldr.w	r3, [r7, #160]	@ 0xa0
 8007cf2:	f003 0301 	and.w	r3, r3, #1
 8007cf6:	2b00      	cmp	r3, #0
 8007cf8:	d00b      	beq.n	8007d12 <UART_RxISR_8BIT_FIFOEN+0x12a>
 8007cfa:	687b      	ldr	r3, [r7, #4]
 8007cfc:	681b      	ldr	r3, [r3, #0]
 8007cfe:	2204      	movs	r2, #4
 8007d00:	621a      	str	r2, [r3, #32]
 8007d02:	687b      	ldr	r3, [r7, #4]
 8007d04:	f8d3 3090 	ldr.w	r3, [r3, #144]	@ 0x90
 8007d08:	f043 0202 	orr.w	r2, r3, #2
 8007d0c:	687b      	ldr	r3, [r7, #4]
 8007d0e:	f8c3 2090 	str.w	r2, [r3, #144]	@ 0x90
 8007d12:	687b      	ldr	r3, [r7, #4]
 8007d14:	f8d3 3090 	ldr.w	r3, [r3, #144]	@ 0x90
 8007d18:	2b00      	cmp	r3, #0
 8007d1a:	d006      	beq.n	8007d2a <UART_RxISR_8BIT_FIFOEN+0x142>
 8007d1c:	6878      	ldr	r0, [r7, #4]
 8007d1e:	f7fe ff19 	bl	8006b54 <HAL_UART_ErrorCallback>
 8007d22:	687b      	ldr	r3, [r7, #4]
 8007d24:	2200      	movs	r2, #0
 8007d26:	f8c3 2090 	str.w	r2, [r3, #144]	@ 0x90
 8007d2a:	687b      	ldr	r3, [r7, #4]
 8007d2c:	f8b3 305e 	ldrh.w	r3, [r3, #94]	@ 0x5e
 8007d30:	b29b      	uxth	r3, r3
 8007d32:	2b00      	cmp	r3, #0
 8007d34:	f040 80a3 	bne.w	8007e7e <UART_RxISR_8BIT_FIFOEN+0x296>
 8007d38:	687b      	ldr	r3, [r7, #4]
 8007d3a:	681b      	ldr	r3, [r3, #0]
 8007d3c:	673b      	str	r3, [r7, #112]	@ 0x70
 8007d3e:	6f3b      	ldr	r3, [r7, #112]	@ 0x70
 8007d40:	e853 3f00 	ldrex	r3, [r3]
 8007d44:	66fb      	str	r3, [r7, #108]	@ 0x6c
 8007d46:	6efb      	ldr	r3, [r7, #108]	@ 0x6c
 8007d48:	f423 7380 	bic.w	r3, r3, #256	@ 0x100
 8007d4c:	f8c7 3098 	str.w	r3, [r7, #152]	@ 0x98
 8007d50:	687b      	ldr	r3, [r7, #4]
 8007d52:	681b      	ldr	r3, [r3, #0]
 8007d54:	461a      	mov	r2, r3
 8007d56:	f8d7 3098 	ldr.w	r3, [r7, #152]	@ 0x98
 8007d5a:	67fb      	str	r3, [r7, #124]	@ 0x7c
 8007d5c:	67ba      	str	r2, [r7, #120]	@ 0x78
 8007d5e:	6fb9      	ldr	r1, [r7, #120]	@ 0x78
 8007d60:	6ffa      	ldr	r2, [r7, #124]	@ 0x7c
 8007d62:	e841 2300 	strex	r3, r2, [r1]
 8007d66:	677b      	str	r3, [r7, #116]	@ 0x74
 8007d68:	6f7b      	ldr	r3, [r7, #116]	@ 0x74
 8007d6a:	2b00      	cmp	r3, #0
 8007d6c:	d1e4      	bne.n	8007d38 <UART_RxISR_8BIT_FIFOEN+0x150>
 8007d6e:	687b      	ldr	r3, [r7, #4]
 8007d70:	681b      	ldr	r3, [r3, #0]
 8007d72:	3308      	adds	r3, #8
 8007d74:	65fb      	str	r3, [r7, #92]	@ 0x5c
 8007d76:	6dfb      	ldr	r3, [r7, #92]	@ 0x5c
 8007d78:	e853 3f00 	ldrex	r3, [r3]
 8007d7c:	65bb      	str	r3, [r7, #88]	@ 0x58
 8007d7e:	6dbb      	ldr	r3, [r7, #88]	@ 0x58
 8007d80:	f023 5380 	bic.w	r3, r3, #268435456	@ 0x10000000
 8007d84:	f023 0301 	bic.w	r3, r3, #1
 8007d88:	f8c7 3094 	str.w	r3, [r7, #148]	@ 0x94
 8007d8c:	687b      	ldr	r3, [r7, #4]
 8007d8e:	681b      	ldr	r3, [r3, #0]
 8007d90:	3308      	adds	r3, #8
 8007d92:	f8d7 2094 	ldr.w	r2, [r7, #148]	@ 0x94
 8007d96:	66ba      	str	r2, [r7, #104]	@ 0x68
 8007d98:	667b      	str	r3, [r7, #100]	@ 0x64
 8007d9a:	6e79      	ldr	r1, [r7, #100]	@ 0x64
 8007d9c:	6eba      	ldr	r2, [r7, #104]	@ 0x68
 8007d9e:	e841 2300 	strex	r3, r2, [r1]
 8007da2:	663b      	str	r3, [r7, #96]	@ 0x60
 8007da4:	6e3b      	ldr	r3, [r7, #96]	@ 0x60
 8007da6:	2b00      	cmp	r3, #0
 8007da8:	d1e1      	bne.n	8007d6e <UART_RxISR_8BIT_FIFOEN+0x186>
 8007daa:	687b      	ldr	r3, [r7, #4]
 8007dac:	2220      	movs	r2, #32
 8007dae:	f8c3 208c 	str.w	r2, [r3, #140]	@ 0x8c
 8007db2:	687b      	ldr	r3, [r7, #4]
 8007db4:	2200      	movs	r2, #0
 8007db6:	675a      	str	r2, [r3, #116]	@ 0x74
 8007db8:	687b      	ldr	r3, [r7, #4]
 8007dba:	2200      	movs	r2, #0
 8007dbc:	671a      	str	r2, [r3, #112]	@ 0x70
 8007dbe:	687b      	ldr	r3, [r7, #4]
 8007dc0:	681b      	ldr	r3, [r3, #0]
 8007dc2:	4a60      	ldr	r2, [pc, #384]	@ (8007f44 <UART_RxISR_8BIT_FIFOEN+0x35c>)
 8007dc4:	4293      	cmp	r3, r2
 8007dc6:	d021      	beq.n	8007e0c <UART_RxISR_8BIT_FIFOEN+0x224>
 8007dc8:	687b      	ldr	r3, [r7, #4]
 8007dca:	681b      	ldr	r3, [r3, #0]
 8007dcc:	685b      	ldr	r3, [r3, #4]
 8007dce:	f403 0300 	and.w	r3, r3, #8388608	@ 0x800000
 8007dd2:	2b00      	cmp	r3, #0
 8007dd4:	d01a      	beq.n	8007e0c <UART_RxISR_8BIT_FIFOEN+0x224>
 8007dd6:	687b      	ldr	r3, [r7, #4]
 8007dd8:	681b      	ldr	r3, [r3, #0]
 8007dda:	64bb      	str	r3, [r7, #72]	@ 0x48
 8007ddc:	6cbb      	ldr	r3, [r7, #72]	@ 0x48
 8007dde:	e853 3f00 	ldrex	r3, [r3]
 8007de2:	647b      	str	r3, [r7, #68]	@ 0x44
 8007de4:	6c7b      	ldr	r3, [r7, #68]	@ 0x44
 8007de6:	f023 6380 	bic.w	r3, r3, #67108864	@ 0x4000000
 8007dea:	f8c7 3090 	str.w	r3, [r7, #144]	@ 0x90
 8007dee:	687b      	ldr	r3, [r7, #4]
 8007df0:	681b      	ldr	r3, [r3, #0]
 8007df2:	461a      	mov	r2, r3
 8007df4:	f8d7 3090 	ldr.w	r3, [r7, #144]	@ 0x90
 8007df8:	657b      	str	r3, [r7, #84]	@ 0x54
 8007dfa:	653a      	str	r2, [r7, #80]	@ 0x50
 8007dfc:	6d39      	ldr	r1, [r7, #80]	@ 0x50
 8007dfe:	6d7a      	ldr	r2, [r7, #84]	@ 0x54
 8007e00:	e841 2300 	strex	r3, r2, [r1]
 8007e04:	64fb      	str	r3, [r7, #76]	@ 0x4c
 8007e06:	6cfb      	ldr	r3, [r7, #76]	@ 0x4c
 8007e08:	2b00      	cmp	r3, #0
 8007e0a:	d1e4      	bne.n	8007dd6 <UART_RxISR_8BIT_FIFOEN+0x1ee>
 8007e0c:	687b      	ldr	r3, [r7, #4]
 8007e0e:	6edb      	ldr	r3, [r3, #108]	@ 0x6c
 8007e10:	2b01      	cmp	r3, #1
 8007e12:	d130      	bne.n	8007e76 <UART_RxISR_8BIT_FIFOEN+0x28e>
 8007e14:	687b      	ldr	r3, [r7, #4]
 8007e16:	2200      	movs	r2, #0
 8007e18:	66da      	str	r2, [r3, #108]	@ 0x6c
 8007e1a:	687b      	ldr	r3, [r7, #4]
 8007e1c:	681b      	ldr	r3, [r3, #0]
 8007e1e:	637b      	str	r3, [r7, #52]	@ 0x34
 8007e20:	6b7b      	ldr	r3, [r7, #52]	@ 0x34
 8007e22:	e853 3f00 	ldrex	r3, [r3]
 8007e26:	633b      	str	r3, [r7, #48]	@ 0x30
 8007e28:	6b3b      	ldr	r3, [r7, #48]	@ 0x30
 8007e2a:	f023 0310 	bic.w	r3, r3, #16
 8007e2e:	f8c7 308c 	str.w	r3, [r7, #140]	@ 0x8c
 8007e32:	687b      	ldr	r3, [r7, #4]
 8007e34:	681b      	ldr	r3, [r3, #0]
 8007e36:	461a      	mov	r2, r3
 8007e38:	f8d7 308c 	ldr.w	r3, [r7, #140]	@ 0x8c
 8007e3c:	643b      	str	r3, [r7, #64]	@ 0x40
 8007e3e:	63fa      	str	r2, [r7, #60]	@ 0x3c
 8007e40:	6bf9      	ldr	r1, [r7, #60]	@ 0x3c
 8007e42:	6c3a      	ldr	r2, [r7, #64]	@ 0x40
 8007e44:	e841 2300 	strex	r3, r2, [r1]
 8007e48:	63bb      	str	r3, [r7, #56]	@ 0x38
 8007e4a:	6bbb      	ldr	r3, [r7, #56]	@ 0x38
 8007e4c:	2b00      	cmp	r3, #0
 8007e4e:	d1e4      	bne.n	8007e1a <UART_RxISR_8BIT_FIFOEN+0x232>
 8007e50:	687b      	ldr	r3, [r7, #4]
 8007e52:	681b      	ldr	r3, [r3, #0]
 8007e54:	69db      	ldr	r3, [r3, #28]
 8007e56:	f003 0310 	and.w	r3, r3, #16
 8007e5a:	2b10      	cmp	r3, #16
 8007e5c:	d103      	bne.n	8007e66 <UART_RxISR_8BIT_FIFOEN+0x27e>
 8007e5e:	687b      	ldr	r3, [r7, #4]
 8007e60:	681b      	ldr	r3, [r3, #0]
 8007e62:	2210      	movs	r2, #16
 8007e64:	621a      	str	r2, [r3, #32]
 8007e66:	687b      	ldr	r3, [r7, #4]
 8007e68:	f8b3 305c 	ldrh.w	r3, [r3, #92]	@ 0x5c
 8007e6c:	4619      	mov	r1, r3
 8007e6e:	6878      	ldr	r0, [r7, #4]
 8007e70:	f7fe fe7a 	bl	8006b68 <HAL_UARTEx_RxEventCallback>
 8007e74:	e00e      	b.n	8007e94 <UART_RxISR_8BIT_FIFOEN+0x2ac>
 8007e76:	6878      	ldr	r0, [r7, #4]
 8007e78:	f7fa f920 	bl	80020bc <HAL_UART_RxCpltCallback>
 8007e7c:	e00a      	b.n	8007e94 <UART_RxISR_8BIT_FIFOEN+0x2ac>
 8007e7e:	f8b7 309e 	ldrh.w	r3, [r7, #158]	@ 0x9e
 8007e82:	2b00      	cmp	r3, #0
 8007e84:	d006      	beq.n	8007e94 <UART_RxISR_8BIT_FIFOEN+0x2ac>
 8007e86:	f8d7 30ac 	ldr.w	r3, [r7, #172]	@ 0xac
 8007e8a:	f003 0320 	and.w	r3, r3, #32
 8007e8e:	2b00      	cmp	r3, #0
 8007e90:	f47f aece 	bne.w	8007c30 <UART_RxISR_8BIT_FIFOEN+0x48>
 8007e94:	687b      	ldr	r3, [r7, #4]
 8007e96:	f8b3 305e 	ldrh.w	r3, [r3, #94]	@ 0x5e
 8007e9a:	f8a7 308a 	strh.w	r3, [r7, #138]	@ 0x8a
 8007e9e:	f8b7 308a 	ldrh.w	r3, [r7, #138]	@ 0x8a
 8007ea2:	2b00      	cmp	r3, #0
 8007ea4:	d049      	beq.n	8007f3a <UART_RxISR_8BIT_FIFOEN+0x352>
 8007ea6:	687b      	ldr	r3, [r7, #4]
 8007ea8:	f8b3 3068 	ldrh.w	r3, [r3, #104]	@ 0x68
 8007eac:	f8b7 208a 	ldrh.w	r2, [r7, #138]	@ 0x8a
 8007eb0:	429a      	cmp	r2, r3
 8007eb2:	d242      	bcs.n	8007f3a <UART_RxISR_8BIT_FIFOEN+0x352>
 8007eb4:	687b      	ldr	r3, [r7, #4]
 8007eb6:	681b      	ldr	r3, [r3, #0]
 8007eb8:	3308      	adds	r3, #8
 8007eba:	623b      	str	r3, [r7, #32]
 8007ebc:	6a3b      	ldr	r3, [r7, #32]
 8007ebe:	e853 3f00 	ldrex	r3, [r3]
 8007ec2:	61fb      	str	r3, [r7, #28]
 8007ec4:	69fb      	ldr	r3, [r7, #28]
 8007ec6:	f023 5380 	bic.w	r3, r3, #268435456	@ 0x10000000
 8007eca:	f8c7 3084 	str.w	r3, [r7, #132]	@ 0x84
 8007ece:	687b      	ldr	r3, [r7, #4]
 8007ed0:	681b      	ldr	r3, [r3, #0]
 8007ed2:	3308      	adds	r3, #8
 8007ed4:	f8d7 2084 	ldr.w	r2, [r7, #132]	@ 0x84
 8007ed8:	62fa      	str	r2, [r7, #44]	@ 0x2c
 8007eda:	62bb      	str	r3, [r7, #40]	@ 0x28
 8007edc:	6ab9      	ldr	r1, [r7, #40]	@ 0x28
 8007ede:	6afa      	ldr	r2, [r7, #44]	@ 0x2c
 8007ee0:	e841 2300 	strex	r3, r2, [r1]
 8007ee4:	627b      	str	r3, [r7, #36]	@ 0x24
 8007ee6:	6a7b      	ldr	r3, [r7, #36]	@ 0x24
 8007ee8:	2b00      	cmp	r3, #0
 8007eea:	d1e3      	bne.n	8007eb4 <UART_RxISR_8BIT_FIFOEN+0x2cc>
 8007eec:	687b      	ldr	r3, [r7, #4]
 8007eee:	4a16      	ldr	r2, [pc, #88]	@ (8007f48 <UART_RxISR_8BIT_FIFOEN+0x360>)
 8007ef0:	675a      	str	r2, [r3, #116]	@ 0x74
 8007ef2:	687b      	ldr	r3, [r7, #4]
 8007ef4:	681b      	ldr	r3, [r3, #0]
 8007ef6:	60fb      	str	r3, [r7, #12]
 8007ef8:	68fb      	ldr	r3, [r7, #12]
 8007efa:	e853 3f00 	ldrex	r3, [r3]
 8007efe:	60bb      	str	r3, [r7, #8]
 8007f00:	68bb      	ldr	r3, [r7, #8]
 8007f02:	f043 0320 	orr.w	r3, r3, #32
 8007f06:	f8c7 3080 	str.w	r3, [r7, #128]	@ 0x80
 8007f0a:	687b      	ldr	r3, [r7, #4]
 8007f0c:	681b      	ldr	r3, [r3, #0]
 8007f0e:	461a      	mov	r2, r3
 8007f10:	f8d7 3080 	ldr.w	r3, [r7, #128]	@ 0x80
 8007f14:	61bb      	str	r3, [r7, #24]
 8007f16:	617a      	str	r2, [r7, #20]
 8007f18:	6979      	ldr	r1, [r7, #20]
 8007f1a:	69ba      	ldr	r2, [r7, #24]
 8007f1c:	e841 2300 	strex	r3, r2, [r1]
 8007f20:	613b      	str	r3, [r7, #16]
 8007f22:	693b      	ldr	r3, [r7, #16]
 8007f24:	2b00      	cmp	r3, #0
 8007f26:	d1e4      	bne.n	8007ef2 <UART_RxISR_8BIT_FIFOEN+0x30a>
 8007f28:	e007      	b.n	8007f3a <UART_RxISR_8BIT_FIFOEN+0x352>
 8007f2a:	687b      	ldr	r3, [r7, #4]
 8007f2c:	681b      	ldr	r3, [r3, #0]
 8007f2e:	699a      	ldr	r2, [r3, #24]
 8007f30:	687b      	ldr	r3, [r7, #4]
 8007f32:	681b      	ldr	r3, [r3, #0]
 8007f34:	f042 0208 	orr.w	r2, r2, #8
 8007f38:	619a      	str	r2, [r3, #24]
 8007f3a:	bf00      	nop
 8007f3c:	37b0      	adds	r7, #176	@ 0xb0
 8007f3e:	46bd      	mov	sp, r7
 8007f40:	bd80      	pop	{r7, pc}
 8007f42:	bf00      	nop
 8007f44:	40008000 	.word	0x40008000
 8007f48:	08007879 	.word	0x08007879

08007f4c <UART_RxISR_16BIT_FIFOEN>:
 8007f4c:	b580      	push	{r7, lr}
 8007f4e:	b0ae      	sub	sp, #184	@ 0xb8
 8007f50:	af00      	add	r7, sp, #0
 8007f52:	6078      	str	r0, [r7, #4]
 8007f54:	687b      	ldr	r3, [r7, #4]
 8007f56:	f8b3 3060 	ldrh.w	r3, [r3, #96]	@ 0x60
 8007f5a:	f8a7 30b2 	strh.w	r3, [r7, #178]	@ 0xb2
 8007f5e:	687b      	ldr	r3, [r7, #4]
 8007f60:	681b      	ldr	r3, [r3, #0]
 8007f62:	69db      	ldr	r3, [r3, #28]
 8007f64:	f8c7 30b4 	str.w	r3, [r7, #180]	@ 0xb4
 8007f68:	687b      	ldr	r3, [r7, #4]
 8007f6a:	681b      	ldr	r3, [r3, #0]
 8007f6c:	681b      	ldr	r3, [r3, #0]
 8007f6e:	f8c7 30ac 	str.w	r3, [r7, #172]	@ 0xac
 8007f72:	687b      	ldr	r3, [r7, #4]
 8007f74:	681b      	ldr	r3, [r3, #0]
 8007f76:	689b      	ldr	r3, [r3, #8]
 8007f78:	f8c7 30a8 	str.w	r3, [r7, #168]	@ 0xa8
 8007f7c:	687b      	ldr	r3, [r7, #4]
 8007f7e:	f8d3 308c 	ldr.w	r3, [r3, #140]	@ 0x8c
 8007f82:	2b22      	cmp	r3, #34	@ 0x22
 8007f84:	f040 8187 	bne.w	8008296 <UART_RxISR_16BIT_FIFOEN+0x34a>
 8007f88:	687b      	ldr	r3, [r7, #4]
 8007f8a:	f8b3 3068 	ldrh.w	r3, [r3, #104]	@ 0x68
 8007f8e:	f8a7 30a6 	strh.w	r3, [r7, #166]	@ 0xa6
 8007f92:	e12a      	b.n	80081ea <UART_RxISR_16BIT_FIFOEN+0x29e>
 8007f94:	687b      	ldr	r3, [r7, #4]
 8007f96:	681b      	ldr	r3, [r3, #0]
 8007f98:	6a5b      	ldr	r3, [r3, #36]	@ 0x24
 8007f9a:	f8a7 30a4 	strh.w	r3, [r7, #164]	@ 0xa4
 8007f9e:	687b      	ldr	r3, [r7, #4]
 8007fa0:	6d9b      	ldr	r3, [r3, #88]	@ 0x58
 8007fa2:	f8c7 30a0 	str.w	r3, [r7, #160]	@ 0xa0
 8007fa6:	f8b7 20a4 	ldrh.w	r2, [r7, #164]	@ 0xa4
 8007faa:	f8b7 30b2 	ldrh.w	r3, [r7, #178]	@ 0xb2
 8007fae:	4013      	ands	r3, r2
 8007fb0:	b29a      	uxth	r2, r3
 8007fb2:	f8d7 30a0 	ldr.w	r3, [r7, #160]	@ 0xa0
 8007fb6:	801a      	strh	r2, [r3, #0]
 8007fb8:	687b      	ldr	r3, [r7, #4]
 8007fba:	6d9b      	ldr	r3, [r3, #88]	@ 0x58
 8007fbc:	1c9a      	adds	r2, r3, #2
 8007fbe:	687b      	ldr	r3, [r7, #4]
 8007fc0:	659a      	str	r2, [r3, #88]	@ 0x58
 8007fc2:	687b      	ldr	r3, [r7, #4]
 8007fc4:	f8b3 305e 	ldrh.w	r3, [r3, #94]	@ 0x5e
 8007fc8:	b29b      	uxth	r3, r3
 8007fca:	3b01      	subs	r3, #1
 8007fcc:	b29a      	uxth	r2, r3
 8007fce:	687b      	ldr	r3, [r7, #4]
 8007fd0:	f8a3 205e 	strh.w	r2, [r3, #94]	@ 0x5e
 8007fd4:	687b      	ldr	r3, [r7, #4]
 8007fd6:	681b      	ldr	r3, [r3, #0]
 8007fd8:	69db      	ldr	r3, [r3, #28]
 8007fda:	f8c7 30b4 	str.w	r3, [r7, #180]	@ 0xb4
 8007fde:	f8d7 30b4 	ldr.w	r3, [r7, #180]	@ 0xb4
 8007fe2:	f003 0307 	and.w	r3, r3, #7
 8007fe6:	2b00      	cmp	r3, #0
 8007fe8:	d053      	beq.n	8008092 <UART_RxISR_16BIT_FIFOEN+0x146>
 8007fea:	f8d7 30b4 	ldr.w	r3, [r7, #180]	@ 0xb4
 8007fee:	f003 0301 	and.w	r3, r3, #1
 8007ff2:	2b00      	cmp	r3, #0
 8007ff4:	d011      	beq.n	800801a <UART_RxISR_16BIT_FIFOEN+0xce>
 8007ff6:	f8d7 30ac 	ldr.w	r3, [r7, #172]	@ 0xac
 8007ffa:	f403 7380 	and.w	r3, r3, #256	@ 0x100
 8007ffe:	2b00      	cmp	r3, #0
 8008000:	d00b      	beq.n	800801a <UART_RxISR_16BIT_FIFOEN+0xce>
 8008002:	687b      	ldr	r3, [r7, #4]
 8008004:	681b      	ldr	r3, [r3, #0]
 8008006:	2201      	movs	r2, #1
 8008008:	621a      	str	r2, [r3, #32]
 800800a:	687b      	ldr	r3, [r7, #4]
 800800c:	f8d3 3090 	ldr.w	r3, [r3, #144]	@ 0x90
 8008010:	f043 0201 	orr.w	r2, r3, #1
 8008014:	687b      	ldr	r3, [r7, #4]
 8008016:	f8c3 2090 	str.w	r2, [r3, #144]	@ 0x90
 800801a:	f8d7 30b4 	ldr.w	r3, [r7, #180]	@ 0xb4
 800801e:	f003 0302 	and.w	r3, r3, #2
 8008022:	2b00      	cmp	r3, #0
 8008024:	d011      	beq.n	800804a <UART_RxISR_16BIT_FIFOEN+0xfe>
 8008026:	f8d7 30a8 	ldr.w	r3, [r7, #168]	@ 0xa8
 800802a:	f003 0301 	and.w	r3, r3, #1
 800802e:	2b00      	cmp	r3, #0
 8008030:	d00b      	beq.n	800804a <UART_RxISR_16BIT_FIFOEN+0xfe>
 8008032:	687b      	ldr	r3, [r7, #4]
 8008034:	681b      	ldr	r3, [r3, #0]
 8008036:	2202      	movs	r2, #2
 8008038:	621a      	str	r2, [r3, #32]
 800803a:	687b      	ldr	r3, [r7, #4]
 800803c:	f8d3 3090 	ldr.w	r3, [r3, #144]	@ 0x90
 8008040:	f043 0204 	orr.w	r2, r3, #4
 8008044:	687b      	ldr	r3, [r7, #4]
 8008046:	f8c3 2090 	str.w	r2, [r3, #144]	@ 0x90
 800804a:	f8d7 30b4 	ldr.w	r3, [r7, #180]	@ 0xb4
 800804e:	f003 0304 	and.w	r3, r3, #4
 8008052:	2b00      	cmp	r3, #0
 8008054:	d011      	beq.n	800807a <UART_RxISR_16BIT_FIFOEN+0x12e>
 8008056:	f8d7 30a8 	ldr.w	r3, [r7, #168]	@ 0xa8
 800805a:	f003 0301 	and.w	r3, r3, #1
 800805e:	2b00      	cmp	r3, #0
 8008060:	d00b      	beq.n	800807a <UART_RxISR_16BIT_FIFOEN+0x12e>
 8008062:	687b      	ldr	r3, [r7, #4]
 8008064:	681b      	ldr	r3, [r3, #0]
 8008066:	2204      	movs	r2, #4
 8008068:	621a      	str	r2, [r3, #32]
 800806a:	687b      	ldr	r3, [r7, #4]
 800806c:	f8d3 3090 	ldr.w	r3, [r3, #144]	@ 0x90
 8008070:	f043 0202 	orr.w	r2, r3, #2
 8008074:	687b      	ldr	r3, [r7, #4]
 8008076:	f8c3 2090 	str.w	r2, [r3, #144]	@ 0x90
 800807a:	687b      	ldr	r3, [r7, #4]
 800807c:	f8d3 3090 	ldr.w	r3, [r3, #144]	@ 0x90
 8008080:	2b00      	cmp	r3, #0
 8008082:	d006      	beq.n	8008092 <UART_RxISR_16BIT_FIFOEN+0x146>
 8008084:	6878      	ldr	r0, [r7, #4]
 8008086:	f7fe fd65 	bl	8006b54 <HAL_UART_ErrorCallback>
 800808a:	687b      	ldr	r3, [r7, #4]
 800808c:	2200      	movs	r2, #0
 800808e:	f8c3 2090 	str.w	r2, [r3, #144]	@ 0x90
 8008092:	687b      	ldr	r3, [r7, #4]
 8008094:	f8b3 305e 	ldrh.w	r3, [r3, #94]	@ 0x5e
 8008098:	b29b      	uxth	r3, r3
 800809a:	2b00      	cmp	r3, #0
 800809c:	f040 80a5 	bne.w	80081ea <UART_RxISR_16BIT_FIFOEN+0x29e>
 80080a0:	687b      	ldr	r3, [r7, #4]
 80080a2:	681b      	ldr	r3, [r3, #0]
 80080a4:	677b      	str	r3, [r7, #116]	@ 0x74
 80080a6:	6f7b      	ldr	r3, [r7, #116]	@ 0x74
 80080a8:	e853 3f00 	ldrex	r3, [r3]
 80080ac:	673b      	str	r3, [r7, #112]	@ 0x70
 80080ae:	6f3b      	ldr	r3, [r7, #112]	@ 0x70
 80080b0:	f423 7380 	bic.w	r3, r3, #256	@ 0x100
 80080b4:	f8c7 309c 	str.w	r3, [r7, #156]	@ 0x9c
 80080b8:	687b      	ldr	r3, [r7, #4]
 80080ba:	681b      	ldr	r3, [r3, #0]
 80080bc:	461a      	mov	r2, r3
 80080be:	f8d7 309c 	ldr.w	r3, [r7, #156]	@ 0x9c
 80080c2:	f8c7 3080 	str.w	r3, [r7, #128]	@ 0x80
 80080c6:	67fa      	str	r2, [r7, #124]	@ 0x7c
 80080c8:	6ff9      	ldr	r1, [r7, #124]	@ 0x7c
 80080ca:	f8d7 2080 	ldr.w	r2, [r7, #128]	@ 0x80
 80080ce:	e841 2300 	strex	r3, r2, [r1]
 80080d2:	67bb      	str	r3, [r7, #120]	@ 0x78
 80080d4:	6fbb      	ldr	r3, [r7, #120]	@ 0x78
 80080d6:	2b00      	cmp	r3, #0
 80080d8:	d1e2      	bne.n	80080a0 <UART_RxISR_16BIT_FIFOEN+0x154>
 80080da:	687b      	ldr	r3, [r7, #4]
 80080dc:	681b      	ldr	r3, [r3, #0]
 80080de:	3308      	adds	r3, #8
 80080e0:	663b      	str	r3, [r7, #96]	@ 0x60
 80080e2:	6e3b      	ldr	r3, [r7, #96]	@ 0x60
 80080e4:	e853 3f00 	ldrex	r3, [r3]
 80080e8:	65fb      	str	r3, [r7, #92]	@ 0x5c
 80080ea:	6dfb      	ldr	r3, [r7, #92]	@ 0x5c
 80080ec:	f023 5380 	bic.w	r3, r3, #268435456	@ 0x10000000
 80080f0:	f023 0301 	bic.w	r3, r3, #1
 80080f4:	f8c7 3098 	str.w	r3, [r7, #152]	@ 0x98
 80080f8:	687b      	ldr	r3, [r7, #4]
 80080fa:	681b      	ldr	r3, [r3, #0]
 80080fc:	3308      	adds	r3, #8
 80080fe:	f8d7 2098 	ldr.w	r2, [r7, #152]	@ 0x98
 8008102:	66fa      	str	r2, [r7, #108]	@ 0x6c
 8008104:	66bb      	str	r3, [r7, #104]	@ 0x68
 8008106:	6eb9      	ldr	r1, [r7, #104]	@ 0x68
 8008108:	6efa      	ldr	r2, [r7, #108]	@ 0x6c
 800810a:	e841 2300 	strex	r3, r2, [r1]
 800810e:	667b      	str	r3, [r7, #100]	@ 0x64
 8008110:	6e7b      	ldr	r3, [r7, #100]	@ 0x64
 8008112:	2b00      	cmp	r3, #0
 8008114:	d1e1      	bne.n	80080da <UART_RxISR_16BIT_FIFOEN+0x18e>
 8008116:	687b      	ldr	r3, [r7, #4]
 8008118:	2220      	movs	r2, #32
 800811a:	f8c3 208c 	str.w	r2, [r3, #140]	@ 0x8c
 800811e:	687b      	ldr	r3, [r7, #4]
 8008120:	2200      	movs	r2, #0
 8008122:	675a      	str	r2, [r3, #116]	@ 0x74
 8008124:	687b      	ldr	r3, [r7, #4]
 8008126:	2200      	movs	r2, #0
 8008128:	671a      	str	r2, [r3, #112]	@ 0x70
 800812a:	687b      	ldr	r3, [r7, #4]
 800812c:	681b      	ldr	r3, [r3, #0]
 800812e:	4a60      	ldr	r2, [pc, #384]	@ (80082b0 <UART_RxISR_16BIT_FIFOEN+0x364>)
 8008130:	4293      	cmp	r3, r2
 8008132:	d021      	beq.n	8008178 <UART_RxISR_16BIT_FIFOEN+0x22c>
 8008134:	687b      	ldr	r3, [r7, #4]
 8008136:	681b      	ldr	r3, [r3, #0]
 8008138:	685b      	ldr	r3, [r3, #4]
 800813a:	f403 0300 	and.w	r3, r3, #8388608	@ 0x800000
 800813e:	2b00      	cmp	r3, #0
 8008140:	d01a      	beq.n	8008178 <UART_RxISR_16BIT_FIFOEN+0x22c>
 8008142:	687b      	ldr	r3, [r7, #4]
 8008144:	681b      	ldr	r3, [r3, #0]
 8008146:	64fb      	str	r3, [r7, #76]	@ 0x4c
 8008148:	6cfb      	ldr	r3, [r7, #76]	@ 0x4c
 800814a:	e853 3f00 	ldrex	r3, [r3]
 800814e:	64bb      	str	r3, [r7, #72]	@ 0x48
 8008150:	6cbb      	ldr	r3, [r7, #72]	@ 0x48
 8008152:	f023 6380 	bic.w	r3, r3, #67108864	@ 0x4000000
 8008156:	f8c7 3094 	str.w	r3, [r7, #148]	@ 0x94
 800815a:	687b      	ldr	r3, [r7, #4]
 800815c:	681b      	ldr	r3, [r3, #0]
 800815e:	461a      	mov	r2, r3
 8008160:	f8d7 3094 	ldr.w	r3, [r7, #148]	@ 0x94
 8008164:	65bb      	str	r3, [r7, #88]	@ 0x58
 8008166:	657a      	str	r2, [r7, #84]	@ 0x54
 8008168:	6d79      	ldr	r1, [r7, #84]	@ 0x54
 800816a:	6dba      	ldr	r2, [r7, #88]	@ 0x58
 800816c:	e841 2300 	strex	r3, r2, [r1]
 8008170:	653b      	str	r3, [r7, #80]	@ 0x50
 8008172:	6d3b      	ldr	r3, [r7, #80]	@ 0x50
 8008174:	2b00      	cmp	r3, #0
 8008176:	d1e4      	bne.n	8008142 <UART_RxISR_16BIT_FIFOEN+0x1f6>
 8008178:	687b      	ldr	r3, [r7, #4]
 800817a:	6edb      	ldr	r3, [r3, #108]	@ 0x6c
 800817c:	2b01      	cmp	r3, #1
 800817e:	d130      	bne.n	80081e2 <UART_RxISR_16BIT_FIFOEN+0x296>
 8008180:	687b      	ldr	r3, [r7, #4]
 8008182:	2200      	movs	r2, #0
 8008184:	66da      	str	r2, [r3, #108]	@ 0x6c
 8008186:	687b      	ldr	r3, [r7, #4]
 8008188:	681b      	ldr	r3, [r3, #0]
 800818a:	63bb      	str	r3, [r7, #56]	@ 0x38
 800818c:	6bbb      	ldr	r3, [r7, #56]	@ 0x38
 800818e:	e853 3f00 	ldrex	r3, [r3]
 8008192:	637b      	str	r3, [r7, #52]	@ 0x34
 8008194:	6b7b      	ldr	r3, [r7, #52]	@ 0x34
 8008196:	f023 0310 	bic.w	r3, r3, #16
 800819a:	f8c7 3090 	str.w	r3, [r7, #144]	@ 0x90
 800819e:	687b      	ldr	r3, [r7, #4]
 80081a0:	681b      	ldr	r3, [r3, #0]
 80081a2:	461a      	mov	r2, r3
 80081a4:	f8d7 3090 	ldr.w	r3, [r7, #144]	@ 0x90
 80081a8:	647b      	str	r3, [r7, #68]	@ 0x44
 80081aa:	643a      	str	r2, [r7, #64]	@ 0x40
 80081ac:	6c39      	ldr	r1, [r7, #64]	@ 0x40
 80081ae:	6c7a      	ldr	r2, [r7, #68]	@ 0x44
 80081b0:	e841 2300 	strex	r3, r2, [r1]
 80081b4:	63fb      	str	r3, [r7, #60]	@ 0x3c
 80081b6:	6bfb      	ldr	r3, [r7, #60]	@ 0x3c
 80081b8:	2b00      	cmp	r3, #0
 80081ba:	d1e4      	bne.n	8008186 <UART_RxISR_16BIT_FIFOEN+0x23a>
 80081bc:	687b      	ldr	r3, [r7, #4]
 80081be:	681b      	ldr	r3, [r3, #0]
 80081c0:	69db      	ldr	r3, [r3, #28]
 80081c2:	f003 0310 	and.w	r3, r3, #16
 80081c6:	2b10      	cmp	r3, #16
 80081c8:	d103      	bne.n	80081d2 <UART_RxISR_16BIT_FIFOEN+0x286>
 80081ca:	687b      	ldr	r3, [r7, #4]
 80081cc:	681b      	ldr	r3, [r3, #0]
 80081ce:	2210      	movs	r2, #16
 80081d0:	621a      	str	r2, [r3, #32]
 80081d2:	687b      	ldr	r3, [r7, #4]
 80081d4:	f8b3 305c 	ldrh.w	r3, [r3, #92]	@ 0x5c
 80081d8:	4619      	mov	r1, r3
 80081da:	6878      	ldr	r0, [r7, #4]
 80081dc:	f7fe fcc4 	bl	8006b68 <HAL_UARTEx_RxEventCallback>
 80081e0:	e00e      	b.n	8008200 <UART_RxISR_16BIT_FIFOEN+0x2b4>
 80081e2:	6878      	ldr	r0, [r7, #4]
 80081e4:	f7f9 ff6a 	bl	80020bc <HAL_UART_RxCpltCallback>
 80081e8:	e00a      	b.n	8008200 <UART_RxISR_16BIT_FIFOEN+0x2b4>
 80081ea:	f8b7 30a6 	ldrh.w	r3, [r7, #166]	@ 0xa6
 80081ee:	2b00      	cmp	r3, #0
 80081f0:	d006      	beq.n	8008200 <UART_RxISR_16BIT_FIFOEN+0x2b4>
 80081f2:	f8d7 30b4 	ldr.w	r3, [r7, #180]	@ 0xb4
 80081f6:	f003 0320 	and.w	r3, r3, #32
 80081fa:	2b00      	cmp	r3, #0
 80081fc:	f47f aeca 	bne.w	8007f94 <UART_RxISR_16BIT_FIFOEN+0x48>
 8008200:	687b      	ldr	r3, [r7, #4]
 8008202:	f8b3 305e 	ldrh.w	r3, [r3, #94]	@ 0x5e
 8008206:	f8a7 308e 	strh.w	r3, [r7, #142]	@ 0x8e
 800820a:	f8b7 308e 	ldrh.w	r3, [r7, #142]	@ 0x8e
 800820e:	2b00      	cmp	r3, #0
 8008210:	d049      	beq.n	80082a6 <UART_RxISR_16BIT_FIFOEN+0x35a>
 8008212:	687b      	ldr	r3, [r7, #4]
 8008214:	f8b3 3068 	ldrh.w	r3, [r3, #104]	@ 0x68
 8008218:	f8b7 208e 	ldrh.w	r2, [r7, #142]	@ 0x8e
 800821c:	429a      	cmp	r2, r3
 800821e:	d242      	bcs.n	80082a6 <UART_RxISR_16BIT_FIFOEN+0x35a>
 8008220:	687b      	ldr	r3, [r7, #4]
 8008222:	681b      	ldr	r3, [r3, #0]
 8008224:	3308      	adds	r3, #8
 8008226:	627b      	str	r3, [r7, #36]	@ 0x24
 8008228:	6a7b      	ldr	r3, [r7, #36]	@ 0x24
 800822a:	e853 3f00 	ldrex	r3, [r3]
 800822e:	623b      	str	r3, [r7, #32]
 8008230:	6a3b      	ldr	r3, [r7, #32]
 8008232:	f023 5380 	bic.w	r3, r3, #268435456	@ 0x10000000
 8008236:	f8c7 3088 	str.w	r3, [r7, #136]	@ 0x88
 800823a:	687b      	ldr	r3, [r7, #4]
 800823c:	681b      	ldr	r3, [r3, #0]
 800823e:	3308      	adds	r3, #8
 8008240:	f8d7 2088 	ldr.w	r2, [r7, #136]	@ 0x88
 8008244:	633a      	str	r2, [r7, #48]	@ 0x30
 8008246:	62fb      	str	r3, [r7, #44]	@ 0x2c
 8008248:	6af9      	ldr	r1, [r7, #44]	@ 0x2c
 800824a:	6b3a      	ldr	r2, [r7, #48]	@ 0x30
 800824c:	e841 2300 	strex	r3, r2, [r1]
 8008250:	62bb      	str	r3, [r7, #40]	@ 0x28
 8008252:	6abb      	ldr	r3, [r7, #40]	@ 0x28
 8008254:	2b00      	cmp	r3, #0
 8008256:	d1e3      	bne.n	8008220 <UART_RxISR_16BIT_FIFOEN+0x2d4>
 8008258:	687b      	ldr	r3, [r7, #4]
 800825a:	4a16      	ldr	r2, [pc, #88]	@ (80082b4 <UART_RxISR_16BIT_FIFOEN+0x368>)
 800825c:	675a      	str	r2, [r3, #116]	@ 0x74
 800825e:	687b      	ldr	r3, [r7, #4]
 8008260:	681b      	ldr	r3, [r3, #0]
 8008262:	613b      	str	r3, [r7, #16]
 8008264:	693b      	ldr	r3, [r7, #16]
 8008266:	e853 3f00 	ldrex	r3, [r3]
 800826a:	60fb      	str	r3, [r7, #12]
 800826c:	68fb      	ldr	r3, [r7, #12]
 800826e:	f043 0320 	orr.w	r3, r3, #32
 8008272:	f8c7 3084 	str.w	r3, [r7, #132]	@ 0x84
 8008276:	687b      	ldr	r3, [r7, #4]
 8008278:	681b      	ldr	r3, [r3, #0]
 800827a:	461a      	mov	r2, r3
 800827c:	f8d7 3084 	ldr.w	r3, [r7, #132]	@ 0x84
 8008280:	61fb      	str	r3, [r7, #28]
 8008282:	61ba      	str	r2, [r7, #24]
 8008284:	69b9      	ldr	r1, [r7, #24]
 8008286:	69fa      	ldr	r2, [r7, #28]
 8008288:	e841 2300 	strex	r3, r2, [r1]
 800828c:	617b      	str	r3, [r7, #20]
 800828e:	697b      	ldr	r3, [r7, #20]
 8008290:	2b00      	cmp	r3, #0
 8008292:	d1e4      	bne.n	800825e <UART_RxISR_16BIT_FIFOEN+0x312>
 8008294:	e007      	b.n	80082a6 <UART_RxISR_16BIT_FIFOEN+0x35a>
 8008296:	687b      	ldr	r3, [r7, #4]
 8008298:	681b      	ldr	r3, [r3, #0]
 800829a:	699a      	ldr	r2, [r3, #24]
 800829c:	687b      	ldr	r3, [r7, #4]
 800829e:	681b      	ldr	r3, [r3, #0]
 80082a0:	f042 0208 	orr.w	r2, r2, #8
 80082a4:	619a      	str	r2, [r3, #24]
 80082a6:	bf00      	nop
 80082a8:	37b8      	adds	r7, #184	@ 0xb8
 80082aa:	46bd      	mov	sp, r7
 80082ac:	bd80      	pop	{r7, pc}
 80082ae:	bf00      	nop
 80082b0:	40008000 	.word	0x40008000
 80082b4:	08007a31 	.word	0x08007a31

080082b8 <HAL_UARTEx_WakeupCallback>:
 80082b8:	b480      	push	{r7}
 80082ba:	b083      	sub	sp, #12
 80082bc:	af00      	add	r7, sp, #0
 80082be:	6078      	str	r0, [r7, #4]
 80082c0:	bf00      	nop
 80082c2:	370c      	adds	r7, #12
 80082c4:	46bd      	mov	sp, r7
 80082c6:	f85d 7b04 	ldr.w	r7, [sp], #4
 80082ca:	4770      	bx	lr

080082cc <HAL_UARTEx_RxFifoFullCallback>:
 80082cc:	b480      	push	{r7}
 80082ce:	b083      	sub	sp, #12
 80082d0:	af00      	add	r7, sp, #0
 80082d2:	6078      	str	r0, [r7, #4]
 80082d4:	bf00      	nop
 80082d6:	370c      	adds	r7, #12
 80082d8:	46bd      	mov	sp, r7
 80082da:	f85d 7b04 	ldr.w	r7, [sp], #4
 80082de:	4770      	bx	lr

080082e0 <HAL_UARTEx_TxFifoEmptyCallback>:
 80082e0:	b480      	push	{r7}
 80082e2:	b083      	sub	sp, #12
 80082e4:	af00      	add	r7, sp, #0
 80082e6:	6078      	str	r0, [r7, #4]
 80082e8:	bf00      	nop
 80082ea:	370c      	adds	r7, #12
 80082ec:	46bd      	mov	sp, r7
 80082ee:	f85d 7b04 	ldr.w	r7, [sp], #4
 80082f2:	4770      	bx	lr

080082f4 <HAL_UARTEx_DisableFifoMode>:
 80082f4:	b480      	push	{r7}
 80082f6:	b085      	sub	sp, #20
 80082f8:	af00      	add	r7, sp, #0
 80082fa:	6078      	str	r0, [r7, #4]
 80082fc:	687b      	ldr	r3, [r7, #4]
 80082fe:	f893 3084 	ldrb.w	r3, [r3, #132]	@ 0x84
 8008302:	2b01      	cmp	r3, #1
 8008304:	d101      	bne.n	800830a <HAL_UARTEx_DisableFifoMode+0x16>
 8008306:	2302      	movs	r3, #2
 8008308:	e027      	b.n	800835a <HAL_UARTEx_DisableFifoMode+0x66>
 800830a:	687b      	ldr	r3, [r7, #4]
 800830c:	2201      	movs	r2, #1
 800830e:	f883 2084 	strb.w	r2, [r3, #132]	@ 0x84
 8008312:	687b      	ldr	r3, [r7, #4]
 8008314:	2224      	movs	r2, #36	@ 0x24
 8008316:	f8c3 2088 	str.w	r2, [r3, #136]	@ 0x88
 800831a:	687b      	ldr	r3, [r7, #4]
 800831c:	681b      	ldr	r3, [r3, #0]
 800831e:	681b      	ldr	r3, [r3, #0]
 8008320:	60fb      	str	r3, [r7, #12]
 8008322:	687b      	ldr	r3, [r7, #4]
 8008324:	681b      	ldr	r3, [r3, #0]
 8008326:	681a      	ldr	r2, [r3, #0]
 8008328:	687b      	ldr	r3, [r7, #4]
 800832a:	681b      	ldr	r3, [r3, #0]
 800832c:	f022 0201 	bic.w	r2, r2, #1
 8008330:	601a      	str	r2, [r3, #0]
 8008332:	68fb      	ldr	r3, [r7, #12]
 8008334:	f023 5300 	bic.w	r3, r3, #536870912	@ 0x20000000
 8008338:	60fb      	str	r3, [r7, #12]
 800833a:	687b      	ldr	r3, [r7, #4]
 800833c:	2200      	movs	r2, #0
 800833e:	665a      	str	r2, [r3, #100]	@ 0x64
 8008340:	687b      	ldr	r3, [r7, #4]
 8008342:	681b      	ldr	r3, [r3, #0]
 8008344:	68fa      	ldr	r2, [r7, #12]
 8008346:	601a      	str	r2, [r3, #0]
 8008348:	687b      	ldr	r3, [r7, #4]
 800834a:	2220      	movs	r2, #32
 800834c:	f8c3 2088 	str.w	r2, [r3, #136]	@ 0x88
 8008350:	687b      	ldr	r3, [r7, #4]
 8008352:	2200      	movs	r2, #0
 8008354:	f883 2084 	strb.w	r2, [r3, #132]	@ 0x84
 8008358:	2300      	movs	r3, #0
 800835a:	4618      	mov	r0, r3
 800835c:	3714      	adds	r7, #20
 800835e:	46bd      	mov	sp, r7
 8008360:	f85d 7b04 	ldr.w	r7, [sp], #4
 8008364:	4770      	bx	lr

08008366 <HAL_UARTEx_SetTxFifoThreshold>:
 8008366:	b580      	push	{r7, lr}
 8008368:	b084      	sub	sp, #16
 800836a:	af00      	add	r7, sp, #0
 800836c:	6078      	str	r0, [r7, #4]
 800836e:	6039      	str	r1, [r7, #0]
 8008370:	687b      	ldr	r3, [r7, #4]
 8008372:	f893 3084 	ldrb.w	r3, [r3, #132]	@ 0x84
 8008376:	2b01      	cmp	r3, #1
 8008378:	d101      	bne.n	800837e <HAL_UARTEx_SetTxFifoThreshold+0x18>
 800837a:	2302      	movs	r3, #2
 800837c:	e02d      	b.n	80083da <HAL_UARTEx_SetTxFifoThreshold+0x74>
 800837e:	687b      	ldr	r3, [r7, #4]
 8008380:	2201      	movs	r2, #1
 8008382:	f883 2084 	strb.w	r2, [r3, #132]	@ 0x84
 8008386:	687b      	ldr	r3, [r7, #4]
 8008388:	2224      	movs	r2, #36	@ 0x24
 800838a:	f8c3 2088 	str.w	r2, [r3, #136]	@ 0x88
 800838e:	687b      	ldr	r3, [r7, #4]
 8008390:	681b      	ldr	r3, [r3, #0]
 8008392:	681b      	ldr	r3, [r3, #0]
 8008394:	60fb      	str	r3, [r7, #12]
 8008396:	687b      	ldr	r3, [r7, #4]
 8008398:	681b      	ldr	r3, [r3, #0]
 800839a:	681a      	ldr	r2, [r3, #0]
 800839c:	687b      	ldr	r3, [r7, #4]
 800839e:	681b      	ldr	r3, [r3, #0]
 80083a0:	f022 0201 	bic.w	r2, r2, #1
 80083a4:	601a      	str	r2, [r3, #0]
 80083a6:	687b      	ldr	r3, [r7, #4]
 80083a8:	681b      	ldr	r3, [r3, #0]
 80083aa:	689b      	ldr	r3, [r3, #8]
 80083ac:	f023 4160 	bic.w	r1, r3, #3758096384	@ 0xe0000000
 80083b0:	687b      	ldr	r3, [r7, #4]
 80083b2:	681b      	ldr	r3, [r3, #0]
 80083b4:	683a      	ldr	r2, [r7, #0]
 80083b6:	430a      	orrs	r2, r1
 80083b8:	609a      	str	r2, [r3, #8]
 80083ba:	6878      	ldr	r0, [r7, #4]
 80083bc:	f000 f850 	bl	8008460 <UARTEx_SetNbDataToProcess>
 80083c0:	687b      	ldr	r3, [r7, #4]
 80083c2:	681b      	ldr	r3, [r3, #0]
 80083c4:	68fa      	ldr	r2, [r7, #12]
 80083c6:	601a      	str	r2, [r3, #0]
 80083c8:	687b      	ldr	r3, [r7, #4]
 80083ca:	2220      	movs	r2, #32
 80083cc:	f8c3 2088 	str.w	r2, [r3, #136]	@ 0x88
 80083d0:	687b      	ldr	r3, [r7, #4]
 80083d2:	2200      	movs	r2, #0
 80083d4:	f883 2084 	strb.w	r2, [r3, #132]	@ 0x84
 80083d8:	2300      	movs	r3, #0
 80083da:	4618      	mov	r0, r3
 80083dc:	3710      	adds	r7, #16
 80083de:	46bd      	mov	sp, r7
 80083e0:	bd80      	pop	{r7, pc}

080083e2 <HAL_UARTEx_SetRxFifoThreshold>:
 80083e2:	b580      	push	{r7, lr}
 80083e4:	b084      	sub	sp, #16
 80083e6:	af00      	add	r7, sp, #0
 80083e8:	6078      	str	r0, [r7, #4]
 80083ea:	6039      	str	r1, [r7, #0]
 80083ec:	687b      	ldr	r3, [r7, #4]
 80083ee:	f893 3084 	ldrb.w	r3, [r3, #132]	@ 0x84
 80083f2:	2b01      	cmp	r3, #1
 80083f4:	d101      	bne.n	80083fa <HAL_UARTEx_SetRxFifoThreshold+0x18>
 80083f6:	2302      	movs	r3, #2
 80083f8:	e02d      	b.n	8008456 <HAL_UARTEx_SetRxFifoThreshold+0x74>
 80083fa:	687b      	ldr	r3, [r7, #4]
 80083fc:	2201      	movs	r2, #1
 80083fe:	f883 2084 	strb.w	r2, [r3, #132]	@ 0x84
 8008402:	687b      	ldr	r3, [r7, #4]
 8008404:	2224      	movs	r2, #36	@ 0x24
 8008406:	f8c3 2088 	str.w	r2, [r3, #136]	@ 0x88
 800840a:	687b      	ldr	r3, [r7, #4]
 800840c:	681b      	ldr	r3, [r3, #0]
 800840e:	681b      	ldr	r3, [r3, #0]
 8008410:	60fb      	str	r3, [r7, #12]
 8008412:	687b      	ldr	r3, [r7, #4]
 8008414:	681b      	ldr	r3, [r3, #0]
 8008416:	681a      	ldr	r2, [r3, #0]
 8008418:	687b      	ldr	r3, [r7, #4]
 800841a:	681b      	ldr	r3, [r3, #0]
 800841c:	f022 0201 	bic.w	r2, r2, #1
 8008420:	601a      	str	r2, [r3, #0]
 8008422:	687b      	ldr	r3, [r7, #4]
 8008424:	681b      	ldr	r3, [r3, #0]
 8008426:	689b      	ldr	r3, [r3, #8]
 8008428:	f023 6160 	bic.w	r1, r3, #234881024	@ 0xe000000
 800842c:	687b      	ldr	r3, [r7, #4]
 800842e:	681b      	ldr	r3, [r3, #0]
 8008430:	683a      	ldr	r2, [r7, #0]
 8008432:	430a      	orrs	r2, r1
 8008434:	609a      	str	r2, [r3, #8]
 8008436:	6878      	ldr	r0, [r7, #4]
 8008438:	f000 f812 	bl	8008460 <UARTEx_SetNbDataToProcess>
 800843c:	687b      	ldr	r3, [r7, #4]
 800843e:	681b      	ldr	r3, [r3, #0]
 8008440:	68fa      	ldr	r2, [r7, #12]
 8008442:	601a      	str	r2, [r3, #0]
 8008444:	687b      	ldr	r3, [r7, #4]
 8008446:	2220      	movs	r2, #32
 8008448:	f8c3 2088 	str.w	r2, [r3, #136]	@ 0x88
 800844c:	687b      	ldr	r3, [r7, #4]
 800844e:	2200      	movs	r2, #0
 8008450:	f883 2084 	strb.w	r2, [r3, #132]	@ 0x84
 8008454:	2300      	movs	r3, #0
 8008456:	4618      	mov	r0, r3
 8008458:	3710      	adds	r7, #16
 800845a:	46bd      	mov	sp, r7
 800845c:	bd80      	pop	{r7, pc}
	...

08008460 <UARTEx_SetNbDataToProcess>:
 8008460:	b480      	push	{r7}
 8008462:	b085      	sub	sp, #20
 8008464:	af00      	add	r7, sp, #0
 8008466:	6078      	str	r0, [r7, #4]
 8008468:	687b      	ldr	r3, [r7, #4]
 800846a:	6e5b      	ldr	r3, [r3, #100]	@ 0x64
 800846c:	2b00      	cmp	r3, #0
 800846e:	d108      	bne.n	8008482 <UARTEx_SetNbDataToProcess+0x22>
 8008470:	687b      	ldr	r3, [r7, #4]
 8008472:	2201      	movs	r2, #1
 8008474:	f8a3 206a 	strh.w	r2, [r3, #106]	@ 0x6a
 8008478:	687b      	ldr	r3, [r7, #4]
 800847a:	2201      	movs	r2, #1
 800847c:	f8a3 2068 	strh.w	r2, [r3, #104]	@ 0x68
 8008480:	e031      	b.n	80084e6 <UARTEx_SetNbDataToProcess+0x86>
 8008482:	2308      	movs	r3, #8
 8008484:	73fb      	strb	r3, [r7, #15]
 8008486:	2308      	movs	r3, #8
 8008488:	73bb      	strb	r3, [r7, #14]
 800848a:	687b      	ldr	r3, [r7, #4]
 800848c:	681b      	ldr	r3, [r3, #0]
 800848e:	689b      	ldr	r3, [r3, #8]
 8008490:	0e5b      	lsrs	r3, r3, #25
 8008492:	b2db      	uxtb	r3, r3
 8008494:	f003 0307 	and.w	r3, r3, #7
 8008498:	737b      	strb	r3, [r7, #13]
 800849a:	687b      	ldr	r3, [r7, #4]
 800849c:	681b      	ldr	r3, [r3, #0]
 800849e:	689b      	ldr	r3, [r3, #8]
 80084a0:	0f5b      	lsrs	r3, r3, #29
 80084a2:	b2db      	uxtb	r3, r3
 80084a4:	f003 0307 	and.w	r3, r3, #7
 80084a8:	733b      	strb	r3, [r7, #12]
 80084aa:	7bbb      	ldrb	r3, [r7, #14]
 80084ac:	7b3a      	ldrb	r2, [r7, #12]
 80084ae:	4911      	ldr	r1, [pc, #68]	@ (80084f4 <UARTEx_SetNbDataToProcess+0x94>)
 80084b0:	5c8a      	ldrb	r2, [r1, r2]
 80084b2:	fb02 f303 	mul.w	r3, r2, r3
 80084b6:	7b3a      	ldrb	r2, [r7, #12]
 80084b8:	490f      	ldr	r1, [pc, #60]	@ (80084f8 <UARTEx_SetNbDataToProcess+0x98>)
 80084ba:	5c8a      	ldrb	r2, [r1, r2]
 80084bc:	fb93 f3f2 	sdiv	r3, r3, r2
 80084c0:	b29a      	uxth	r2, r3
 80084c2:	687b      	ldr	r3, [r7, #4]
 80084c4:	f8a3 206a 	strh.w	r2, [r3, #106]	@ 0x6a
 80084c8:	7bfb      	ldrb	r3, [r7, #15]
 80084ca:	7b7a      	ldrb	r2, [r7, #13]
 80084cc:	4909      	ldr	r1, [pc, #36]	@ (80084f4 <UARTEx_SetNbDataToProcess+0x94>)
 80084ce:	5c8a      	ldrb	r2, [r1, r2]
 80084d0:	fb02 f303 	mul.w	r3, r2, r3
 80084d4:	7b7a      	ldrb	r2, [r7, #13]
 80084d6:	4908      	ldr	r1, [pc, #32]	@ (80084f8 <UARTEx_SetNbDataToProcess+0x98>)
 80084d8:	5c8a      	ldrb	r2, [r1, r2]
 80084da:	fb93 f3f2 	sdiv	r3, r3, r2
 80084de:	b29a      	uxth	r2, r3
 80084e0:	687b      	ldr	r3, [r7, #4]
 80084e2:	f8a3 2068 	strh.w	r2, [r3, #104]	@ 0x68
 80084e6:	bf00      	nop
 80084e8:	3714      	adds	r7, #20
 80084ea:	46bd      	mov	sp, r7
 80084ec:	f85d 7b04 	ldr.w	r7, [sp], #4
 80084f0:	4770      	bx	lr
 80084f2:	bf00      	nop
 80084f4:	0800d658 	.word	0x0800d658
 80084f8:	0800d660 	.word	0x0800d660

080084fc <USB_EnableGlobalInt>:
 80084fc:	b480      	push	{r7}
 80084fe:	b085      	sub	sp, #20
 8008500:	af00      	add	r7, sp, #0
 8008502:	6078      	str	r0, [r7, #4]
 8008504:	687b      	ldr	r3, [r7, #4]
 8008506:	2200      	movs	r2, #0
 8008508:	f8a3 2044 	strh.w	r2, [r3, #68]	@ 0x44
 800850c:	f64b 7380 	movw	r3, #49024	@ 0xbf80
 8008510:	60fb      	str	r3, [r7, #12]
 8008512:	68fb      	ldr	r3, [r7, #12]
 8008514:	b29a      	uxth	r2, r3
 8008516:	687b      	ldr	r3, [r7, #4]
 8008518:	f8a3 2040 	strh.w	r2, [r3, #64]	@ 0x40
 800851c:	2300      	movs	r3, #0
 800851e:	4618      	mov	r0, r3
 8008520:	3714      	adds	r7, #20
 8008522:	46bd      	mov	sp, r7
 8008524:	f85d 7b04 	ldr.w	r7, [sp], #4
 8008528:	4770      	bx	lr

0800852a <USB_DisableGlobalInt>:
 800852a:	b480      	push	{r7}
 800852c:	b085      	sub	sp, #20
 800852e:	af00      	add	r7, sp, #0
 8008530:	6078      	str	r0, [r7, #4]
 8008532:	f64b 7380 	movw	r3, #49024	@ 0xbf80
 8008536:	60fb      	str	r3, [r7, #12]
 8008538:	687b      	ldr	r3, [r7, #4]
 800853a:	f8b3 3040 	ldrh.w	r3, [r3, #64]	@ 0x40
 800853e:	b29a      	uxth	r2, r3
 8008540:	68fb      	ldr	r3, [r7, #12]
 8008542:	b29b      	uxth	r3, r3
 8008544:	43db      	mvns	r3, r3
 8008546:	b29b      	uxth	r3, r3
 8008548:	4013      	ands	r3, r2
 800854a:	b29a      	uxth	r2, r3
 800854c:	687b      	ldr	r3, [r7, #4]
 800854e:	f8a3 2040 	strh.w	r2, [r3, #64]	@ 0x40
 8008552:	2300      	movs	r3, #0
 8008554:	4618      	mov	r0, r3
 8008556:	3714      	adds	r7, #20
 8008558:	46bd      	mov	sp, r7
 800855a:	f85d 7b04 	ldr.w	r7, [sp], #4
 800855e:	4770      	bx	lr

08008560 <USB_DevInit>:
 8008560:	b480      	push	{r7}
 8008562:	b085      	sub	sp, #20
 8008564:	af00      	add	r7, sp, #0
 8008566:	60f8      	str	r0, [r7, #12]
 8008568:	1d3b      	adds	r3, r7, #4
 800856a:	e883 0006 	stmia.w	r3, {r1, r2}
 800856e:	68fb      	ldr	r3, [r7, #12]
 8008570:	2201      	movs	r2, #1
 8008572:	f8a3 2040 	strh.w	r2, [r3, #64]	@ 0x40
 8008576:	68fb      	ldr	r3, [r7, #12]
 8008578:	2200      	movs	r2, #0
 800857a:	f8a3 2040 	strh.w	r2, [r3, #64]	@ 0x40
 800857e:	68fb      	ldr	r3, [r7, #12]
 8008580:	2200      	movs	r2, #0
 8008582:	f8a3 2044 	strh.w	r2, [r3, #68]	@ 0x44
 8008586:	68fb      	ldr	r3, [r7, #12]
 8008588:	2200      	movs	r2, #0
 800858a:	f8a3 2050 	strh.w	r2, [r3, #80]	@ 0x50
 800858e:	2300      	movs	r3, #0
 8008590:	4618      	mov	r0, r3
 8008592:	3714      	adds	r7, #20
 8008594:	46bd      	mov	sp, r7
 8008596:	f85d 7b04 	ldr.w	r7, [sp], #4
 800859a:	4770      	bx	lr

0800859c <USB_ActivateEndpoint>:
 800859c:	b480      	push	{r7}
 800859e:	b0a7      	sub	sp, #156	@ 0x9c
 80085a0:	af00      	add	r7, sp, #0
 80085a2:	6078      	str	r0, [r7, #4]
 80085a4:	6039      	str	r1, [r7, #0]
 80085a6:	2300      	movs	r3, #0
 80085a8:	f887 3097 	strb.w	r3, [r7, #151]	@ 0x97
 80085ac:	687a      	ldr	r2, [r7, #4]
 80085ae:	683b      	ldr	r3, [r7, #0]
 80085b0:	781b      	ldrb	r3, [r3, #0]
 80085b2:	009b      	lsls	r3, r3, #2
 80085b4:	4413      	add	r3, r2
 80085b6:	881b      	ldrh	r3, [r3, #0]
 80085b8:	b29b      	uxth	r3, r3
 80085ba:	f423 43ec 	bic.w	r3, r3, #30208	@ 0x7600
 80085be:	f023 0370 	bic.w	r3, r3, #112	@ 0x70
 80085c2:	f8a7 3094 	strh.w	r3, [r7, #148]	@ 0x94
 80085c6:	683b      	ldr	r3, [r7, #0]
 80085c8:	78db      	ldrb	r3, [r3, #3]
 80085ca:	2b03      	cmp	r3, #3
 80085cc:	d81f      	bhi.n	800860e <USB_ActivateEndpoint+0x72>
 80085ce:	a201      	add	r2, pc, #4	@ (adr r2, 80085d4 <USB_ActivateEndpoint+0x38>)
 80085d0:	f852 f023 	ldr.w	pc, [r2, r3, lsl #2]
 80085d4:	080085e5 	.word	0x080085e5
 80085d8:	08008601 	.word	0x08008601
 80085dc:	08008617 	.word	0x08008617
 80085e0:	080085f3 	.word	0x080085f3
 80085e4:	f8b7 3094 	ldrh.w	r3, [r7, #148]	@ 0x94
 80085e8:	f443 7300 	orr.w	r3, r3, #512	@ 0x200
 80085ec:	f8a7 3094 	strh.w	r3, [r7, #148]	@ 0x94
 80085f0:	e012      	b.n	8008618 <USB_ActivateEndpoint+0x7c>
 80085f2:	f8b7 3094 	ldrh.w	r3, [r7, #148]	@ 0x94
 80085f6:	f443 63c0 	orr.w	r3, r3, #1536	@ 0x600
 80085fa:	f8a7 3094 	strh.w	r3, [r7, #148]	@ 0x94
 80085fe:	e00b      	b.n	8008618 <USB_ActivateEndpoint+0x7c>
 8008600:	f8b7 3094 	ldrh.w	r3, [r7, #148]	@ 0x94
 8008604:	f443 6380 	orr.w	r3, r3, #1024	@ 0x400
 8008608:	f8a7 3094 	strh.w	r3, [r7, #148]	@ 0x94
 800860c:	e004      	b.n	8008618 <USB_ActivateEndpoint+0x7c>
 800860e:	2301      	movs	r3, #1
 8008610:	f887 3097 	strb.w	r3, [r7, #151]	@ 0x97
 8008614:	e000      	b.n	8008618 <USB_ActivateEndpoint+0x7c>
 8008616:	bf00      	nop
 8008618:	687a      	ldr	r2, [r7, #4]
 800861a:	683b      	ldr	r3, [r7, #0]
 800861c:	781b      	ldrb	r3, [r3, #0]
 800861e:	009b      	lsls	r3, r3, #2
 8008620:	441a      	add	r2, r3
 8008622:	f8b7 3094 	ldrh.w	r3, [r7, #148]	@ 0x94
 8008626:	f043 437f 	orr.w	r3, r3, #4278190080	@ 0xff000000
 800862a:	f443 037f 	orr.w	r3, r3, #16711680	@ 0xff0000
 800862e:	f443 4300 	orr.w	r3, r3, #32768	@ 0x8000
 8008632:	f043 0380 	orr.w	r3, r3, #128	@ 0x80
 8008636:	b29b      	uxth	r3, r3
 8008638:	8013      	strh	r3, [r2, #0]
 800863a:	687a      	ldr	r2, [r7, #4]
 800863c:	683b      	ldr	r3, [r7, #0]
 800863e:	781b      	ldrb	r3, [r3, #0]
 8008640:	009b      	lsls	r3, r3, #2
 8008642:	4413      	add	r3, r2
 8008644:	881b      	ldrh	r3, [r3, #0]
 8008646:	b29b      	uxth	r3, r3
 8008648:	b21b      	sxth	r3, r3
 800864a:	f423 43e0 	bic.w	r3, r3, #28672	@ 0x7000
 800864e:	f023 0370 	bic.w	r3, r3, #112	@ 0x70
 8008652:	b21a      	sxth	r2, r3
 8008654:	683b      	ldr	r3, [r7, #0]
 8008656:	781b      	ldrb	r3, [r3, #0]
 8008658:	b21b      	sxth	r3, r3
 800865a:	4313      	orrs	r3, r2
 800865c:	b21b      	sxth	r3, r3
 800865e:	f8a7 3086 	strh.w	r3, [r7, #134]	@ 0x86
 8008662:	687a      	ldr	r2, [r7, #4]
 8008664:	683b      	ldr	r3, [r7, #0]
 8008666:	781b      	ldrb	r3, [r3, #0]
 8008668:	009b      	lsls	r3, r3, #2
 800866a:	441a      	add	r2, r3
 800866c:	f8b7 3086 	ldrh.w	r3, [r7, #134]	@ 0x86
 8008670:	f043 437f 	orr.w	r3, r3, #4278190080	@ 0xff000000
 8008674:	f443 037f 	orr.w	r3, r3, #16711680	@ 0xff0000
 8008678:	f443 4300 	orr.w	r3, r3, #32768	@ 0x8000
 800867c:	f043 0380 	orr.w	r3, r3, #128	@ 0x80
 8008680:	b29b      	uxth	r3, r3
 8008682:	8013      	strh	r3, [r2, #0]
 8008684:	683b      	ldr	r3, [r7, #0]
 8008686:	7b1b      	ldrb	r3, [r3, #12]
 8008688:	2b00      	cmp	r3, #0
 800868a:	f040 8180 	bne.w	800898e <USB_ActivateEndpoint+0x3f2>
 800868e:	683b      	ldr	r3, [r7, #0]
 8008690:	785b      	ldrb	r3, [r3, #1]
 8008692:	2b00      	cmp	r3, #0
 8008694:	f000 8084 	beq.w	80087a0 <USB_ActivateEndpoint+0x204>
 8008698:	687b      	ldr	r3, [r7, #4]
 800869a:	61bb      	str	r3, [r7, #24]
 800869c:	687b      	ldr	r3, [r7, #4]
 800869e:	f8b3 3050 	ldrh.w	r3, [r3, #80]	@ 0x50
 80086a2:	b29b      	uxth	r3, r3
 80086a4:	461a      	mov	r2, r3
 80086a6:	69bb      	ldr	r3, [r7, #24]
 80086a8:	4413      	add	r3, r2
 80086aa:	61bb      	str	r3, [r7, #24]
 80086ac:	683b      	ldr	r3, [r7, #0]
 80086ae:	781b      	ldrb	r3, [r3, #0]
 80086b0:	00da      	lsls	r2, r3, #3
 80086b2:	69bb      	ldr	r3, [r7, #24]
 80086b4:	4413      	add	r3, r2
 80086b6:	f503 6380 	add.w	r3, r3, #1024	@ 0x400
 80086ba:	617b      	str	r3, [r7, #20]
 80086bc:	683b      	ldr	r3, [r7, #0]
 80086be:	88db      	ldrh	r3, [r3, #6]
 80086c0:	085b      	lsrs	r3, r3, #1
 80086c2:	b29b      	uxth	r3, r3
 80086c4:	005b      	lsls	r3, r3, #1
 80086c6:	b29a      	uxth	r2, r3
 80086c8:	697b      	ldr	r3, [r7, #20]
 80086ca:	801a      	strh	r2, [r3, #0]
 80086cc:	687a      	ldr	r2, [r7, #4]
 80086ce:	683b      	ldr	r3, [r7, #0]
 80086d0:	781b      	ldrb	r3, [r3, #0]
 80086d2:	009b      	lsls	r3, r3, #2
 80086d4:	4413      	add	r3, r2
 80086d6:	881b      	ldrh	r3, [r3, #0]
 80086d8:	827b      	strh	r3, [r7, #18]
 80086da:	8a7b      	ldrh	r3, [r7, #18]
 80086dc:	f003 0340 	and.w	r3, r3, #64	@ 0x40
 80086e0:	2b00      	cmp	r3, #0
 80086e2:	d01b      	beq.n	800871c <USB_ActivateEndpoint+0x180>
 80086e4:	687a      	ldr	r2, [r7, #4]
 80086e6:	683b      	ldr	r3, [r7, #0]
 80086e8:	781b      	ldrb	r3, [r3, #0]
 80086ea:	009b      	lsls	r3, r3, #2
 80086ec:	4413      	add	r3, r2
 80086ee:	881b      	ldrh	r3, [r3, #0]
 80086f0:	b29b      	uxth	r3, r3
 80086f2:	f423 43e0 	bic.w	r3, r3, #28672	@ 0x7000
 80086f6:	f023 0370 	bic.w	r3, r3, #112	@ 0x70
 80086fa:	823b      	strh	r3, [r7, #16]
 80086fc:	687a      	ldr	r2, [r7, #4]
 80086fe:	683b      	ldr	r3, [r7, #0]
 8008700:	781b      	ldrb	r3, [r3, #0]
 8008702:	009b      	lsls	r3, r3, #2
 8008704:	441a      	add	r2, r3
 8008706:	8a3b      	ldrh	r3, [r7, #16]
 8008708:	f043 437f 	orr.w	r3, r3, #4278190080	@ 0xff000000
 800870c:	f443 037f 	orr.w	r3, r3, #16711680	@ 0xff0000
 8008710:	f443 4300 	orr.w	r3, r3, #32768	@ 0x8000
 8008714:	f043 03c0 	orr.w	r3, r3, #192	@ 0xc0
 8008718:	b29b      	uxth	r3, r3
 800871a:	8013      	strh	r3, [r2, #0]
 800871c:	683b      	ldr	r3, [r7, #0]
 800871e:	78db      	ldrb	r3, [r3, #3]
 8008720:	2b01      	cmp	r3, #1
 8008722:	d020      	beq.n	8008766 <USB_ActivateEndpoint+0x1ca>
 8008724:	687a      	ldr	r2, [r7, #4]
 8008726:	683b      	ldr	r3, [r7, #0]
 8008728:	781b      	ldrb	r3, [r3, #0]
 800872a:	009b      	lsls	r3, r3, #2
 800872c:	4413      	add	r3, r2
 800872e:	881b      	ldrh	r3, [r3, #0]
 8008730:	b29b      	uxth	r3, r3
 8008732:	f423 43e0 	bic.w	r3, r3, #28672	@ 0x7000
 8008736:	f023 0340 	bic.w	r3, r3, #64	@ 0x40
 800873a:	81bb      	strh	r3, [r7, #12]
 800873c:	89bb      	ldrh	r3, [r7, #12]
 800873e:	f083 0320 	eor.w	r3, r3, #32
 8008742:	81bb      	strh	r3, [r7, #12]
 8008744:	687a      	ldr	r2, [r7, #4]
 8008746:	683b      	ldr	r3, [r7, #0]
 8008748:	781b      	ldrb	r3, [r3, #0]
 800874a:	009b      	lsls	r3, r3, #2
 800874c:	441a      	add	r2, r3
 800874e:	89bb      	ldrh	r3, [r7, #12]
 8008750:	f043 437f 	orr.w	r3, r3, #4278190080	@ 0xff000000
 8008754:	f443 037f 	orr.w	r3, r3, #16711680	@ 0xff0000
 8008758:	f443 4300 	orr.w	r3, r3, #32768	@ 0x8000
 800875c:	f043 0380 	orr.w	r3, r3, #128	@ 0x80
 8008760:	b29b      	uxth	r3, r3
 8008762:	8013      	strh	r3, [r2, #0]
 8008764:	e3f9      	b.n	8008f5a <USB_ActivateEndpoint+0x9be>
 8008766:	687a      	ldr	r2, [r7, #4]
 8008768:	683b      	ldr	r3, [r7, #0]
 800876a:	781b      	ldrb	r3, [r3, #0]
 800876c:	009b      	lsls	r3, r3, #2
 800876e:	4413      	add	r3, r2
 8008770:	881b      	ldrh	r3, [r3, #0]
 8008772:	b29b      	uxth	r3, r3
 8008774:	f423 43e0 	bic.w	r3, r3, #28672	@ 0x7000
 8008778:	f023 0340 	bic.w	r3, r3, #64	@ 0x40
 800877c:	81fb      	strh	r3, [r7, #14]
 800877e:	687a      	ldr	r2, [r7, #4]
 8008780:	683b      	ldr	r3, [r7, #0]
 8008782:	781b      	ldrb	r3, [r3, #0]
 8008784:	009b      	lsls	r3, r3, #2
 8008786:	441a      	add	r2, r3
 8008788:	89fb      	ldrh	r3, [r7, #14]
 800878a:	f043 437f 	orr.w	r3, r3, #4278190080	@ 0xff000000
 800878e:	f443 037f 	orr.w	r3, r3, #16711680	@ 0xff0000
 8008792:	f443 4300 	orr.w	r3, r3, #32768	@ 0x8000
 8008796:	f043 0380 	orr.w	r3, r3, #128	@ 0x80
 800879a:	b29b      	uxth	r3, r3
 800879c:	8013      	strh	r3, [r2, #0]
 800879e:	e3dc      	b.n	8008f5a <USB_ActivateEndpoint+0x9be>
 80087a0:	687b      	ldr	r3, [r7, #4]
 80087a2:	633b      	str	r3, [r7, #48]	@ 0x30
 80087a4:	687b      	ldr	r3, [r7, #4]
 80087a6:	f8b3 3050 	ldrh.w	r3, [r3, #80]	@ 0x50
 80087aa:	b29b      	uxth	r3, r3
 80087ac:	461a      	mov	r2, r3
 80087ae:	6b3b      	ldr	r3, [r7, #48]	@ 0x30
 80087b0:	4413      	add	r3, r2
 80087b2:	633b      	str	r3, [r7, #48]	@ 0x30
 80087b4:	683b      	ldr	r3, [r7, #0]
 80087b6:	781b      	ldrb	r3, [r3, #0]
 80087b8:	00da      	lsls	r2, r3, #3
 80087ba:	6b3b      	ldr	r3, [r7, #48]	@ 0x30
 80087bc:	4413      	add	r3, r2
 80087be:	f203 4304 	addw	r3, r3, #1028	@ 0x404
 80087c2:	62fb      	str	r3, [r7, #44]	@ 0x2c
 80087c4:	683b      	ldr	r3, [r7, #0]
 80087c6:	88db      	ldrh	r3, [r3, #6]
 80087c8:	085b      	lsrs	r3, r3, #1
 80087ca:	b29b      	uxth	r3, r3
 80087cc:	005b      	lsls	r3, r3, #1
 80087ce:	b29a      	uxth	r2, r3
 80087d0:	6afb      	ldr	r3, [r7, #44]	@ 0x2c
 80087d2:	801a      	strh	r2, [r3, #0]
 80087d4:	687b      	ldr	r3, [r7, #4]
 80087d6:	62bb      	str	r3, [r7, #40]	@ 0x28
 80087d8:	687b      	ldr	r3, [r7, #4]
 80087da:	f8b3 3050 	ldrh.w	r3, [r3, #80]	@ 0x50
 80087de:	b29b      	uxth	r3, r3
 80087e0:	461a      	mov	r2, r3
 80087e2:	6abb      	ldr	r3, [r7, #40]	@ 0x28
 80087e4:	4413      	add	r3, r2
 80087e6:	62bb      	str	r3, [r7, #40]	@ 0x28
 80087e8:	683b      	ldr	r3, [r7, #0]
 80087ea:	781b      	ldrb	r3, [r3, #0]
 80087ec:	00da      	lsls	r2, r3, #3
 80087ee:	6abb      	ldr	r3, [r7, #40]	@ 0x28
 80087f0:	4413      	add	r3, r2
 80087f2:	f203 4306 	addw	r3, r3, #1030	@ 0x406
 80087f6:	627b      	str	r3, [r7, #36]	@ 0x24
 80087f8:	6a7b      	ldr	r3, [r7, #36]	@ 0x24
 80087fa:	881b      	ldrh	r3, [r3, #0]
 80087fc:	b29b      	uxth	r3, r3
 80087fe:	f3c3 0309 	ubfx	r3, r3, #0, #10
 8008802:	b29a      	uxth	r2, r3
 8008804:	6a7b      	ldr	r3, [r7, #36]	@ 0x24
 8008806:	801a      	strh	r2, [r3, #0]
 8008808:	683b      	ldr	r3, [r7, #0]
 800880a:	691b      	ldr	r3, [r3, #16]
 800880c:	2b00      	cmp	r3, #0
 800880e:	d10a      	bne.n	8008826 <USB_ActivateEndpoint+0x28a>
 8008810:	6a7b      	ldr	r3, [r7, #36]	@ 0x24
 8008812:	881b      	ldrh	r3, [r3, #0]
 8008814:	b29b      	uxth	r3, r3
 8008816:	ea6f 4343 	mvn.w	r3, r3, lsl #17
 800881a:	ea6f 4353 	mvn.w	r3, r3, lsr #17
 800881e:	b29a      	uxth	r2, r3
 8008820:	6a7b      	ldr	r3, [r7, #36]	@ 0x24
 8008822:	801a      	strh	r2, [r3, #0]
 8008824:	e041      	b.n	80088aa <USB_ActivateEndpoint+0x30e>
 8008826:	683b      	ldr	r3, [r7, #0]
 8008828:	691b      	ldr	r3, [r3, #16]
 800882a:	2b3e      	cmp	r3, #62	@ 0x3e
 800882c:	d81c      	bhi.n	8008868 <USB_ActivateEndpoint+0x2cc>
 800882e:	683b      	ldr	r3, [r7, #0]
 8008830:	691b      	ldr	r3, [r3, #16]
 8008832:	085b      	lsrs	r3, r3, #1
 8008834:	f8c7 3090 	str.w	r3, [r7, #144]	@ 0x90
 8008838:	683b      	ldr	r3, [r7, #0]
 800883a:	691b      	ldr	r3, [r3, #16]
 800883c:	f003 0301 	and.w	r3, r3, #1
 8008840:	2b00      	cmp	r3, #0
 8008842:	d004      	beq.n	800884e <USB_ActivateEndpoint+0x2b2>
 8008844:	f8d7 3090 	ldr.w	r3, [r7, #144]	@ 0x90
 8008848:	3301      	adds	r3, #1
 800884a:	f8c7 3090 	str.w	r3, [r7, #144]	@ 0x90
 800884e:	6a7b      	ldr	r3, [r7, #36]	@ 0x24
 8008850:	881b      	ldrh	r3, [r3, #0]
 8008852:	b29a      	uxth	r2, r3
 8008854:	f8d7 3090 	ldr.w	r3, [r7, #144]	@ 0x90
 8008858:	b29b      	uxth	r3, r3
 800885a:	029b      	lsls	r3, r3, #10
 800885c:	b29b      	uxth	r3, r3
 800885e:	4313      	orrs	r3, r2
 8008860:	b29a      	uxth	r2, r3
 8008862:	6a7b      	ldr	r3, [r7, #36]	@ 0x24
 8008864:	801a      	strh	r2, [r3, #0]
 8008866:	e020      	b.n	80088aa <USB_ActivateEndpoint+0x30e>
 8008868:	683b      	ldr	r3, [r7, #0]
 800886a:	691b      	ldr	r3, [r3, #16]
 800886c:	095b      	lsrs	r3, r3, #5
 800886e:	f8c7 3090 	str.w	r3, [r7, #144]	@ 0x90
 8008872:	683b      	ldr	r3, [r7, #0]
 8008874:	691b      	ldr	r3, [r3, #16]
 8008876:	f003 031f 	and.w	r3, r3, #31
 800887a:	2b00      	cmp	r3, #0
 800887c:	d104      	bne.n	8008888 <USB_ActivateEndpoint+0x2ec>
 800887e:	f8d7 3090 	ldr.w	r3, [r7, #144]	@ 0x90
 8008882:	3b01      	subs	r3, #1
 8008884:	f8c7 3090 	str.w	r3, [r7, #144]	@ 0x90
 8008888:	6a7b      	ldr	r3, [r7, #36]	@ 0x24
 800888a:	881b      	ldrh	r3, [r3, #0]
 800888c:	b29a      	uxth	r2, r3
 800888e:	f8d7 3090 	ldr.w	r3, [r7, #144]	@ 0x90
 8008892:	b29b      	uxth	r3, r3
 8008894:	029b      	lsls	r3, r3, #10
 8008896:	b29b      	uxth	r3, r3
 8008898:	4313      	orrs	r3, r2
 800889a:	b29b      	uxth	r3, r3
 800889c:	ea6f 4343 	mvn.w	r3, r3, lsl #17
 80088a0:	ea6f 4353 	mvn.w	r3, r3, lsr #17
 80088a4:	b29a      	uxth	r2, r3
 80088a6:	6a7b      	ldr	r3, [r7, #36]	@ 0x24
 80088a8:	801a      	strh	r2, [r3, #0]
 80088aa:	687a      	ldr	r2, [r7, #4]
 80088ac:	683b      	ldr	r3, [r7, #0]
 80088ae:	781b      	ldrb	r3, [r3, #0]
 80088b0:	009b      	lsls	r3, r3, #2
 80088b2:	4413      	add	r3, r2
 80088b4:	881b      	ldrh	r3, [r3, #0]
 80088b6:	847b      	strh	r3, [r7, #34]	@ 0x22
 80088b8:	8c7b      	ldrh	r3, [r7, #34]	@ 0x22
 80088ba:	f403 4380 	and.w	r3, r3, #16384	@ 0x4000
 80088be:	2b00      	cmp	r3, #0
 80088c0:	d01b      	beq.n	80088fa <USB_ActivateEndpoint+0x35e>
 80088c2:	687a      	ldr	r2, [r7, #4]
 80088c4:	683b      	ldr	r3, [r7, #0]
 80088c6:	781b      	ldrb	r3, [r3, #0]
 80088c8:	009b      	lsls	r3, r3, #2
 80088ca:	4413      	add	r3, r2
 80088cc:	881b      	ldrh	r3, [r3, #0]
 80088ce:	b29b      	uxth	r3, r3
 80088d0:	f423 43e0 	bic.w	r3, r3, #28672	@ 0x7000
 80088d4:	f023 0370 	bic.w	r3, r3, #112	@ 0x70
 80088d8:	843b      	strh	r3, [r7, #32]
 80088da:	687a      	ldr	r2, [r7, #4]
 80088dc:	683b      	ldr	r3, [r7, #0]
 80088de:	781b      	ldrb	r3, [r3, #0]
 80088e0:	009b      	lsls	r3, r3, #2
 80088e2:	441a      	add	r2, r3
 80088e4:	8c3b      	ldrh	r3, [r7, #32]
 80088e6:	f043 437f 	orr.w	r3, r3, #4278190080	@ 0xff000000
 80088ea:	f443 037f 	orr.w	r3, r3, #16711680	@ 0xff0000
 80088ee:	f443 4340 	orr.w	r3, r3, #49152	@ 0xc000
 80088f2:	f043 0380 	orr.w	r3, r3, #128	@ 0x80
 80088f6:	b29b      	uxth	r3, r3
 80088f8:	8013      	strh	r3, [r2, #0]
 80088fa:	683b      	ldr	r3, [r7, #0]
 80088fc:	781b      	ldrb	r3, [r3, #0]
 80088fe:	2b00      	cmp	r3, #0
 8008900:	d124      	bne.n	800894c <USB_ActivateEndpoint+0x3b0>
 8008902:	687a      	ldr	r2, [r7, #4]
 8008904:	683b      	ldr	r3, [r7, #0]
 8008906:	781b      	ldrb	r3, [r3, #0]
 8008908:	009b      	lsls	r3, r3, #2
 800890a:	4413      	add	r3, r2
 800890c:	881b      	ldrh	r3, [r3, #0]
 800890e:	b29b      	uxth	r3, r3
 8008910:	f423 4380 	bic.w	r3, r3, #16384	@ 0x4000
 8008914:	f023 0370 	bic.w	r3, r3, #112	@ 0x70
 8008918:	83bb      	strh	r3, [r7, #28]
 800891a:	8bbb      	ldrh	r3, [r7, #28]
 800891c:	f483 5380 	eor.w	r3, r3, #4096	@ 0x1000
 8008920:	83bb      	strh	r3, [r7, #28]
 8008922:	8bbb      	ldrh	r3, [r7, #28]
 8008924:	f483 5300 	eor.w	r3, r3, #8192	@ 0x2000
 8008928:	83bb      	strh	r3, [r7, #28]
 800892a:	687a      	ldr	r2, [r7, #4]
 800892c:	683b      	ldr	r3, [r7, #0]
 800892e:	781b      	ldrb	r3, [r3, #0]
 8008930:	009b      	lsls	r3, r3, #2
 8008932:	441a      	add	r2, r3
 8008934:	8bbb      	ldrh	r3, [r7, #28]
 8008936:	f043 437f 	orr.w	r3, r3, #4278190080	@ 0xff000000
 800893a:	f443 037f 	orr.w	r3, r3, #16711680	@ 0xff0000
 800893e:	f443 4300 	orr.w	r3, r3, #32768	@ 0x8000
 8008942:	f043 0380 	orr.w	r3, r3, #128	@ 0x80
 8008946:	b29b      	uxth	r3, r3
 8008948:	8013      	strh	r3, [r2, #0]
 800894a:	e306      	b.n	8008f5a <USB_ActivateEndpoint+0x9be>
 800894c:	687a      	ldr	r2, [r7, #4]
 800894e:	683b      	ldr	r3, [r7, #0]
 8008950:	781b      	ldrb	r3, [r3, #0]
 8008952:	009b      	lsls	r3, r3, #2
 8008954:	4413      	add	r3, r2
 8008956:	881b      	ldrh	r3, [r3, #0]
 8008958:	b29b      	uxth	r3, r3
 800895a:	f423 4380 	bic.w	r3, r3, #16384	@ 0x4000
 800895e:	f023 0370 	bic.w	r3, r3, #112	@ 0x70
 8008962:	83fb      	strh	r3, [r7, #30]
 8008964:	8bfb      	ldrh	r3, [r7, #30]
 8008966:	f483 5300 	eor.w	r3, r3, #8192	@ 0x2000
 800896a:	83fb      	strh	r3, [r7, #30]
 800896c:	687a      	ldr	r2, [r7, #4]
 800896e:	683b      	ldr	r3, [r7, #0]
 8008970:	781b      	ldrb	r3, [r3, #0]
 8008972:	009b      	lsls	r3, r3, #2
 8008974:	441a      	add	r2, r3
 8008976:	8bfb      	ldrh	r3, [r7, #30]
 8008978:	f043 437f 	orr.w	r3, r3, #4278190080	@ 0xff000000
 800897c:	f443 037f 	orr.w	r3, r3, #16711680	@ 0xff0000
 8008980:	f443 4300 	orr.w	r3, r3, #32768	@ 0x8000
 8008984:	f043 0380 	orr.w	r3, r3, #128	@ 0x80
 8008988:	b29b      	uxth	r3, r3
 800898a:	8013      	strh	r3, [r2, #0]
 800898c:	e2e5      	b.n	8008f5a <USB_ActivateEndpoint+0x9be>
 800898e:	683b      	ldr	r3, [r7, #0]
 8008990:	78db      	ldrb	r3, [r3, #3]
 8008992:	2b02      	cmp	r3, #2
 8008994:	d11e      	bne.n	80089d4 <USB_ActivateEndpoint+0x438>
 8008996:	687a      	ldr	r2, [r7, #4]
 8008998:	683b      	ldr	r3, [r7, #0]
 800899a:	781b      	ldrb	r3, [r3, #0]
 800899c:	009b      	lsls	r3, r3, #2
 800899e:	4413      	add	r3, r2
 80089a0:	881b      	ldrh	r3, [r3, #0]
 80089a2:	b29b      	uxth	r3, r3
 80089a4:	f423 43e0 	bic.w	r3, r3, #28672	@ 0x7000
 80089a8:	f023 0370 	bic.w	r3, r3, #112	@ 0x70
 80089ac:	f8a7 3082 	strh.w	r3, [r7, #130]	@ 0x82
 80089b0:	687a      	ldr	r2, [r7, #4]
 80089b2:	683b      	ldr	r3, [r7, #0]
 80089b4:	781b      	ldrb	r3, [r3, #0]
 80089b6:	009b      	lsls	r3, r3, #2
 80089b8:	441a      	add	r2, r3
 80089ba:	f8b7 3082 	ldrh.w	r3, [r7, #130]	@ 0x82
 80089be:	f043 437f 	orr.w	r3, r3, #4278190080	@ 0xff000000
 80089c2:	f443 037f 	orr.w	r3, r3, #16711680	@ 0xff0000
 80089c6:	f443 4301 	orr.w	r3, r3, #33024	@ 0x8100
 80089ca:	f043 0380 	orr.w	r3, r3, #128	@ 0x80
 80089ce:	b29b      	uxth	r3, r3
 80089d0:	8013      	strh	r3, [r2, #0]
 80089d2:	e01d      	b.n	8008a10 <USB_ActivateEndpoint+0x474>
 80089d4:	687a      	ldr	r2, [r7, #4]
 80089d6:	683b      	ldr	r3, [r7, #0]
 80089d8:	781b      	ldrb	r3, [r3, #0]
 80089da:	009b      	lsls	r3, r3, #2
 80089dc:	4413      	add	r3, r2
 80089de:	881b      	ldrh	r3, [r3, #0]
 80089e0:	b29b      	uxth	r3, r3
 80089e2:	f423 43e2 	bic.w	r3, r3, #28928	@ 0x7100
 80089e6:	f023 0370 	bic.w	r3, r3, #112	@ 0x70
 80089ea:	f8a7 3084 	strh.w	r3, [r7, #132]	@ 0x84
 80089ee:	687a      	ldr	r2, [r7, #4]
 80089f0:	683b      	ldr	r3, [r7, #0]
 80089f2:	781b      	ldrb	r3, [r3, #0]
 80089f4:	009b      	lsls	r3, r3, #2
 80089f6:	441a      	add	r2, r3
 80089f8:	f8b7 3084 	ldrh.w	r3, [r7, #132]	@ 0x84
 80089fc:	f043 437f 	orr.w	r3, r3, #4278190080	@ 0xff000000
 8008a00:	f443 037f 	orr.w	r3, r3, #16711680	@ 0xff0000
 8008a04:	f443 4300 	orr.w	r3, r3, #32768	@ 0x8000
 8008a08:	f043 0380 	orr.w	r3, r3, #128	@ 0x80
 8008a0c:	b29b      	uxth	r3, r3
 8008a0e:	8013      	strh	r3, [r2, #0]
 8008a10:	687b      	ldr	r3, [r7, #4]
 8008a12:	67fb      	str	r3, [r7, #124]	@ 0x7c
 8008a14:	687b      	ldr	r3, [r7, #4]
 8008a16:	f8b3 3050 	ldrh.w	r3, [r3, #80]	@ 0x50
 8008a1a:	b29b      	uxth	r3, r3
 8008a1c:	461a      	mov	r2, r3
 8008a1e:	6ffb      	ldr	r3, [r7, #124]	@ 0x7c
 8008a20:	4413      	add	r3, r2
 8008a22:	67fb      	str	r3, [r7, #124]	@ 0x7c
 8008a24:	683b      	ldr	r3, [r7, #0]
 8008a26:	781b      	ldrb	r3, [r3, #0]
 8008a28:	00da      	lsls	r2, r3, #3
 8008a2a:	6ffb      	ldr	r3, [r7, #124]	@ 0x7c
 8008a2c:	4413      	add	r3, r2
 8008a2e:	f503 6380 	add.w	r3, r3, #1024	@ 0x400
 8008a32:	67bb      	str	r3, [r7, #120]	@ 0x78
 8008a34:	683b      	ldr	r3, [r7, #0]
 8008a36:	891b      	ldrh	r3, [r3, #8]
 8008a38:	085b      	lsrs	r3, r3, #1
 8008a3a:	b29b      	uxth	r3, r3
 8008a3c:	005b      	lsls	r3, r3, #1
 8008a3e:	b29a      	uxth	r2, r3
 8008a40:	6fbb      	ldr	r3, [r7, #120]	@ 0x78
 8008a42:	801a      	strh	r2, [r3, #0]
 8008a44:	687b      	ldr	r3, [r7, #4]
 8008a46:	677b      	str	r3, [r7, #116]	@ 0x74
 8008a48:	687b      	ldr	r3, [r7, #4]
 8008a4a:	f8b3 3050 	ldrh.w	r3, [r3, #80]	@ 0x50
 8008a4e:	b29b      	uxth	r3, r3
 8008a50:	461a      	mov	r2, r3
 8008a52:	6f7b      	ldr	r3, [r7, #116]	@ 0x74
 8008a54:	4413      	add	r3, r2
 8008a56:	677b      	str	r3, [r7, #116]	@ 0x74
 8008a58:	683b      	ldr	r3, [r7, #0]
 8008a5a:	781b      	ldrb	r3, [r3, #0]
 8008a5c:	00da      	lsls	r2, r3, #3
 8008a5e:	6f7b      	ldr	r3, [r7, #116]	@ 0x74
 8008a60:	4413      	add	r3, r2
 8008a62:	f203 4304 	addw	r3, r3, #1028	@ 0x404
 8008a66:	673b      	str	r3, [r7, #112]	@ 0x70
 8008a68:	683b      	ldr	r3, [r7, #0]
 8008a6a:	895b      	ldrh	r3, [r3, #10]
 8008a6c:	085b      	lsrs	r3, r3, #1
 8008a6e:	b29b      	uxth	r3, r3
 8008a70:	005b      	lsls	r3, r3, #1
 8008a72:	b29a      	uxth	r2, r3
 8008a74:	6f3b      	ldr	r3, [r7, #112]	@ 0x70
 8008a76:	801a      	strh	r2, [r3, #0]
 8008a78:	683b      	ldr	r3, [r7, #0]
 8008a7a:	785b      	ldrb	r3, [r3, #1]
 8008a7c:	2b00      	cmp	r3, #0
 8008a7e:	f040 81af 	bne.w	8008de0 <USB_ActivateEndpoint+0x844>
 8008a82:	687a      	ldr	r2, [r7, #4]
 8008a84:	683b      	ldr	r3, [r7, #0]
 8008a86:	781b      	ldrb	r3, [r3, #0]
 8008a88:	009b      	lsls	r3, r3, #2
 8008a8a:	4413      	add	r3, r2
 8008a8c:	881b      	ldrh	r3, [r3, #0]
 8008a8e:	f8a7 3060 	strh.w	r3, [r7, #96]	@ 0x60
 8008a92:	f8b7 3060 	ldrh.w	r3, [r7, #96]	@ 0x60
 8008a96:	f403 4380 	and.w	r3, r3, #16384	@ 0x4000
 8008a9a:	2b00      	cmp	r3, #0
 8008a9c:	d01d      	beq.n	8008ada <USB_ActivateEndpoint+0x53e>
 8008a9e:	687a      	ldr	r2, [r7, #4]
 8008aa0:	683b      	ldr	r3, [r7, #0]
 8008aa2:	781b      	ldrb	r3, [r3, #0]
 8008aa4:	009b      	lsls	r3, r3, #2
 8008aa6:	4413      	add	r3, r2
 8008aa8:	881b      	ldrh	r3, [r3, #0]
 8008aaa:	b29b      	uxth	r3, r3
 8008aac:	f423 43e0 	bic.w	r3, r3, #28672	@ 0x7000
 8008ab0:	f023 0370 	bic.w	r3, r3, #112	@ 0x70
 8008ab4:	f8a7 305e 	strh.w	r3, [r7, #94]	@ 0x5e
 8008ab8:	687a      	ldr	r2, [r7, #4]
 8008aba:	683b      	ldr	r3, [r7, #0]
 8008abc:	781b      	ldrb	r3, [r3, #0]
 8008abe:	009b      	lsls	r3, r3, #2
 8008ac0:	441a      	add	r2, r3
 8008ac2:	f8b7 305e 	ldrh.w	r3, [r7, #94]	@ 0x5e
 8008ac6:	f043 437f 	orr.w	r3, r3, #4278190080	@ 0xff000000
 8008aca:	f443 037f 	orr.w	r3, r3, #16711680	@ 0xff0000
 8008ace:	f443 4340 	orr.w	r3, r3, #49152	@ 0xc000
 8008ad2:	f043 0380 	orr.w	r3, r3, #128	@ 0x80
 8008ad6:	b29b      	uxth	r3, r3
 8008ad8:	8013      	strh	r3, [r2, #0]
 8008ada:	687a      	ldr	r2, [r7, #4]
 8008adc:	683b      	ldr	r3, [r7, #0]
 8008ade:	781b      	ldrb	r3, [r3, #0]
 8008ae0:	009b      	lsls	r3, r3, #2
 8008ae2:	4413      	add	r3, r2
 8008ae4:	881b      	ldrh	r3, [r3, #0]
 8008ae6:	f8a7 305c 	strh.w	r3, [r7, #92]	@ 0x5c
 8008aea:	f8b7 305c 	ldrh.w	r3, [r7, #92]	@ 0x5c
 8008aee:	f003 0340 	and.w	r3, r3, #64	@ 0x40
 8008af2:	2b00      	cmp	r3, #0
 8008af4:	d01d      	beq.n	8008b32 <USB_ActivateEndpoint+0x596>
 8008af6:	687a      	ldr	r2, [r7, #4]
 8008af8:	683b      	ldr	r3, [r7, #0]
 8008afa:	781b      	ldrb	r3, [r3, #0]
 8008afc:	009b      	lsls	r3, r3, #2
 8008afe:	4413      	add	r3, r2
 8008b00:	881b      	ldrh	r3, [r3, #0]
 8008b02:	b29b      	uxth	r3, r3
 8008b04:	f423 43e0 	bic.w	r3, r3, #28672	@ 0x7000
 8008b08:	f023 0370 	bic.w	r3, r3, #112	@ 0x70
 8008b0c:	f8a7 305a 	strh.w	r3, [r7, #90]	@ 0x5a
 8008b10:	687a      	ldr	r2, [r7, #4]
 8008b12:	683b      	ldr	r3, [r7, #0]
 8008b14:	781b      	ldrb	r3, [r3, #0]
 8008b16:	009b      	lsls	r3, r3, #2
 8008b18:	441a      	add	r2, r3
 8008b1a:	f8b7 305a 	ldrh.w	r3, [r7, #90]	@ 0x5a
 8008b1e:	f043 437f 	orr.w	r3, r3, #4278190080	@ 0xff000000
 8008b22:	f443 037f 	orr.w	r3, r3, #16711680	@ 0xff0000
 8008b26:	f443 4300 	orr.w	r3, r3, #32768	@ 0x8000
 8008b2a:	f043 03c0 	orr.w	r3, r3, #192	@ 0xc0
 8008b2e:	b29b      	uxth	r3, r3
 8008b30:	8013      	strh	r3, [r2, #0]
 8008b32:	683b      	ldr	r3, [r7, #0]
 8008b34:	785b      	ldrb	r3, [r3, #1]
 8008b36:	2b00      	cmp	r3, #0
 8008b38:	d16b      	bne.n	8008c12 <USB_ActivateEndpoint+0x676>
 8008b3a:	687b      	ldr	r3, [r7, #4]
 8008b3c:	64fb      	str	r3, [r7, #76]	@ 0x4c
 8008b3e:	687b      	ldr	r3, [r7, #4]
 8008b40:	f8b3 3050 	ldrh.w	r3, [r3, #80]	@ 0x50
 8008b44:	b29b      	uxth	r3, r3
 8008b46:	461a      	mov	r2, r3
 8008b48:	6cfb      	ldr	r3, [r7, #76]	@ 0x4c
 8008b4a:	4413      	add	r3, r2
 8008b4c:	64fb      	str	r3, [r7, #76]	@ 0x4c
 8008b4e:	683b      	ldr	r3, [r7, #0]
 8008b50:	781b      	ldrb	r3, [r3, #0]
 8008b52:	00da      	lsls	r2, r3, #3
 8008b54:	6cfb      	ldr	r3, [r7, #76]	@ 0x4c
 8008b56:	4413      	add	r3, r2
 8008b58:	f203 4302 	addw	r3, r3, #1026	@ 0x402
 8008b5c:	64bb      	str	r3, [r7, #72]	@ 0x48
 8008b5e:	6cbb      	ldr	r3, [r7, #72]	@ 0x48
 8008b60:	881b      	ldrh	r3, [r3, #0]
 8008b62:	b29b      	uxth	r3, r3
 8008b64:	f3c3 0309 	ubfx	r3, r3, #0, #10
 8008b68:	b29a      	uxth	r2, r3
 8008b6a:	6cbb      	ldr	r3, [r7, #72]	@ 0x48
 8008b6c:	801a      	strh	r2, [r3, #0]
 8008b6e:	683b      	ldr	r3, [r7, #0]
 8008b70:	691b      	ldr	r3, [r3, #16]
 8008b72:	2b00      	cmp	r3, #0
 8008b74:	d10a      	bne.n	8008b8c <USB_ActivateEndpoint+0x5f0>
 8008b76:	6cbb      	ldr	r3, [r7, #72]	@ 0x48
 8008b78:	881b      	ldrh	r3, [r3, #0]
 8008b7a:	b29b      	uxth	r3, r3
 8008b7c:	ea6f 4343 	mvn.w	r3, r3, lsl #17
 8008b80:	ea6f 4353 	mvn.w	r3, r3, lsr #17
 8008b84:	b29a      	uxth	r2, r3
 8008b86:	6cbb      	ldr	r3, [r7, #72]	@ 0x48
 8008b88:	801a      	strh	r2, [r3, #0]
 8008b8a:	e05d      	b.n	8008c48 <USB_ActivateEndpoint+0x6ac>
 8008b8c:	683b      	ldr	r3, [r7, #0]
 8008b8e:	691b      	ldr	r3, [r3, #16]
 8008b90:	2b3e      	cmp	r3, #62	@ 0x3e
 8008b92:	d81c      	bhi.n	8008bce <USB_ActivateEndpoint+0x632>
 8008b94:	683b      	ldr	r3, [r7, #0]
 8008b96:	691b      	ldr	r3, [r3, #16]
 8008b98:	085b      	lsrs	r3, r3, #1
 8008b9a:	f8c7 308c 	str.w	r3, [r7, #140]	@ 0x8c
 8008b9e:	683b      	ldr	r3, [r7, #0]
 8008ba0:	691b      	ldr	r3, [r3, #16]
 8008ba2:	f003 0301 	and.w	r3, r3, #1
 8008ba6:	2b00      	cmp	r3, #0
 8008ba8:	d004      	beq.n	8008bb4 <USB_ActivateEndpoint+0x618>
 8008baa:	f8d7 308c 	ldr.w	r3, [r7, #140]	@ 0x8c
 8008bae:	3301      	adds	r3, #1
 8008bb0:	f8c7 308c 	str.w	r3, [r7, #140]	@ 0x8c
 8008bb4:	6cbb      	ldr	r3, [r7, #72]	@ 0x48
 8008bb6:	881b      	ldrh	r3, [r3, #0]
 8008bb8:	b29a      	uxth	r2, r3
 8008bba:	f8d7 308c 	ldr.w	r3, [r7, #140]	@ 0x8c
 8008bbe:	b29b      	uxth	r3, r3
 8008bc0:	029b      	lsls	r3, r3, #10
 8008bc2:	b29b      	uxth	r3, r3
 8008bc4:	4313      	orrs	r3, r2
 8008bc6:	b29a      	uxth	r2, r3
 8008bc8:	6cbb      	ldr	r3, [r7, #72]	@ 0x48
 8008bca:	801a      	strh	r2, [r3, #0]
 8008bcc:	e03c      	b.n	8008c48 <USB_ActivateEndpoint+0x6ac>
 8008bce:	683b      	ldr	r3, [r7, #0]
 8008bd0:	691b      	ldr	r3, [r3, #16]
 8008bd2:	095b      	lsrs	r3, r3, #5
 8008bd4:	f8c7 308c 	str.w	r3, [r7, #140]	@ 0x8c
 8008bd8:	683b      	ldr	r3, [r7, #0]
 8008bda:	691b      	ldr	r3, [r3, #16]
 8008bdc:	f003 031f 	and.w	r3, r3, #31
 8008be0:	2b00      	cmp	r3, #0
 8008be2:	d104      	bne.n	8008bee <USB_ActivateEndpoint+0x652>
 8008be4:	f8d7 308c 	ldr.w	r3, [r7, #140]	@ 0x8c
 8008be8:	3b01      	subs	r3, #1
 8008bea:	f8c7 308c 	str.w	r3, [r7, #140]	@ 0x8c
 8008bee:	6cbb      	ldr	r3, [r7, #72]	@ 0x48
 8008bf0:	881b      	ldrh	r3, [r3, #0]
 8008bf2:	b29a      	uxth	r2, r3
 8008bf4:	f8d7 308c 	ldr.w	r3, [r7, #140]	@ 0x8c
 8008bf8:	b29b      	uxth	r3, r3
 8008bfa:	029b      	lsls	r3, r3, #10
 8008bfc:	b29b      	uxth	r3, r3
 8008bfe:	4313      	orrs	r3, r2
 8008c00:	b29b      	uxth	r3, r3
 8008c02:	ea6f 4343 	mvn.w	r3, r3, lsl #17
 8008c06:	ea6f 4353 	mvn.w	r3, r3, lsr #17
 8008c0a:	b29a      	uxth	r2, r3
 8008c0c:	6cbb      	ldr	r3, [r7, #72]	@ 0x48
 8008c0e:	801a      	strh	r2, [r3, #0]
 8008c10:	e01a      	b.n	8008c48 <USB_ActivateEndpoint+0x6ac>
 8008c12:	683b      	ldr	r3, [r7, #0]
 8008c14:	785b      	ldrb	r3, [r3, #1]
 8008c16:	2b01      	cmp	r3, #1
 8008c18:	d116      	bne.n	8008c48 <USB_ActivateEndpoint+0x6ac>
 8008c1a:	687b      	ldr	r3, [r7, #4]
 8008c1c:	657b      	str	r3, [r7, #84]	@ 0x54
 8008c1e:	687b      	ldr	r3, [r7, #4]
 8008c20:	f8b3 3050 	ldrh.w	r3, [r3, #80]	@ 0x50
 8008c24:	b29b      	uxth	r3, r3
 8008c26:	461a      	mov	r2, r3
 8008c28:	6d7b      	ldr	r3, [r7, #84]	@ 0x54
 8008c2a:	4413      	add	r3, r2
 8008c2c:	657b      	str	r3, [r7, #84]	@ 0x54
 8008c2e:	683b      	ldr	r3, [r7, #0]
 8008c30:	781b      	ldrb	r3, [r3, #0]
 8008c32:	00da      	lsls	r2, r3, #3
 8008c34:	6d7b      	ldr	r3, [r7, #84]	@ 0x54
 8008c36:	4413      	add	r3, r2
 8008c38:	f203 4302 	addw	r3, r3, #1026	@ 0x402
 8008c3c:	653b      	str	r3, [r7, #80]	@ 0x50
 8008c3e:	683b      	ldr	r3, [r7, #0]
 8008c40:	691b      	ldr	r3, [r3, #16]
 8008c42:	b29a      	uxth	r2, r3
 8008c44:	6d3b      	ldr	r3, [r7, #80]	@ 0x50
 8008c46:	801a      	strh	r2, [r3, #0]
 8008c48:	687b      	ldr	r3, [r7, #4]
 8008c4a:	647b      	str	r3, [r7, #68]	@ 0x44
 8008c4c:	683b      	ldr	r3, [r7, #0]
 8008c4e:	785b      	ldrb	r3, [r3, #1]
 8008c50:	2b00      	cmp	r3, #0
 8008c52:	d16b      	bne.n	8008d2c <USB_ActivateEndpoint+0x790>
 8008c54:	687b      	ldr	r3, [r7, #4]
 8008c56:	63fb      	str	r3, [r7, #60]	@ 0x3c
 8008c58:	687b      	ldr	r3, [r7, #4]
 8008c5a:	f8b3 3050 	ldrh.w	r3, [r3, #80]	@ 0x50
 8008c5e:	b29b      	uxth	r3, r3
 8008c60:	461a      	mov	r2, r3
 8008c62:	6bfb      	ldr	r3, [r7, #60]	@ 0x3c
 8008c64:	4413      	add	r3, r2
 8008c66:	63fb      	str	r3, [r7, #60]	@ 0x3c
 8008c68:	683b      	ldr	r3, [r7, #0]
 8008c6a:	781b      	ldrb	r3, [r3, #0]
 8008c6c:	00da      	lsls	r2, r3, #3
 8008c6e:	6bfb      	ldr	r3, [r7, #60]	@ 0x3c
 8008c70:	4413      	add	r3, r2
 8008c72:	f203 4306 	addw	r3, r3, #1030	@ 0x406
 8008c76:	63bb      	str	r3, [r7, #56]	@ 0x38
 8008c78:	6bbb      	ldr	r3, [r7, #56]	@ 0x38
 8008c7a:	881b      	ldrh	r3, [r3, #0]
 8008c7c:	b29b      	uxth	r3, r3
 8008c7e:	f3c3 0309 	ubfx	r3, r3, #0, #10
 8008c82:	b29a      	uxth	r2, r3
 8008c84:	6bbb      	ldr	r3, [r7, #56]	@ 0x38
 8008c86:	801a      	strh	r2, [r3, #0]
 8008c88:	683b      	ldr	r3, [r7, #0]
 8008c8a:	691b      	ldr	r3, [r3, #16]
 8008c8c:	2b00      	cmp	r3, #0
 8008c8e:	d10a      	bne.n	8008ca6 <USB_ActivateEndpoint+0x70a>
 8008c90:	6bbb      	ldr	r3, [r7, #56]	@ 0x38
 8008c92:	881b      	ldrh	r3, [r3, #0]
 8008c94:	b29b      	uxth	r3, r3
 8008c96:	ea6f 4343 	mvn.w	r3, r3, lsl #17
 8008c9a:	ea6f 4353 	mvn.w	r3, r3, lsr #17
 8008c9e:	b29a      	uxth	r2, r3
 8008ca0:	6bbb      	ldr	r3, [r7, #56]	@ 0x38
 8008ca2:	801a      	strh	r2, [r3, #0]
 8008ca4:	e05b      	b.n	8008d5e <USB_ActivateEndpoint+0x7c2>
 8008ca6:	683b      	ldr	r3, [r7, #0]
 8008ca8:	691b      	ldr	r3, [r3, #16]
 8008caa:	2b3e      	cmp	r3, #62	@ 0x3e
 8008cac:	d81c      	bhi.n	8008ce8 <USB_ActivateEndpoint+0x74c>
 8008cae:	683b      	ldr	r3, [r7, #0]
 8008cb0:	691b      	ldr	r3, [r3, #16]
 8008cb2:	085b      	lsrs	r3, r3, #1
 8008cb4:	f8c7 3088 	str.w	r3, [r7, #136]	@ 0x88
 8008cb8:	683b      	ldr	r3, [r7, #0]
 8008cba:	691b      	ldr	r3, [r3, #16]
 8008cbc:	f003 0301 	and.w	r3, r3, #1
 8008cc0:	2b00      	cmp	r3, #0
 8008cc2:	d004      	beq.n	8008cce <USB_ActivateEndpoint+0x732>
 8008cc4:	f8d7 3088 	ldr.w	r3, [r7, #136]	@ 0x88
 8008cc8:	3301      	adds	r3, #1
 8008cca:	f8c7 3088 	str.w	r3, [r7, #136]	@ 0x88
 8008cce:	6bbb      	ldr	r3, [r7, #56]	@ 0x38
 8008cd0:	881b      	ldrh	r3, [r3, #0]
 8008cd2:	b29a      	uxth	r2, r3
 8008cd4:	f8d7 3088 	ldr.w	r3, [r7, #136]	@ 0x88
 8008cd8:	b29b      	uxth	r3, r3
 8008cda:	029b      	lsls	r3, r3, #10
 8008cdc:	b29b      	uxth	r3, r3
 8008cde:	4313      	orrs	r3, r2
 8008ce0:	b29a      	uxth	r2, r3
 8008ce2:	6bbb      	ldr	r3, [r7, #56]	@ 0x38
 8008ce4:	801a      	strh	r2, [r3, #0]
 8008ce6:	e03a      	b.n	8008d5e <USB_ActivateEndpoint+0x7c2>
 8008ce8:	683b      	ldr	r3, [r7, #0]
 8008cea:	691b      	ldr	r3, [r3, #16]
 8008cec:	095b      	lsrs	r3, r3, #5
 8008cee:	f8c7 3088 	str.w	r3, [r7, #136]	@ 0x88
 8008cf2:	683b      	ldr	r3, [r7, #0]
 8008cf4:	691b      	ldr	r3, [r3, #16]
 8008cf6:	f003 031f 	and.w	r3, r3, #31
 8008cfa:	2b00      	cmp	r3, #0
 8008cfc:	d104      	bne.n	8008d08 <USB_ActivateEndpoint+0x76c>
 8008cfe:	f8d7 3088 	ldr.w	r3, [r7, #136]	@ 0x88
 8008d02:	3b01      	subs	r3, #1
 8008d04:	f8c7 3088 	str.w	r3, [r7, #136]	@ 0x88
 8008d08:	6bbb      	ldr	r3, [r7, #56]	@ 0x38
 8008d0a:	881b      	ldrh	r3, [r3, #0]
 8008d0c:	b29a      	uxth	r2, r3
 8008d0e:	f8d7 3088 	ldr.w	r3, [r7, #136]	@ 0x88
 8008d12:	b29b      	uxth	r3, r3
 8008d14:	029b      	lsls	r3, r3, #10
 8008d16:	b29b      	uxth	r3, r3
 8008d18:	4313      	orrs	r3, r2
 8008d1a:	b29b      	uxth	r3, r3
 8008d1c:	ea6f 4343 	mvn.w	r3, r3, lsl #17
 8008d20:	ea6f 4353 	mvn.w	r3, r3, lsr #17
 8008d24:	b29a      	uxth	r2, r3
 8008d26:	6bbb      	ldr	r3, [r7, #56]	@ 0x38
 8008d28:	801a      	strh	r2, [r3, #0]
 8008d2a:	e018      	b.n	8008d5e <USB_ActivateEndpoint+0x7c2>
 8008d2c:	683b      	ldr	r3, [r7, #0]
 8008d2e:	785b      	ldrb	r3, [r3, #1]
 8008d30:	2b01      	cmp	r3, #1
 8008d32:	d114      	bne.n	8008d5e <USB_ActivateEndpoint+0x7c2>
 8008d34:	687b      	ldr	r3, [r7, #4]
 8008d36:	f8b3 3050 	ldrh.w	r3, [r3, #80]	@ 0x50
 8008d3a:	b29b      	uxth	r3, r3
 8008d3c:	461a      	mov	r2, r3
 8008d3e:	6c7b      	ldr	r3, [r7, #68]	@ 0x44
 8008d40:	4413      	add	r3, r2
 8008d42:	647b      	str	r3, [r7, #68]	@ 0x44
 8008d44:	683b      	ldr	r3, [r7, #0]
 8008d46:	781b      	ldrb	r3, [r3, #0]
 8008d48:	00da      	lsls	r2, r3, #3
 8008d4a:	6c7b      	ldr	r3, [r7, #68]	@ 0x44
 8008d4c:	4413      	add	r3, r2
 8008d4e:	f203 4306 	addw	r3, r3, #1030	@ 0x406
 8008d52:	643b      	str	r3, [r7, #64]	@ 0x40
 8008d54:	683b      	ldr	r3, [r7, #0]
 8008d56:	691b      	ldr	r3, [r3, #16]
 8008d58:	b29a      	uxth	r2, r3
 8008d5a:	6c3b      	ldr	r3, [r7, #64]	@ 0x40
 8008d5c:	801a      	strh	r2, [r3, #0]
 8008d5e:	687a      	ldr	r2, [r7, #4]
 8008d60:	683b      	ldr	r3, [r7, #0]
 8008d62:	781b      	ldrb	r3, [r3, #0]
 8008d64:	009b      	lsls	r3, r3, #2
 8008d66:	4413      	add	r3, r2
 8008d68:	881b      	ldrh	r3, [r3, #0]
 8008d6a:	b29b      	uxth	r3, r3
 8008d6c:	f423 4380 	bic.w	r3, r3, #16384	@ 0x4000
 8008d70:	f023 0370 	bic.w	r3, r3, #112	@ 0x70
 8008d74:	86fb      	strh	r3, [r7, #54]	@ 0x36
 8008d76:	8efb      	ldrh	r3, [r7, #54]	@ 0x36
 8008d78:	f483 5380 	eor.w	r3, r3, #4096	@ 0x1000
 8008d7c:	86fb      	strh	r3, [r7, #54]	@ 0x36
 8008d7e:	8efb      	ldrh	r3, [r7, #54]	@ 0x36
 8008d80:	f483 5300 	eor.w	r3, r3, #8192	@ 0x2000
 8008d84:	86fb      	strh	r3, [r7, #54]	@ 0x36
 8008d86:	687a      	ldr	r2, [r7, #4]
 8008d88:	683b      	ldr	r3, [r7, #0]
 8008d8a:	781b      	ldrb	r3, [r3, #0]
 8008d8c:	009b      	lsls	r3, r3, #2
 8008d8e:	441a      	add	r2, r3
 8008d90:	8efb      	ldrh	r3, [r7, #54]	@ 0x36
 8008d92:	f043 437f 	orr.w	r3, r3, #4278190080	@ 0xff000000
 8008d96:	f443 037f 	orr.w	r3, r3, #16711680	@ 0xff0000
 8008d9a:	f443 4300 	orr.w	r3, r3, #32768	@ 0x8000
 8008d9e:	f043 0380 	orr.w	r3, r3, #128	@ 0x80
 8008da2:	b29b      	uxth	r3, r3
 8008da4:	8013      	strh	r3, [r2, #0]
 8008da6:	687a      	ldr	r2, [r7, #4]
 8008da8:	683b      	ldr	r3, [r7, #0]
 8008daa:	781b      	ldrb	r3, [r3, #0]
 8008dac:	009b      	lsls	r3, r3, #2
 8008dae:	4413      	add	r3, r2
 8008db0:	881b      	ldrh	r3, [r3, #0]
 8008db2:	b29b      	uxth	r3, r3
 8008db4:	f423 43e0 	bic.w	r3, r3, #28672	@ 0x7000
 8008db8:	f023 0340 	bic.w	r3, r3, #64	@ 0x40
 8008dbc:	86bb      	strh	r3, [r7, #52]	@ 0x34
 8008dbe:	687a      	ldr	r2, [r7, #4]
 8008dc0:	683b      	ldr	r3, [r7, #0]
 8008dc2:	781b      	ldrb	r3, [r3, #0]
 8008dc4:	009b      	lsls	r3, r3, #2
 8008dc6:	441a      	add	r2, r3
 8008dc8:	8ebb      	ldrh	r3, [r7, #52]	@ 0x34
 8008dca:	f043 437f 	orr.w	r3, r3, #4278190080	@ 0xff000000
 8008dce:	f443 037f 	orr.w	r3, r3, #16711680	@ 0xff0000
 8008dd2:	f443 4300 	orr.w	r3, r3, #32768	@ 0x8000
 8008dd6:	f043 0380 	orr.w	r3, r3, #128	@ 0x80
 8008dda:	b29b      	uxth	r3, r3
 8008ddc:	8013      	strh	r3, [r2, #0]
 8008dde:	e0bc      	b.n	8008f5a <USB_ActivateEndpoint+0x9be>
 8008de0:	687a      	ldr	r2, [r7, #4]
 8008de2:	683b      	ldr	r3, [r7, #0]
 8008de4:	781b      	ldrb	r3, [r3, #0]
 8008de6:	009b      	lsls	r3, r3, #2
 8008de8:	4413      	add	r3, r2
 8008dea:	881b      	ldrh	r3, [r3, #0]
 8008dec:	f8a7 306e 	strh.w	r3, [r7, #110]	@ 0x6e
 8008df0:	f8b7 306e 	ldrh.w	r3, [r7, #110]	@ 0x6e
 8008df4:	f403 4380 	and.w	r3, r3, #16384	@ 0x4000
 8008df8:	2b00      	cmp	r3, #0
 8008dfa:	d01d      	beq.n	8008e38 <USB_ActivateEndpoint+0x89c>
 8008dfc:	687a      	ldr	r2, [r7, #4]
 8008dfe:	683b      	ldr	r3, [r7, #0]
 8008e00:	781b      	ldrb	r3, [r3, #0]
 8008e02:	009b      	lsls	r3, r3, #2
 8008e04:	4413      	add	r3, r2
 8008e06:	881b      	ldrh	r3, [r3, #0]
 8008e08:	b29b      	uxth	r3, r3
 8008e0a:	f423 43e0 	bic.w	r3, r3, #28672	@ 0x7000
 8008e0e:	f023 0370 	bic.w	r3, r3, #112	@ 0x70
 8008e12:	f8a7 306c 	strh.w	r3, [r7, #108]	@ 0x6c
 8008e16:	687a      	ldr	r2, [r7, #4]
 8008e18:	683b      	ldr	r3, [r7, #0]
 8008e1a:	781b      	ldrb	r3, [r3, #0]
 8008e1c:	009b      	lsls	r3, r3, #2
 8008e1e:	441a      	add	r2, r3
 8008e20:	f8b7 306c 	ldrh.w	r3, [r7, #108]	@ 0x6c
 8008e24:	f043 437f 	orr.w	r3, r3, #4278190080	@ 0xff000000
 8008e28:	f443 037f 	orr.w	r3, r3, #16711680	@ 0xff0000
 8008e2c:	f443 4340 	orr.w	r3, r3, #49152	@ 0xc000
 8008e30:	f043 0380 	orr.w	r3, r3, #128	@ 0x80
 8008e34:	b29b      	uxth	r3, r3
 8008e36:	8013      	strh	r3, [r2, #0]
 8008e38:	687a      	ldr	r2, [r7, #4]
 8008e3a:	683b      	ldr	r3, [r7, #0]
 8008e3c:	781b      	ldrb	r3, [r3, #0]
 8008e3e:	009b      	lsls	r3, r3, #2
 8008e40:	4413      	add	r3, r2
 8008e42:	881b      	ldrh	r3, [r3, #0]
 8008e44:	f8a7 306a 	strh.w	r3, [r7, #106]	@ 0x6a
 8008e48:	f8b7 306a 	ldrh.w	r3, [r7, #106]	@ 0x6a
 8008e4c:	f003 0340 	and.w	r3, r3, #64	@ 0x40
 8008e50:	2b00      	cmp	r3, #0
 8008e52:	d01d      	beq.n	8008e90 <USB_ActivateEndpoint+0x8f4>
 8008e54:	687a      	ldr	r2, [r7, #4]
 8008e56:	683b      	ldr	r3, [r7, #0]
 8008e58:	781b      	ldrb	r3, [r3, #0]
 8008e5a:	009b      	lsls	r3, r3, #2
 8008e5c:	4413      	add	r3, r2
 8008e5e:	881b      	ldrh	r3, [r3, #0]
 8008e60:	b29b      	uxth	r3, r3
 8008e62:	f423 43e0 	bic.w	r3, r3, #28672	@ 0x7000
 8008e66:	f023 0370 	bic.w	r3, r3, #112	@ 0x70
 8008e6a:	f8a7 3068 	strh.w	r3, [r7, #104]	@ 0x68
 8008e6e:	687a      	ldr	r2, [r7, #4]
 8008e70:	683b      	ldr	r3, [r7, #0]
 8008e72:	781b      	ldrb	r3, [r3, #0]
 8008e74:	009b      	lsls	r3, r3, #2
 8008e76:	441a      	add	r2, r3
 8008e78:	f8b7 3068 	ldrh.w	r3, [r7, #104]	@ 0x68
 8008e7c:	f043 437f 	orr.w	r3, r3, #4278190080	@ 0xff000000
 8008e80:	f443 037f 	orr.w	r3, r3, #16711680	@ 0xff0000
 8008e84:	f443 4300 	orr.w	r3, r3, #32768	@ 0x8000
 8008e88:	f043 03c0 	orr.w	r3, r3, #192	@ 0xc0
 8008e8c:	b29b      	uxth	r3, r3
 8008e8e:	8013      	strh	r3, [r2, #0]
 8008e90:	683b      	ldr	r3, [r7, #0]
 8008e92:	78db      	ldrb	r3, [r3, #3]
 8008e94:	2b01      	cmp	r3, #1
 8008e96:	d024      	beq.n	8008ee2 <USB_ActivateEndpoint+0x946>
 8008e98:	687a      	ldr	r2, [r7, #4]
 8008e9a:	683b      	ldr	r3, [r7, #0]
 8008e9c:	781b      	ldrb	r3, [r3, #0]
 8008e9e:	009b      	lsls	r3, r3, #2
 8008ea0:	4413      	add	r3, r2
 8008ea2:	881b      	ldrh	r3, [r3, #0]
 8008ea4:	b29b      	uxth	r3, r3
 8008ea6:	f423 43e0 	bic.w	r3, r3, #28672	@ 0x7000
 8008eaa:	f023 0340 	bic.w	r3, r3, #64	@ 0x40
 8008eae:	f8a7 3064 	strh.w	r3, [r7, #100]	@ 0x64
 8008eb2:	f8b7 3064 	ldrh.w	r3, [r7, #100]	@ 0x64
 8008eb6:	f083 0320 	eor.w	r3, r3, #32
 8008eba:	f8a7 3064 	strh.w	r3, [r7, #100]	@ 0x64
 8008ebe:	687a      	ldr	r2, [r7, #4]
 8008ec0:	683b      	ldr	r3, [r7, #0]
 8008ec2:	781b      	ldrb	r3, [r3, #0]
 8008ec4:	009b      	lsls	r3, r3, #2
 8008ec6:	441a      	add	r2, r3
 8008ec8:	f8b7 3064 	ldrh.w	r3, [r7, #100]	@ 0x64
 8008ecc:	f043 437f 	orr.w	r3, r3, #4278190080	@ 0xff000000
 8008ed0:	f443 037f 	orr.w	r3, r3, #16711680	@ 0xff0000
 8008ed4:	f443 4300 	orr.w	r3, r3, #32768	@ 0x8000
 8008ed8:	f043 0380 	orr.w	r3, r3, #128	@ 0x80
 8008edc:	b29b      	uxth	r3, r3
 8008ede:	8013      	strh	r3, [r2, #0]
 8008ee0:	e01d      	b.n	8008f1e <USB_ActivateEndpoint+0x982>
 8008ee2:	687a      	ldr	r2, [r7, #4]
 8008ee4:	683b      	ldr	r3, [r7, #0]
 8008ee6:	781b      	ldrb	r3, [r3, #0]
 8008ee8:	009b      	lsls	r3, r3, #2
 8008eea:	4413      	add	r3, r2
 8008eec:	881b      	ldrh	r3, [r3, #0]
 8008eee:	b29b      	uxth	r3, r3
 8008ef0:	f423 43e0 	bic.w	r3, r3, #28672	@ 0x7000
 8008ef4:	f023 0340 	bic.w	r3, r3, #64	@ 0x40
 8008ef8:	f8a7 3066 	strh.w	r3, [r7, #102]	@ 0x66
 8008efc:	687a      	ldr	r2, [r7, #4]
 8008efe:	683b      	ldr	r3, [r7, #0]
 8008f00:	781b      	ldrb	r3, [r3, #0]
 8008f02:	009b      	lsls	r3, r3, #2
 8008f04:	441a      	add	r2, r3
 8008f06:	f8b7 3066 	ldrh.w	r3, [r7, #102]	@ 0x66
 8008f0a:	f043 437f 	orr.w	r3, r3, #4278190080	@ 0xff000000
 8008f0e:	f443 037f 	orr.w	r3, r3, #16711680	@ 0xff0000
 8008f12:	f443 4300 	orr.w	r3, r3, #32768	@ 0x8000
 8008f16:	f043 0380 	orr.w	r3, r3, #128	@ 0x80
 8008f1a:	b29b      	uxth	r3, r3
 8008f1c:	8013      	strh	r3, [r2, #0]
 8008f1e:	687a      	ldr	r2, [r7, #4]
 8008f20:	683b      	ldr	r3, [r7, #0]
 8008f22:	781b      	ldrb	r3, [r3, #0]
 8008f24:	009b      	lsls	r3, r3, #2
 8008f26:	4413      	add	r3, r2
 8008f28:	881b      	ldrh	r3, [r3, #0]
 8008f2a:	b29b      	uxth	r3, r3
 8008f2c:	f423 4380 	bic.w	r3, r3, #16384	@ 0x4000
 8008f30:	f023 0370 	bic.w	r3, r3, #112	@ 0x70
 8008f34:	f8a7 3062 	strh.w	r3, [r7, #98]	@ 0x62
 8008f38:	687a      	ldr	r2, [r7, #4]
 8008f3a:	683b      	ldr	r3, [r7, #0]
 8008f3c:	781b      	ldrb	r3, [r3, #0]
 8008f3e:	009b      	lsls	r3, r3, #2
 8008f40:	441a      	add	r2, r3
 8008f42:	f8b7 3062 	ldrh.w	r3, [r7, #98]	@ 0x62
 8008f46:	f043 437f 	orr.w	r3, r3, #4278190080	@ 0xff000000
 8008f4a:	f443 037f 	orr.w	r3, r3, #16711680	@ 0xff0000
 8008f4e:	f443 4300 	orr.w	r3, r3, #32768	@ 0x8000
 8008f52:	f043 0380 	orr.w	r3, r3, #128	@ 0x80
 8008f56:	b29b      	uxth	r3, r3
 8008f58:	8013      	strh	r3, [r2, #0]
 8008f5a:	f897 3097 	ldrb.w	r3, [r7, #151]	@ 0x97
 8008f5e:	4618      	mov	r0, r3
 8008f60:	379c      	adds	r7, #156	@ 0x9c
 8008f62:	46bd      	mov	sp, r7
 8008f64:	f85d 7b04 	ldr.w	r7, [sp], #4
 8008f68:	4770      	bx	lr
 8008f6a:	bf00      	nop

08008f6c <USB_DeactivateEndpoint>:
 8008f6c:	b480      	push	{r7}
 8008f6e:	b08d      	sub	sp, #52	@ 0x34
 8008f70:	af00      	add	r7, sp, #0
 8008f72:	6078      	str	r0, [r7, #4]
 8008f74:	6039      	str	r1, [r7, #0]
 8008f76:	683b      	ldr	r3, [r7, #0]
 8008f78:	7b1b      	ldrb	r3, [r3, #12]
 8008f7a:	2b00      	cmp	r3, #0
 8008f7c:	f040 808e 	bne.w	800909c <USB_DeactivateEndpoint+0x130>
 8008f80:	683b      	ldr	r3, [r7, #0]
 8008f82:	785b      	ldrb	r3, [r3, #1]
 8008f84:	2b00      	cmp	r3, #0
 8008f86:	d044      	beq.n	8009012 <USB_DeactivateEndpoint+0xa6>
 8008f88:	687a      	ldr	r2, [r7, #4]
 8008f8a:	683b      	ldr	r3, [r7, #0]
 8008f8c:	781b      	ldrb	r3, [r3, #0]
 8008f8e:	009b      	lsls	r3, r3, #2
 8008f90:	4413      	add	r3, r2
 8008f92:	881b      	ldrh	r3, [r3, #0]
 8008f94:	81bb      	strh	r3, [r7, #12]
 8008f96:	89bb      	ldrh	r3, [r7, #12]
 8008f98:	f003 0340 	and.w	r3, r3, #64	@ 0x40
 8008f9c:	2b00      	cmp	r3, #0
 8008f9e:	d01b      	beq.n	8008fd8 <USB_DeactivateEndpoint+0x6c>
 8008fa0:	687a      	ldr	r2, [r7, #4]
 8008fa2:	683b      	ldr	r3, [r7, #0]
 8008fa4:	781b      	ldrb	r3, [r3, #0]
 8008fa6:	009b      	lsls	r3, r3, #2
 8008fa8:	4413      	add	r3, r2
 8008faa:	881b      	ldrh	r3, [r3, #0]
 8008fac:	b29b      	uxth	r3, r3
 8008fae:	f423 43e0 	bic.w	r3, r3, #28672	@ 0x7000
 8008fb2:	f023 0370 	bic.w	r3, r3, #112	@ 0x70
 8008fb6:	817b      	strh	r3, [r7, #10]
 8008fb8:	687a      	ldr	r2, [r7, #4]
 8008fba:	683b      	ldr	r3, [r7, #0]
 8008fbc:	781b      	ldrb	r3, [r3, #0]
 8008fbe:	009b      	lsls	r3, r3, #2
 8008fc0:	441a      	add	r2, r3
 8008fc2:	897b      	ldrh	r3, [r7, #10]
 8008fc4:	f043 437f 	orr.w	r3, r3, #4278190080	@ 0xff000000
 8008fc8:	f443 037f 	orr.w	r3, r3, #16711680	@ 0xff0000
 8008fcc:	f443 4300 	orr.w	r3, r3, #32768	@ 0x8000
 8008fd0:	f043 03c0 	orr.w	r3, r3, #192	@ 0xc0
 8008fd4:	b29b      	uxth	r3, r3
 8008fd6:	8013      	strh	r3, [r2, #0]
 8008fd8:	687a      	ldr	r2, [r7, #4]
 8008fda:	683b      	ldr	r3, [r7, #0]
 8008fdc:	781b      	ldrb	r3, [r3, #0]
 8008fde:	009b      	lsls	r3, r3, #2
 8008fe0:	4413      	add	r3, r2
 8008fe2:	881b      	ldrh	r3, [r3, #0]
 8008fe4:	b29b      	uxth	r3, r3
 8008fe6:	f423 43e0 	bic.w	r3, r3, #28672	@ 0x7000
 8008fea:	f023 0340 	bic.w	r3, r3, #64	@ 0x40
 8008fee:	813b      	strh	r3, [r7, #8]
 8008ff0:	687a      	ldr	r2, [r7, #4]
 8008ff2:	683b      	ldr	r3, [r7, #0]
 8008ff4:	781b      	ldrb	r3, [r3, #0]
 8008ff6:	009b      	lsls	r3, r3, #2
 8008ff8:	441a      	add	r2, r3
 8008ffa:	893b      	ldrh	r3, [r7, #8]
 8008ffc:	f043 437f 	orr.w	r3, r3, #4278190080	@ 0xff000000
 8009000:	f443 037f 	orr.w	r3, r3, #16711680	@ 0xff0000
 8009004:	f443 4300 	orr.w	r3, r3, #32768	@ 0x8000
 8009008:	f043 0380 	orr.w	r3, r3, #128	@ 0x80
 800900c:	b29b      	uxth	r3, r3
 800900e:	8013      	strh	r3, [r2, #0]
 8009010:	e192      	b.n	8009338 <USB_DeactivateEndpoint+0x3cc>
 8009012:	687a      	ldr	r2, [r7, #4]
 8009014:	683b      	ldr	r3, [r7, #0]
 8009016:	781b      	ldrb	r3, [r3, #0]
 8009018:	009b      	lsls	r3, r3, #2
 800901a:	4413      	add	r3, r2
 800901c:	881b      	ldrh	r3, [r3, #0]
 800901e:	827b      	strh	r3, [r7, #18]
 8009020:	8a7b      	ldrh	r3, [r7, #18]
 8009022:	f403 4380 	and.w	r3, r3, #16384	@ 0x4000
 8009026:	2b00      	cmp	r3, #0
 8009028:	d01b      	beq.n	8009062 <USB_DeactivateEndpoint+0xf6>
 800902a:	687a      	ldr	r2, [r7, #4]
 800902c:	683b      	ldr	r3, [r7, #0]
 800902e:	781b      	ldrb	r3, [r3, #0]
 8009030:	009b      	lsls	r3, r3, #2
 8009032:	4413      	add	r3, r2
 8009034:	881b      	ldrh	r3, [r3, #0]
 8009036:	b29b      	uxth	r3, r3
 8009038:	f423 43e0 	bic.w	r3, r3, #28672	@ 0x7000
 800903c:	f023 0370 	bic.w	r3, r3, #112	@ 0x70
 8009040:	823b      	strh	r3, [r7, #16]
 8009042:	687a      	ldr	r2, [r7, #4]
 8009044:	683b      	ldr	r3, [r7, #0]
 8009046:	781b      	ldrb	r3, [r3, #0]
 8009048:	009b      	lsls	r3, r3, #2
 800904a:	441a      	add	r2, r3
 800904c:	8a3b      	ldrh	r3, [r7, #16]
 800904e:	f043 437f 	orr.w	r3, r3, #4278190080	@ 0xff000000
 8009052:	f443 037f 	orr.w	r3, r3, #16711680	@ 0xff0000
 8009056:	f443 4340 	orr.w	r3, r3, #49152	@ 0xc000
 800905a:	f043 0380 	orr.w	r3, r3, #128	@ 0x80
 800905e:	b29b      	uxth	r3, r3
 8009060:	8013      	strh	r3, [r2, #0]
 8009062:	687a      	ldr	r2, [r7, #4]
 8009064:	683b      	ldr	r3, [r7, #0]
 8009066:	781b      	ldrb	r3, [r3, #0]
 8009068:	009b      	lsls	r3, r3, #2
 800906a:	4413      	add	r3, r2
 800906c:	881b      	ldrh	r3, [r3, #0]
 800906e:	b29b      	uxth	r3, r3
 8009070:	f423 4380 	bic.w	r3, r3, #16384	@ 0x4000
 8009074:	f023 0370 	bic.w	r3, r3, #112	@ 0x70
 8009078:	81fb      	strh	r3, [r7, #14]
 800907a:	687a      	ldr	r2, [r7, #4]
 800907c:	683b      	ldr	r3, [r7, #0]
 800907e:	781b      	ldrb	r3, [r3, #0]
 8009080:	009b      	lsls	r3, r3, #2
 8009082:	441a      	add	r2, r3
 8009084:	89fb      	ldrh	r3, [r7, #14]
 8009086:	f043 437f 	orr.w	r3, r3, #4278190080	@ 0xff000000
 800908a:	f443 037f 	orr.w	r3, r3, #16711680	@ 0xff0000
 800908e:	f443 4300 	orr.w	r3, r3, #32768	@ 0x8000
 8009092:	f043 0380 	orr.w	r3, r3, #128	@ 0x80
 8009096:	b29b      	uxth	r3, r3
 8009098:	8013      	strh	r3, [r2, #0]
 800909a:	e14d      	b.n	8009338 <USB_DeactivateEndpoint+0x3cc>
 800909c:	683b      	ldr	r3, [r7, #0]
 800909e:	785b      	ldrb	r3, [r3, #1]
 80090a0:	2b00      	cmp	r3, #0
 80090a2:	f040 80a5 	bne.w	80091f0 <USB_DeactivateEndpoint+0x284>
 80090a6:	687a      	ldr	r2, [r7, #4]
 80090a8:	683b      	ldr	r3, [r7, #0]
 80090aa:	781b      	ldrb	r3, [r3, #0]
 80090ac:	009b      	lsls	r3, r3, #2
 80090ae:	4413      	add	r3, r2
 80090b0:	881b      	ldrh	r3, [r3, #0]
 80090b2:	843b      	strh	r3, [r7, #32]
 80090b4:	8c3b      	ldrh	r3, [r7, #32]
 80090b6:	f403 4380 	and.w	r3, r3, #16384	@ 0x4000
 80090ba:	2b00      	cmp	r3, #0
 80090bc:	d01b      	beq.n	80090f6 <USB_DeactivateEndpoint+0x18a>
 80090be:	687a      	ldr	r2, [r7, #4]
 80090c0:	683b      	ldr	r3, [r7, #0]
 80090c2:	781b      	ldrb	r3, [r3, #0]
 80090c4:	009b      	lsls	r3, r3, #2
 80090c6:	4413      	add	r3, r2
 80090c8:	881b      	ldrh	r3, [r3, #0]
 80090ca:	b29b      	uxth	r3, r3
 80090cc:	f423 43e0 	bic.w	r3, r3, #28672	@ 0x7000
 80090d0:	f023 0370 	bic.w	r3, r3, #112	@ 0x70
 80090d4:	83fb      	strh	r3, [r7, #30]
 80090d6:	687a      	ldr	r2, [r7, #4]
 80090d8:	683b      	ldr	r3, [r7, #0]
 80090da:	781b      	ldrb	r3, [r3, #0]
 80090dc:	009b      	lsls	r3, r3, #2
 80090de:	441a      	add	r2, r3
 80090e0:	8bfb      	ldrh	r3, [r7, #30]
 80090e2:	f043 437f 	orr.w	r3, r3, #4278190080	@ 0xff000000
 80090e6:	f443 037f 	orr.w	r3, r3, #16711680	@ 0xff0000
 80090ea:	f443 4340 	orr.w	r3, r3, #49152	@ 0xc000
 80090ee:	f043 0380 	orr.w	r3, r3, #128	@ 0x80
 80090f2:	b29b      	uxth	r3, r3
 80090f4:	8013      	strh	r3, [r2, #0]
 80090f6:	687a      	ldr	r2, [r7, #4]
 80090f8:	683b      	ldr	r3, [r7, #0]
 80090fa:	781b      	ldrb	r3, [r3, #0]
 80090fc:	009b      	lsls	r3, r3, #2
 80090fe:	4413      	add	r3, r2
 8009100:	881b      	ldrh	r3, [r3, #0]
 8009102:	83bb      	strh	r3, [r7, #28]
 8009104:	8bbb      	ldrh	r3, [r7, #28]
 8009106:	f003 0340 	and.w	r3, r3, #64	@ 0x40
 800910a:	2b00      	cmp	r3, #0
 800910c:	d01b      	beq.n	8009146 <USB_DeactivateEndpoint+0x1da>
 800910e:	687a      	ldr	r2, [r7, #4]
 8009110:	683b      	ldr	r3, [r7, #0]
 8009112:	781b      	ldrb	r3, [r3, #0]
 8009114:	009b      	lsls	r3, r3, #2
 8009116:	4413      	add	r3, r2
 8009118:	881b      	ldrh	r3, [r3, #0]
 800911a:	b29b      	uxth	r3, r3
 800911c:	f423 43e0 	bic.w	r3, r3, #28672	@ 0x7000
 8009120:	f023 0370 	bic.w	r3, r3, #112	@ 0x70
 8009124:	837b      	strh	r3, [r7, #26]
 8009126:	687a      	ldr	r2, [r7, #4]
 8009128:	683b      	ldr	r3, [r7, #0]
 800912a:	781b      	ldrb	r3, [r3, #0]
 800912c:	009b      	lsls	r3, r3, #2
 800912e:	441a      	add	r2, r3
 8009130:	8b7b      	ldrh	r3, [r7, #26]
 8009132:	f043 437f 	orr.w	r3, r3, #4278190080	@ 0xff000000
 8009136:	f443 037f 	orr.w	r3, r3, #16711680	@ 0xff0000
 800913a:	f443 4300 	orr.w	r3, r3, #32768	@ 0x8000
 800913e:	f043 03c0 	orr.w	r3, r3, #192	@ 0xc0
 8009142:	b29b      	uxth	r3, r3
 8009144:	8013      	strh	r3, [r2, #0]
 8009146:	687a      	ldr	r2, [r7, #4]
 8009148:	683b      	ldr	r3, [r7, #0]
 800914a:	781b      	ldrb	r3, [r3, #0]
 800914c:	009b      	lsls	r3, r3, #2
 800914e:	4413      	add	r3, r2
 8009150:	881b      	ldrh	r3, [r3, #0]
 8009152:	b29b      	uxth	r3, r3
 8009154:	f423 43e0 	bic.w	r3, r3, #28672	@ 0x7000
 8009158:	f023 0370 	bic.w	r3, r3, #112	@ 0x70
 800915c:	833b      	strh	r3, [r7, #24]
 800915e:	687a      	ldr	r2, [r7, #4]
 8009160:	683b      	ldr	r3, [r7, #0]
 8009162:	781b      	ldrb	r3, [r3, #0]
 8009164:	009b      	lsls	r3, r3, #2
 8009166:	441a      	add	r2, r3
 8009168:	8b3b      	ldrh	r3, [r7, #24]
 800916a:	f043 437f 	orr.w	r3, r3, #4278190080	@ 0xff000000
 800916e:	f443 037f 	orr.w	r3, r3, #16711680	@ 0xff0000
 8009172:	f443 4300 	orr.w	r3, r3, #32768	@ 0x8000
 8009176:	f043 03c0 	orr.w	r3, r3, #192	@ 0xc0
 800917a:	b29b      	uxth	r3, r3
 800917c:	8013      	strh	r3, [r2, #0]
 800917e:	687a      	ldr	r2, [r7, #4]
 8009180:	683b      	ldr	r3, [r7, #0]
 8009182:	781b      	ldrb	r3, [r3, #0]
 8009184:	009b      	lsls	r3, r3, #2
 8009186:	4413      	add	r3, r2
 8009188:	881b      	ldrh	r3, [r3, #0]
 800918a:	b29b      	uxth	r3, r3
 800918c:	f423 4380 	bic.w	r3, r3, #16384	@ 0x4000
 8009190:	f023 0370 	bic.w	r3, r3, #112	@ 0x70
 8009194:	82fb      	strh	r3, [r7, #22]
 8009196:	687a      	ldr	r2, [r7, #4]
 8009198:	683b      	ldr	r3, [r7, #0]
 800919a:	781b      	ldrb	r3, [r3, #0]
 800919c:	009b      	lsls	r3, r3, #2
 800919e:	441a      	add	r2, r3
 80091a0:	8afb      	ldrh	r3, [r7, #22]
 80091a2:	f043 437f 	orr.w	r3, r3, #4278190080	@ 0xff000000
 80091a6:	f443 037f 	orr.w	r3, r3, #16711680	@ 0xff0000
 80091aa:	f443 4300 	orr.w	r3, r3, #32768	@ 0x8000
 80091ae:	f043 0380 	orr.w	r3, r3, #128	@ 0x80
 80091b2:	b29b      	uxth	r3, r3
 80091b4:	8013      	strh	r3, [r2, #0]
 80091b6:	687a      	ldr	r2, [r7, #4]
 80091b8:	683b      	ldr	r3, [r7, #0]
 80091ba:	781b      	ldrb	r3, [r3, #0]
 80091bc:	009b      	lsls	r3, r3, #2
 80091be:	4413      	add	r3, r2
 80091c0:	881b      	ldrh	r3, [r3, #0]
 80091c2:	b29b      	uxth	r3, r3
 80091c4:	f423 43e0 	bic.w	r3, r3, #28672	@ 0x7000
 80091c8:	f023 0340 	bic.w	r3, r3, #64	@ 0x40
 80091cc:	82bb      	strh	r3, [r7, #20]
 80091ce:	687a      	ldr	r2, [r7, #4]
 80091d0:	683b      	ldr	r3, [r7, #0]
 80091d2:	781b      	ldrb	r3, [r3, #0]
 80091d4:	009b      	lsls	r3, r3, #2
 80091d6:	441a      	add	r2, r3
 80091d8:	8abb      	ldrh	r3, [r7, #20]
 80091da:	f043 437f 	orr.w	r3, r3, #4278190080	@ 0xff000000
 80091de:	f443 037f 	orr.w	r3, r3, #16711680	@ 0xff0000
 80091e2:	f443 4300 	orr.w	r3, r3, #32768	@ 0x8000
 80091e6:	f043 0380 	orr.w	r3, r3, #128	@ 0x80
 80091ea:	b29b      	uxth	r3, r3
 80091ec:	8013      	strh	r3, [r2, #0]
 80091ee:	e0a3      	b.n	8009338 <USB_DeactivateEndpoint+0x3cc>
 80091f0:	687a      	ldr	r2, [r7, #4]
 80091f2:	683b      	ldr	r3, [r7, #0]
 80091f4:	781b      	ldrb	r3, [r3, #0]
 80091f6:	009b      	lsls	r3, r3, #2
 80091f8:	4413      	add	r3, r2
 80091fa:	881b      	ldrh	r3, [r3, #0]
 80091fc:	85fb      	strh	r3, [r7, #46]	@ 0x2e
 80091fe:	8dfb      	ldrh	r3, [r7, #46]	@ 0x2e
 8009200:	f403 4380 	and.w	r3, r3, #16384	@ 0x4000
 8009204:	2b00      	cmp	r3, #0
 8009206:	d01b      	beq.n	8009240 <USB_DeactivateEndpoint+0x2d4>
 8009208:	687a      	ldr	r2, [r7, #4]
 800920a:	683b      	ldr	r3, [r7, #0]
 800920c:	781b      	ldrb	r3, [r3, #0]
 800920e:	009b      	lsls	r3, r3, #2
 8009210:	4413      	add	r3, r2
 8009212:	881b      	ldrh	r3, [r3, #0]
 8009214:	b29b      	uxth	r3, r3
 8009216:	f423 43e0 	bic.w	r3, r3, #28672	@ 0x7000
 800921a:	f023 0370 	bic.w	r3, r3, #112	@ 0x70
 800921e:	85bb      	strh	r3, [r7, #44]	@ 0x2c
 8009220:	687a      	ldr	r2, [r7, #4]
 8009222:	683b      	ldr	r3, [r7, #0]
 8009224:	781b      	ldrb	r3, [r3, #0]
 8009226:	009b      	lsls	r3, r3, #2
 8009228:	441a      	add	r2, r3
 800922a:	8dbb      	ldrh	r3, [r7, #44]	@ 0x2c
 800922c:	f043 437f 	orr.w	r3, r3, #4278190080	@ 0xff000000
 8009230:	f443 037f 	orr.w	r3, r3, #16711680	@ 0xff0000
 8009234:	f443 4340 	orr.w	r3, r3, #49152	@ 0xc000
 8009238:	f043 0380 	orr.w	r3, r3, #128	@ 0x80
 800923c:	b29b      	uxth	r3, r3
 800923e:	8013      	strh	r3, [r2, #0]
 8009240:	687a      	ldr	r2, [r7, #4]
 8009242:	683b      	ldr	r3, [r7, #0]
 8009244:	781b      	ldrb	r3, [r3, #0]
 8009246:	009b      	lsls	r3, r3, #2
 8009248:	4413      	add	r3, r2
 800924a:	881b      	ldrh	r3, [r3, #0]
 800924c:	857b      	strh	r3, [r7, #42]	@ 0x2a
 800924e:	8d7b      	ldrh	r3, [r7, #42]	@ 0x2a
 8009250:	f003 0340 	and.w	r3, r3, #64	@ 0x40
 8009254:	2b00      	cmp	r3, #0
 8009256:	d01b      	beq.n	8009290 <USB_DeactivateEndpoint+0x324>
 8009258:	687a      	ldr	r2, [r7, #4]
 800925a:	683b      	ldr	r3, [r7, #0]
 800925c:	781b      	ldrb	r3, [r3, #0]
 800925e:	009b      	lsls	r3, r3, #2
 8009260:	4413      	add	r3, r2
 8009262:	881b      	ldrh	r3, [r3, #0]
 8009264:	b29b      	uxth	r3, r3
 8009266:	f423 43e0 	bic.w	r3, r3, #28672	@ 0x7000
 800926a:	f023 0370 	bic.w	r3, r3, #112	@ 0x70
 800926e:	853b      	strh	r3, [r7, #40]	@ 0x28
 8009270:	687a      	ldr	r2, [r7, #4]
 8009272:	683b      	ldr	r3, [r7, #0]
 8009274:	781b      	ldrb	r3, [r3, #0]
 8009276:	009b      	lsls	r3, r3, #2
 8009278:	441a      	add	r2, r3
 800927a:	8d3b      	ldrh	r3, [r7, #40]	@ 0x28
 800927c:	f043 437f 	orr.w	r3, r3, #4278190080	@ 0xff000000
 8009280:	f443 037f 	orr.w	r3, r3, #16711680	@ 0xff0000
 8009284:	f443 4300 	orr.w	r3, r3, #32768	@ 0x8000
 8009288:	f043 03c0 	orr.w	r3, r3, #192	@ 0xc0
 800928c:	b29b      	uxth	r3, r3
 800928e:	8013      	strh	r3, [r2, #0]
 8009290:	687a      	ldr	r2, [r7, #4]
 8009292:	683b      	ldr	r3, [r7, #0]
 8009294:	781b      	ldrb	r3, [r3, #0]
 8009296:	009b      	lsls	r3, r3, #2
 8009298:	4413      	add	r3, r2
 800929a:	881b      	ldrh	r3, [r3, #0]
 800929c:	b29b      	uxth	r3, r3
 800929e:	f423 43e0 	bic.w	r3, r3, #28672	@ 0x7000
 80092a2:	f023 0370 	bic.w	r3, r3, #112	@ 0x70
 80092a6:	84fb      	strh	r3, [r7, #38]	@ 0x26
 80092a8:	687a      	ldr	r2, [r7, #4]
 80092aa:	683b      	ldr	r3, [r7, #0]
 80092ac:	781b      	ldrb	r3, [r3, #0]
 80092ae:	009b      	lsls	r3, r3, #2
 80092b0:	441a      	add	r2, r3
 80092b2:	8cfb      	ldrh	r3, [r7, #38]	@ 0x26
 80092b4:	f043 437f 	orr.w	r3, r3, #4278190080	@ 0xff000000
 80092b8:	f443 037f 	orr.w	r3, r3, #16711680	@ 0xff0000
 80092bc:	f443 4340 	orr.w	r3, r3, #49152	@ 0xc000
 80092c0:	f043 0380 	orr.w	r3, r3, #128	@ 0x80
 80092c4:	b29b      	uxth	r3, r3
 80092c6:	8013      	strh	r3, [r2, #0]
 80092c8:	687a      	ldr	r2, [r7, #4]
 80092ca:	683b      	ldr	r3, [r7, #0]
 80092cc:	781b      	ldrb	r3, [r3, #0]
 80092ce:	009b      	lsls	r3, r3, #2
 80092d0:	4413      	add	r3, r2
 80092d2:	881b      	ldrh	r3, [r3, #0]
 80092d4:	b29b      	uxth	r3, r3
 80092d6:	f423 43e0 	bic.w	r3, r3, #28672	@ 0x7000
 80092da:	f023 0340 	bic.w	r3, r3, #64	@ 0x40
 80092de:	84bb      	strh	r3, [r7, #36]	@ 0x24
 80092e0:	687a      	ldr	r2, [r7, #4]
 80092e2:	683b      	ldr	r3, [r7, #0]
 80092e4:	781b      	ldrb	r3, [r3, #0]
 80092e6:	009b      	lsls	r3, r3, #2
 80092e8:	441a      	add	r2, r3
 80092ea:	8cbb      	ldrh	r3, [r7, #36]	@ 0x24
 80092ec:	f043 437f 	orr.w	r3, r3, #4278190080	@ 0xff000000
 80092f0:	f443 037f 	orr.w	r3, r3, #16711680	@ 0xff0000
 80092f4:	f443 4300 	orr.w	r3, r3, #32768	@ 0x8000
 80092f8:	f043 0380 	orr.w	r3, r3, #128	@ 0x80
 80092fc:	b29b      	uxth	r3, r3
 80092fe:	8013      	strh	r3, [r2, #0]
 8009300:	687a      	ldr	r2, [r7, #4]
 8009302:	683b      	ldr	r3, [r7, #0]
 8009304:	781b      	ldrb	r3, [r3, #0]
 8009306:	009b      	lsls	r3, r3, #2
 8009308:	4413      	add	r3, r2
 800930a:	881b      	ldrh	r3, [r3, #0]
 800930c:	b29b      	uxth	r3, r3
 800930e:	f423 4380 	bic.w	r3, r3, #16384	@ 0x4000
 8009312:	f023 0370 	bic.w	r3, r3, #112	@ 0x70
 8009316:	847b      	strh	r3, [r7, #34]	@ 0x22
 8009318:	687a      	ldr	r2, [r7, #4]
 800931a:	683b      	ldr	r3, [r7, #0]
 800931c:	781b      	ldrb	r3, [r3, #0]
 800931e:	009b      	lsls	r3, r3, #2
 8009320:	441a      	add	r2, r3
 8009322:	8c7b      	ldrh	r3, [r7, #34]	@ 0x22
 8009324:	f043 437f 	orr.w	r3, r3, #4278190080	@ 0xff000000
 8009328:	f443 037f 	orr.w	r3, r3, #16711680	@ 0xff0000
 800932c:	f443 4300 	orr.w	r3, r3, #32768	@ 0x8000
 8009330:	f043 0380 	orr.w	r3, r3, #128	@ 0x80
 8009334:	b29b      	uxth	r3, r3
 8009336:	8013      	strh	r3, [r2, #0]
 8009338:	2300      	movs	r3, #0
 800933a:	4618      	mov	r0, r3
 800933c:	3734      	adds	r7, #52	@ 0x34
 800933e:	46bd      	mov	sp, r7
 8009340:	f85d 7b04 	ldr.w	r7, [sp], #4
 8009344:	4770      	bx	lr

08009346 <USB_EPStartXfer>:
 8009346:	b580      	push	{r7, lr}
 8009348:	b0ac      	sub	sp, #176	@ 0xb0
 800934a:	af00      	add	r7, sp, #0
 800934c:	6078      	str	r0, [r7, #4]
 800934e:	6039      	str	r1, [r7, #0]
 8009350:	683b      	ldr	r3, [r7, #0]
 8009352:	785b      	ldrb	r3, [r3, #1]
 8009354:	2b01      	cmp	r3, #1
 8009356:	f040 84ca 	bne.w	8009cee <USB_EPStartXfer+0x9a8>
 800935a:	683b      	ldr	r3, [r7, #0]
 800935c:	699a      	ldr	r2, [r3, #24]
 800935e:	683b      	ldr	r3, [r7, #0]
 8009360:	691b      	ldr	r3, [r3, #16]
 8009362:	429a      	cmp	r2, r3
 8009364:	d904      	bls.n	8009370 <USB_EPStartXfer+0x2a>
 8009366:	683b      	ldr	r3, [r7, #0]
 8009368:	691b      	ldr	r3, [r3, #16]
 800936a:	f8c7 30ac 	str.w	r3, [r7, #172]	@ 0xac
 800936e:	e003      	b.n	8009378 <USB_EPStartXfer+0x32>
 8009370:	683b      	ldr	r3, [r7, #0]
 8009372:	699b      	ldr	r3, [r3, #24]
 8009374:	f8c7 30ac 	str.w	r3, [r7, #172]	@ 0xac
 8009378:	683b      	ldr	r3, [r7, #0]
 800937a:	7b1b      	ldrb	r3, [r3, #12]
 800937c:	2b00      	cmp	r3, #0
 800937e:	d122      	bne.n	80093c6 <USB_EPStartXfer+0x80>
 8009380:	683b      	ldr	r3, [r7, #0]
 8009382:	6959      	ldr	r1, [r3, #20]
 8009384:	683b      	ldr	r3, [r7, #0]
 8009386:	88da      	ldrh	r2, [r3, #6]
 8009388:	f8d7 30ac 	ldr.w	r3, [r7, #172]	@ 0xac
 800938c:	b29b      	uxth	r3, r3
 800938e:	6878      	ldr	r0, [r7, #4]
 8009390:	f000 febd 	bl	800a10e <USB_WritePMA>
 8009394:	687b      	ldr	r3, [r7, #4]
 8009396:	613b      	str	r3, [r7, #16]
 8009398:	687b      	ldr	r3, [r7, #4]
 800939a:	f8b3 3050 	ldrh.w	r3, [r3, #80]	@ 0x50
 800939e:	b29b      	uxth	r3, r3
 80093a0:	461a      	mov	r2, r3
 80093a2:	693b      	ldr	r3, [r7, #16]
 80093a4:	4413      	add	r3, r2
 80093a6:	613b      	str	r3, [r7, #16]
 80093a8:	683b      	ldr	r3, [r7, #0]
 80093aa:	781b      	ldrb	r3, [r3, #0]
 80093ac:	00da      	lsls	r2, r3, #3
 80093ae:	693b      	ldr	r3, [r7, #16]
 80093b0:	4413      	add	r3, r2
 80093b2:	f203 4302 	addw	r3, r3, #1026	@ 0x402
 80093b6:	60fb      	str	r3, [r7, #12]
 80093b8:	f8d7 30ac 	ldr.w	r3, [r7, #172]	@ 0xac
 80093bc:	b29a      	uxth	r2, r3
 80093be:	68fb      	ldr	r3, [r7, #12]
 80093c0:	801a      	strh	r2, [r3, #0]
 80093c2:	f000 bc6f 	b.w	8009ca4 <USB_EPStartXfer+0x95e>
 80093c6:	683b      	ldr	r3, [r7, #0]
 80093c8:	78db      	ldrb	r3, [r3, #3]
 80093ca:	2b02      	cmp	r3, #2
 80093cc:	f040 831e 	bne.w	8009a0c <USB_EPStartXfer+0x6c6>
 80093d0:	683b      	ldr	r3, [r7, #0]
 80093d2:	6a1a      	ldr	r2, [r3, #32]
 80093d4:	683b      	ldr	r3, [r7, #0]
 80093d6:	691b      	ldr	r3, [r3, #16]
 80093d8:	429a      	cmp	r2, r3
 80093da:	f240 82cf 	bls.w	800997c <USB_EPStartXfer+0x636>
 80093de:	687a      	ldr	r2, [r7, #4]
 80093e0:	683b      	ldr	r3, [r7, #0]
 80093e2:	781b      	ldrb	r3, [r3, #0]
 80093e4:	009b      	lsls	r3, r3, #2
 80093e6:	4413      	add	r3, r2
 80093e8:	881b      	ldrh	r3, [r3, #0]
 80093ea:	b29b      	uxth	r3, r3
 80093ec:	f423 43e0 	bic.w	r3, r3, #28672	@ 0x7000
 80093f0:	f023 0370 	bic.w	r3, r3, #112	@ 0x70
 80093f4:	f8a7 3056 	strh.w	r3, [r7, #86]	@ 0x56
 80093f8:	687a      	ldr	r2, [r7, #4]
 80093fa:	683b      	ldr	r3, [r7, #0]
 80093fc:	781b      	ldrb	r3, [r3, #0]
 80093fe:	009b      	lsls	r3, r3, #2
 8009400:	441a      	add	r2, r3
 8009402:	f8b7 3056 	ldrh.w	r3, [r7, #86]	@ 0x56
 8009406:	f043 437f 	orr.w	r3, r3, #4278190080	@ 0xff000000
 800940a:	f443 037f 	orr.w	r3, r3, #16711680	@ 0xff0000
 800940e:	f443 4301 	orr.w	r3, r3, #33024	@ 0x8100
 8009412:	f043 0380 	orr.w	r3, r3, #128	@ 0x80
 8009416:	b29b      	uxth	r3, r3
 8009418:	8013      	strh	r3, [r2, #0]
 800941a:	683b      	ldr	r3, [r7, #0]
 800941c:	6a1a      	ldr	r2, [r3, #32]
 800941e:	f8d7 30ac 	ldr.w	r3, [r7, #172]	@ 0xac
 8009422:	1ad2      	subs	r2, r2, r3
 8009424:	683b      	ldr	r3, [r7, #0]
 8009426:	621a      	str	r2, [r3, #32]
 8009428:	687a      	ldr	r2, [r7, #4]
 800942a:	683b      	ldr	r3, [r7, #0]
 800942c:	781b      	ldrb	r3, [r3, #0]
 800942e:	009b      	lsls	r3, r3, #2
 8009430:	4413      	add	r3, r2
 8009432:	881b      	ldrh	r3, [r3, #0]
 8009434:	b29b      	uxth	r3, r3
 8009436:	f003 0340 	and.w	r3, r3, #64	@ 0x40
 800943a:	2b00      	cmp	r3, #0
 800943c:	f000 814f 	beq.w	80096de <USB_EPStartXfer+0x398>
 8009440:	687b      	ldr	r3, [r7, #4]
 8009442:	633b      	str	r3, [r7, #48]	@ 0x30
 8009444:	683b      	ldr	r3, [r7, #0]
 8009446:	785b      	ldrb	r3, [r3, #1]
 8009448:	2b00      	cmp	r3, #0
 800944a:	d16b      	bne.n	8009524 <USB_EPStartXfer+0x1de>
 800944c:	687b      	ldr	r3, [r7, #4]
 800944e:	62bb      	str	r3, [r7, #40]	@ 0x28
 8009450:	687b      	ldr	r3, [r7, #4]
 8009452:	f8b3 3050 	ldrh.w	r3, [r3, #80]	@ 0x50
 8009456:	b29b      	uxth	r3, r3
 8009458:	461a      	mov	r2, r3
 800945a:	6abb      	ldr	r3, [r7, #40]	@ 0x28
 800945c:	4413      	add	r3, r2
 800945e:	62bb      	str	r3, [r7, #40]	@ 0x28
 8009460:	683b      	ldr	r3, [r7, #0]
 8009462:	781b      	ldrb	r3, [r3, #0]
 8009464:	00da      	lsls	r2, r3, #3
 8009466:	6abb      	ldr	r3, [r7, #40]	@ 0x28
 8009468:	4413      	add	r3, r2
 800946a:	f203 4306 	addw	r3, r3, #1030	@ 0x406
 800946e:	627b      	str	r3, [r7, #36]	@ 0x24
 8009470:	6a7b      	ldr	r3, [r7, #36]	@ 0x24
 8009472:	881b      	ldrh	r3, [r3, #0]
 8009474:	b29b      	uxth	r3, r3
 8009476:	f3c3 0309 	ubfx	r3, r3, #0, #10
 800947a:	b29a      	uxth	r2, r3
 800947c:	6a7b      	ldr	r3, [r7, #36]	@ 0x24
 800947e:	801a      	strh	r2, [r3, #0]
 8009480:	f8d7 30ac 	ldr.w	r3, [r7, #172]	@ 0xac
 8009484:	2b00      	cmp	r3, #0
 8009486:	d10a      	bne.n	800949e <USB_EPStartXfer+0x158>
 8009488:	6a7b      	ldr	r3, [r7, #36]	@ 0x24
 800948a:	881b      	ldrh	r3, [r3, #0]
 800948c:	b29b      	uxth	r3, r3
 800948e:	ea6f 4343 	mvn.w	r3, r3, lsl #17
 8009492:	ea6f 4353 	mvn.w	r3, r3, lsr #17
 8009496:	b29a      	uxth	r2, r3
 8009498:	6a7b      	ldr	r3, [r7, #36]	@ 0x24
 800949a:	801a      	strh	r2, [r3, #0]
 800949c:	e05b      	b.n	8009556 <USB_EPStartXfer+0x210>
 800949e:	f8d7 30ac 	ldr.w	r3, [r7, #172]	@ 0xac
 80094a2:	2b3e      	cmp	r3, #62	@ 0x3e
 80094a4:	d81c      	bhi.n	80094e0 <USB_EPStartXfer+0x19a>
 80094a6:	f8d7 30ac 	ldr.w	r3, [r7, #172]	@ 0xac
 80094aa:	085b      	lsrs	r3, r3, #1
 80094ac:	f8c7 30a8 	str.w	r3, [r7, #168]	@ 0xa8
 80094b0:	f8d7 30ac 	ldr.w	r3, [r7, #172]	@ 0xac
 80094b4:	f003 0301 	and.w	r3, r3, #1
 80094b8:	2b00      	cmp	r3, #0
 80094ba:	d004      	beq.n	80094c6 <USB_EPStartXfer+0x180>
 80094bc:	f8d7 30a8 	ldr.w	r3, [r7, #168]	@ 0xa8
 80094c0:	3301      	adds	r3, #1
 80094c2:	f8c7 30a8 	str.w	r3, [r7, #168]	@ 0xa8
 80094c6:	6a7b      	ldr	r3, [r7, #36]	@ 0x24
 80094c8:	881b      	ldrh	r3, [r3, #0]
 80094ca:	b29a      	uxth	r2, r3
 80094cc:	f8d7 30a8 	ldr.w	r3, [r7, #168]	@ 0xa8
 80094d0:	b29b      	uxth	r3, r3
 80094d2:	029b      	lsls	r3, r3, #10
 80094d4:	b29b      	uxth	r3, r3
 80094d6:	4313      	orrs	r3, r2
 80094d8:	b29a      	uxth	r2, r3
 80094da:	6a7b      	ldr	r3, [r7, #36]	@ 0x24
 80094dc:	801a      	strh	r2, [r3, #0]
 80094de:	e03a      	b.n	8009556 <USB_EPStartXfer+0x210>
 80094e0:	f8d7 30ac 	ldr.w	r3, [r7, #172]	@ 0xac
 80094e4:	095b      	lsrs	r3, r3, #5
 80094e6:	f8c7 30a8 	str.w	r3, [r7, #168]	@ 0xa8
 80094ea:	f8d7 30ac 	ldr.w	r3, [r7, #172]	@ 0xac
 80094ee:	f003 031f 	and.w	r3, r3, #31
 80094f2:	2b00      	cmp	r3, #0
 80094f4:	d104      	bne.n	8009500 <USB_EPStartXfer+0x1ba>
 80094f6:	f8d7 30a8 	ldr.w	r3, [r7, #168]	@ 0xa8
 80094fa:	3b01      	subs	r3, #1
 80094fc:	f8c7 30a8 	str.w	r3, [r7, #168]	@ 0xa8
 8009500:	6a7b      	ldr	r3, [r7, #36]	@ 0x24
 8009502:	881b      	ldrh	r3, [r3, #0]
 8009504:	b29a      	uxth	r2, r3
 8009506:	f8d7 30a8 	ldr.w	r3, [r7, #168]	@ 0xa8
 800950a:	b29b      	uxth	r3, r3
 800950c:	029b      	lsls	r3, r3, #10
 800950e:	b29b      	uxth	r3, r3
 8009510:	4313      	orrs	r3, r2
 8009512:	b29b      	uxth	r3, r3
 8009514:	ea6f 4343 	mvn.w	r3, r3, lsl #17
 8009518:	ea6f 4353 	mvn.w	r3, r3, lsr #17
 800951c:	b29a      	uxth	r2, r3
 800951e:	6a7b      	ldr	r3, [r7, #36]	@ 0x24
 8009520:	801a      	strh	r2, [r3, #0]
 8009522:	e018      	b.n	8009556 <USB_EPStartXfer+0x210>
 8009524:	683b      	ldr	r3, [r7, #0]
 8009526:	785b      	ldrb	r3, [r3, #1]
 8009528:	2b01      	cmp	r3, #1
 800952a:	d114      	bne.n	8009556 <USB_EPStartXfer+0x210>
 800952c:	687b      	ldr	r3, [r7, #4]
 800952e:	f8b3 3050 	ldrh.w	r3, [r3, #80]	@ 0x50
 8009532:	b29b      	uxth	r3, r3
 8009534:	461a      	mov	r2, r3
 8009536:	6b3b      	ldr	r3, [r7, #48]	@ 0x30
 8009538:	4413      	add	r3, r2
 800953a:	633b      	str	r3, [r7, #48]	@ 0x30
 800953c:	683b      	ldr	r3, [r7, #0]
 800953e:	781b      	ldrb	r3, [r3, #0]
 8009540:	00da      	lsls	r2, r3, #3
 8009542:	6b3b      	ldr	r3, [r7, #48]	@ 0x30
 8009544:	4413      	add	r3, r2
 8009546:	f203 4306 	addw	r3, r3, #1030	@ 0x406
 800954a:	62fb      	str	r3, [r7, #44]	@ 0x2c
 800954c:	f8d7 30ac 	ldr.w	r3, [r7, #172]	@ 0xac
 8009550:	b29a      	uxth	r2, r3
 8009552:	6afb      	ldr	r3, [r7, #44]	@ 0x2c
 8009554:	801a      	strh	r2, [r3, #0]
 8009556:	683b      	ldr	r3, [r7, #0]
 8009558:	895b      	ldrh	r3, [r3, #10]
 800955a:	f8a7 3076 	strh.w	r3, [r7, #118]	@ 0x76
 800955e:	683b      	ldr	r3, [r7, #0]
 8009560:	6959      	ldr	r1, [r3, #20]
 8009562:	f8d7 30ac 	ldr.w	r3, [r7, #172]	@ 0xac
 8009566:	b29b      	uxth	r3, r3
 8009568:	f8b7 2076 	ldrh.w	r2, [r7, #118]	@ 0x76
 800956c:	6878      	ldr	r0, [r7, #4]
 800956e:	f000 fdce 	bl	800a10e <USB_WritePMA>
 8009572:	683b      	ldr	r3, [r7, #0]
 8009574:	695a      	ldr	r2, [r3, #20]
 8009576:	f8d7 30ac 	ldr.w	r3, [r7, #172]	@ 0xac
 800957a:	441a      	add	r2, r3
 800957c:	683b      	ldr	r3, [r7, #0]
 800957e:	615a      	str	r2, [r3, #20]
 8009580:	683b      	ldr	r3, [r7, #0]
 8009582:	6a1a      	ldr	r2, [r3, #32]
 8009584:	683b      	ldr	r3, [r7, #0]
 8009586:	691b      	ldr	r3, [r3, #16]
 8009588:	429a      	cmp	r2, r3
 800958a:	d907      	bls.n	800959c <USB_EPStartXfer+0x256>
 800958c:	683b      	ldr	r3, [r7, #0]
 800958e:	6a1a      	ldr	r2, [r3, #32]
 8009590:	f8d7 30ac 	ldr.w	r3, [r7, #172]	@ 0xac
 8009594:	1ad2      	subs	r2, r2, r3
 8009596:	683b      	ldr	r3, [r7, #0]
 8009598:	621a      	str	r2, [r3, #32]
 800959a:	e006      	b.n	80095aa <USB_EPStartXfer+0x264>
 800959c:	683b      	ldr	r3, [r7, #0]
 800959e:	6a1b      	ldr	r3, [r3, #32]
 80095a0:	f8c7 30ac 	str.w	r3, [r7, #172]	@ 0xac
 80095a4:	683b      	ldr	r3, [r7, #0]
 80095a6:	2200      	movs	r2, #0
 80095a8:	621a      	str	r2, [r3, #32]
 80095aa:	683b      	ldr	r3, [r7, #0]
 80095ac:	785b      	ldrb	r3, [r3, #1]
 80095ae:	2b00      	cmp	r3, #0
 80095b0:	d16b      	bne.n	800968a <USB_EPStartXfer+0x344>
 80095b2:	687b      	ldr	r3, [r7, #4]
 80095b4:	61bb      	str	r3, [r7, #24]
 80095b6:	687b      	ldr	r3, [r7, #4]
 80095b8:	f8b3 3050 	ldrh.w	r3, [r3, #80]	@ 0x50
 80095bc:	b29b      	uxth	r3, r3
 80095be:	461a      	mov	r2, r3
 80095c0:	69bb      	ldr	r3, [r7, #24]
 80095c2:	4413      	add	r3, r2
 80095c4:	61bb      	str	r3, [r7, #24]
 80095c6:	683b      	ldr	r3, [r7, #0]
 80095c8:	781b      	ldrb	r3, [r3, #0]
 80095ca:	00da      	lsls	r2, r3, #3
 80095cc:	69bb      	ldr	r3, [r7, #24]
 80095ce:	4413      	add	r3, r2
 80095d0:	f203 4302 	addw	r3, r3, #1026	@ 0x402
 80095d4:	617b      	str	r3, [r7, #20]
 80095d6:	697b      	ldr	r3, [r7, #20]
 80095d8:	881b      	ldrh	r3, [r3, #0]
 80095da:	b29b      	uxth	r3, r3
 80095dc:	f3c3 0309 	ubfx	r3, r3, #0, #10
 80095e0:	b29a      	uxth	r2, r3
 80095e2:	697b      	ldr	r3, [r7, #20]
 80095e4:	801a      	strh	r2, [r3, #0]
 80095e6:	f8d7 30ac 	ldr.w	r3, [r7, #172]	@ 0xac
 80095ea:	2b00      	cmp	r3, #0
 80095ec:	d10a      	bne.n	8009604 <USB_EPStartXfer+0x2be>
 80095ee:	697b      	ldr	r3, [r7, #20]
 80095f0:	881b      	ldrh	r3, [r3, #0]
 80095f2:	b29b      	uxth	r3, r3
 80095f4:	ea6f 4343 	mvn.w	r3, r3, lsl #17
 80095f8:	ea6f 4353 	mvn.w	r3, r3, lsr #17
 80095fc:	b29a      	uxth	r2, r3
 80095fe:	697b      	ldr	r3, [r7, #20]
 8009600:	801a      	strh	r2, [r3, #0]
 8009602:	e05d      	b.n	80096c0 <USB_EPStartXfer+0x37a>
 8009604:	f8d7 30ac 	ldr.w	r3, [r7, #172]	@ 0xac
 8009608:	2b3e      	cmp	r3, #62	@ 0x3e
 800960a:	d81c      	bhi.n	8009646 <USB_EPStartXfer+0x300>
 800960c:	f8d7 30ac 	ldr.w	r3, [r7, #172]	@ 0xac
 8009610:	085b      	lsrs	r3, r3, #1
 8009612:	f8c7 30a4 	str.w	r3, [r7, #164]	@ 0xa4
 8009616:	f8d7 30ac 	ldr.w	r3, [r7, #172]	@ 0xac
 800961a:	f003 0301 	and.w	r3, r3, #1
 800961e:	2b00      	cmp	r3, #0
 8009620:	d004      	beq.n	800962c <USB_EPStartXfer+0x2e6>
 8009622:	f8d7 30a4 	ldr.w	r3, [r7, #164]	@ 0xa4
 8009626:	3301      	adds	r3, #1
 8009628:	f8c7 30a4 	str.w	r3, [r7, #164]	@ 0xa4
 800962c:	697b      	ldr	r3, [r7, #20]
 800962e:	881b      	ldrh	r3, [r3, #0]
 8009630:	b29a      	uxth	r2, r3
 8009632:	f8d7 30a4 	ldr.w	r3, [r7, #164]	@ 0xa4
 8009636:	b29b      	uxth	r3, r3
 8009638:	029b      	lsls	r3, r3, #10
 800963a:	b29b      	uxth	r3, r3
 800963c:	4313      	orrs	r3, r2
 800963e:	b29a      	uxth	r2, r3
 8009640:	697b      	ldr	r3, [r7, #20]
 8009642:	801a      	strh	r2, [r3, #0]
 8009644:	e03c      	b.n	80096c0 <USB_EPStartXfer+0x37a>
 8009646:	f8d7 30ac 	ldr.w	r3, [r7, #172]	@ 0xac
 800964a:	095b      	lsrs	r3, r3, #5
 800964c:	f8c7 30a4 	str.w	r3, [r7, #164]	@ 0xa4
 8009650:	f8d7 30ac 	ldr.w	r3, [r7, #172]	@ 0xac
 8009654:	f003 031f 	and.w	r3, r3, #31
 8009658:	2b00      	cmp	r3, #0
 800965a:	d104      	bne.n	8009666 <USB_EPStartXfer+0x320>
 800965c:	f8d7 30a4 	ldr.w	r3, [r7, #164]	@ 0xa4
 8009660:	3b01      	subs	r3, #1
 8009662:	f8c7 30a4 	str.w	r3, [r7, #164]	@ 0xa4
 8009666:	697b      	ldr	r3, [r7, #20]
 8009668:	881b      	ldrh	r3, [r3, #0]
 800966a:	b29a      	uxth	r2, r3
 800966c:	f8d7 30a4 	ldr.w	r3, [r7, #164]	@ 0xa4
 8009670:	b29b      	uxth	r3, r3
 8009672:	029b      	lsls	r3, r3, #10
 8009674:	b29b      	uxth	r3, r3
 8009676:	4313      	orrs	r3, r2
 8009678:	b29b      	uxth	r3, r3
 800967a:	ea6f 4343 	mvn.w	r3, r3, lsl #17
 800967e:	ea6f 4353 	mvn.w	r3, r3, lsr #17
 8009682:	b29a      	uxth	r2, r3
 8009684:	697b      	ldr	r3, [r7, #20]
 8009686:	801a      	strh	r2, [r3, #0]
 8009688:	e01a      	b.n	80096c0 <USB_EPStartXfer+0x37a>
 800968a:	683b      	ldr	r3, [r7, #0]
 800968c:	785b      	ldrb	r3, [r3, #1]
 800968e:	2b01      	cmp	r3, #1
 8009690:	d116      	bne.n	80096c0 <USB_EPStartXfer+0x37a>
 8009692:	687b      	ldr	r3, [r7, #4]
 8009694:	623b      	str	r3, [r7, #32]
 8009696:	687b      	ldr	r3, [r7, #4]
 8009698:	f8b3 3050 	ldrh.w	r3, [r3, #80]	@ 0x50
 800969c:	b29b      	uxth	r3, r3
 800969e:	461a      	mov	r2, r3
 80096a0:	6a3b      	ldr	r3, [r7, #32]
 80096a2:	4413      	add	r3, r2
 80096a4:	623b      	str	r3, [r7, #32]
 80096a6:	683b      	ldr	r3, [r7, #0]
 80096a8:	781b      	ldrb	r3, [r3, #0]
 80096aa:	00da      	lsls	r2, r3, #3
 80096ac:	6a3b      	ldr	r3, [r7, #32]
 80096ae:	4413      	add	r3, r2
 80096b0:	f203 4302 	addw	r3, r3, #1026	@ 0x402
 80096b4:	61fb      	str	r3, [r7, #28]
 80096b6:	f8d7 30ac 	ldr.w	r3, [r7, #172]	@ 0xac
 80096ba:	b29a      	uxth	r2, r3
 80096bc:	69fb      	ldr	r3, [r7, #28]
 80096be:	801a      	strh	r2, [r3, #0]
 80096c0:	683b      	ldr	r3, [r7, #0]
 80096c2:	891b      	ldrh	r3, [r3, #8]
 80096c4:	f8a7 3076 	strh.w	r3, [r7, #118]	@ 0x76
 80096c8:	683b      	ldr	r3, [r7, #0]
 80096ca:	6959      	ldr	r1, [r3, #20]
 80096cc:	f8d7 30ac 	ldr.w	r3, [r7, #172]	@ 0xac
 80096d0:	b29b      	uxth	r3, r3
 80096d2:	f8b7 2076 	ldrh.w	r2, [r7, #118]	@ 0x76
 80096d6:	6878      	ldr	r0, [r7, #4]
 80096d8:	f000 fd19 	bl	800a10e <USB_WritePMA>
 80096dc:	e2e2      	b.n	8009ca4 <USB_EPStartXfer+0x95e>
 80096de:	683b      	ldr	r3, [r7, #0]
 80096e0:	785b      	ldrb	r3, [r3, #1]
 80096e2:	2b00      	cmp	r3, #0
 80096e4:	d16b      	bne.n	80097be <USB_EPStartXfer+0x478>
 80096e6:	687b      	ldr	r3, [r7, #4]
 80096e8:	64bb      	str	r3, [r7, #72]	@ 0x48
 80096ea:	687b      	ldr	r3, [r7, #4]
 80096ec:	f8b3 3050 	ldrh.w	r3, [r3, #80]	@ 0x50
 80096f0:	b29b      	uxth	r3, r3
 80096f2:	461a      	mov	r2, r3
 80096f4:	6cbb      	ldr	r3, [r7, #72]	@ 0x48
 80096f6:	4413      	add	r3, r2
 80096f8:	64bb      	str	r3, [r7, #72]	@ 0x48
 80096fa:	683b      	ldr	r3, [r7, #0]
 80096fc:	781b      	ldrb	r3, [r3, #0]
 80096fe:	00da      	lsls	r2, r3, #3
 8009700:	6cbb      	ldr	r3, [r7, #72]	@ 0x48
 8009702:	4413      	add	r3, r2
 8009704:	f203 4302 	addw	r3, r3, #1026	@ 0x402
 8009708:	647b      	str	r3, [r7, #68]	@ 0x44
 800970a:	6c7b      	ldr	r3, [r7, #68]	@ 0x44
 800970c:	881b      	ldrh	r3, [r3, #0]
 800970e:	b29b      	uxth	r3, r3
 8009710:	f3c3 0309 	ubfx	r3, r3, #0, #10
 8009714:	b29a      	uxth	r2, r3
 8009716:	6c7b      	ldr	r3, [r7, #68]	@ 0x44
 8009718:	801a      	strh	r2, [r3, #0]
 800971a:	f8d7 30ac 	ldr.w	r3, [r7, #172]	@ 0xac
 800971e:	2b00      	cmp	r3, #0
 8009720:	d10a      	bne.n	8009738 <USB_EPStartXfer+0x3f2>
 8009722:	6c7b      	ldr	r3, [r7, #68]	@ 0x44
 8009724:	881b      	ldrh	r3, [r3, #0]
 8009726:	b29b      	uxth	r3, r3
 8009728:	ea6f 4343 	mvn.w	r3, r3, lsl #17
 800972c:	ea6f 4353 	mvn.w	r3, r3, lsr #17
 8009730:	b29a      	uxth	r2, r3
 8009732:	6c7b      	ldr	r3, [r7, #68]	@ 0x44
 8009734:	801a      	strh	r2, [r3, #0]
 8009736:	e05d      	b.n	80097f4 <USB_EPStartXfer+0x4ae>
 8009738:	f8d7 30ac 	ldr.w	r3, [r7, #172]	@ 0xac
 800973c:	2b3e      	cmp	r3, #62	@ 0x3e
 800973e:	d81c      	bhi.n	800977a <USB_EPStartXfer+0x434>
 8009740:	f8d7 30ac 	ldr.w	r3, [r7, #172]	@ 0xac
 8009744:	085b      	lsrs	r3, r3, #1
 8009746:	f8c7 30a0 	str.w	r3, [r7, #160]	@ 0xa0
 800974a:	f8d7 30ac 	ldr.w	r3, [r7, #172]	@ 0xac
 800974e:	f003 0301 	and.w	r3, r3, #1
 8009752:	2b00      	cmp	r3, #0
 8009754:	d004      	beq.n	8009760 <USB_EPStartXfer+0x41a>
 8009756:	f8d7 30a0 	ldr.w	r3, [r7, #160]	@ 0xa0
 800975a:	3301      	adds	r3, #1
 800975c:	f8c7 30a0 	str.w	r3, [r7, #160]	@ 0xa0
 8009760:	6c7b      	ldr	r3, [r7, #68]	@ 0x44
 8009762:	881b      	ldrh	r3, [r3, #0]
 8009764:	b29a      	uxth	r2, r3
 8009766:	f8d7 30a0 	ldr.w	r3, [r7, #160]	@ 0xa0
 800976a:	b29b      	uxth	r3, r3
 800976c:	029b      	lsls	r3, r3, #10
 800976e:	b29b      	uxth	r3, r3
 8009770:	4313      	orrs	r3, r2
 8009772:	b29a      	uxth	r2, r3
 8009774:	6c7b      	ldr	r3, [r7, #68]	@ 0x44
 8009776:	801a      	strh	r2, [r3, #0]
 8009778:	e03c      	b.n	80097f4 <USB_EPStartXfer+0x4ae>
 800977a:	f8d7 30ac 	ldr.w	r3, [r7, #172]	@ 0xac
 800977e:	095b      	lsrs	r3, r3, #5
 8009780:	f8c7 30a0 	str.w	r3, [r7, #160]	@ 0xa0
 8009784:	f8d7 30ac 	ldr.w	r3, [r7, #172]	@ 0xac
 8009788:	f003 031f 	and.w	r3, r3, #31
 800978c:	2b00      	cmp	r3, #0
 800978e:	d104      	bne.n	800979a <USB_EPStartXfer+0x454>
 8009790:	f8d7 30a0 	ldr.w	r3, [r7, #160]	@ 0xa0
 8009794:	3b01      	subs	r3, #1
 8009796:	f8c7 30a0 	str.w	r3, [r7, #160]	@ 0xa0
 800979a:	6c7b      	ldr	r3, [r7, #68]	@ 0x44
 800979c:	881b      	ldrh	r3, [r3, #0]
 800979e:	b29a      	uxth	r2, r3
 80097a0:	f8d7 30a0 	ldr.w	r3, [r7, #160]	@ 0xa0
 80097a4:	b29b      	uxth	r3, r3
 80097a6:	029b      	lsls	r3, r3, #10
 80097a8:	b29b      	uxth	r3, r3
 80097aa:	4313      	orrs	r3, r2
 80097ac:	b29b      	uxth	r3, r3
 80097ae:	ea6f 4343 	mvn.w	r3, r3, lsl #17
 80097b2:	ea6f 4353 	mvn.w	r3, r3, lsr #17
 80097b6:	b29a      	uxth	r2, r3
 80097b8:	6c7b      	ldr	r3, [r7, #68]	@ 0x44
 80097ba:	801a      	strh	r2, [r3, #0]
 80097bc:	e01a      	b.n	80097f4 <USB_EPStartXfer+0x4ae>
 80097be:	683b      	ldr	r3, [r7, #0]
 80097c0:	785b      	ldrb	r3, [r3, #1]
 80097c2:	2b01      	cmp	r3, #1
 80097c4:	d116      	bne.n	80097f4 <USB_EPStartXfer+0x4ae>
 80097c6:	687b      	ldr	r3, [r7, #4]
 80097c8:	653b      	str	r3, [r7, #80]	@ 0x50
 80097ca:	687b      	ldr	r3, [r7, #4]
 80097cc:	f8b3 3050 	ldrh.w	r3, [r3, #80]	@ 0x50
 80097d0:	b29b      	uxth	r3, r3
 80097d2:	461a      	mov	r2, r3
 80097d4:	6d3b      	ldr	r3, [r7, #80]	@ 0x50
 80097d6:	4413      	add	r3, r2
 80097d8:	653b      	str	r3, [r7, #80]	@ 0x50
 80097da:	683b      	ldr	r3, [r7, #0]
 80097dc:	781b      	ldrb	r3, [r3, #0]
 80097de:	00da      	lsls	r2, r3, #3
 80097e0:	6d3b      	ldr	r3, [r7, #80]	@ 0x50
 80097e2:	4413      	add	r3, r2
 80097e4:	f203 4302 	addw	r3, r3, #1026	@ 0x402
 80097e8:	64fb      	str	r3, [r7, #76]	@ 0x4c
 80097ea:	f8d7 30ac 	ldr.w	r3, [r7, #172]	@ 0xac
 80097ee:	b29a      	uxth	r2, r3
 80097f0:	6cfb      	ldr	r3, [r7, #76]	@ 0x4c
 80097f2:	801a      	strh	r2, [r3, #0]
 80097f4:	683b      	ldr	r3, [r7, #0]
 80097f6:	891b      	ldrh	r3, [r3, #8]
 80097f8:	f8a7 3076 	strh.w	r3, [r7, #118]	@ 0x76
 80097fc:	683b      	ldr	r3, [r7, #0]
 80097fe:	6959      	ldr	r1, [r3, #20]
 8009800:	f8d7 30ac 	ldr.w	r3, [r7, #172]	@ 0xac
 8009804:	b29b      	uxth	r3, r3
 8009806:	f8b7 2076 	ldrh.w	r2, [r7, #118]	@ 0x76
 800980a:	6878      	ldr	r0, [r7, #4]
 800980c:	f000 fc7f 	bl	800a10e <USB_WritePMA>
 8009810:	683b      	ldr	r3, [r7, #0]
 8009812:	695a      	ldr	r2, [r3, #20]
 8009814:	f8d7 30ac 	ldr.w	r3, [r7, #172]	@ 0xac
 8009818:	441a      	add	r2, r3
 800981a:	683b      	ldr	r3, [r7, #0]
 800981c:	615a      	str	r2, [r3, #20]
 800981e:	683b      	ldr	r3, [r7, #0]
 8009820:	6a1a      	ldr	r2, [r3, #32]
 8009822:	683b      	ldr	r3, [r7, #0]
 8009824:	691b      	ldr	r3, [r3, #16]
 8009826:	429a      	cmp	r2, r3
 8009828:	d907      	bls.n	800983a <USB_EPStartXfer+0x4f4>
 800982a:	683b      	ldr	r3, [r7, #0]
 800982c:	6a1a      	ldr	r2, [r3, #32]
 800982e:	f8d7 30ac 	ldr.w	r3, [r7, #172]	@ 0xac
 8009832:	1ad2      	subs	r2, r2, r3
 8009834:	683b      	ldr	r3, [r7, #0]
 8009836:	621a      	str	r2, [r3, #32]
 8009838:	e006      	b.n	8009848 <USB_EPStartXfer+0x502>
 800983a:	683b      	ldr	r3, [r7, #0]
 800983c:	6a1b      	ldr	r3, [r3, #32]
 800983e:	f8c7 30ac 	str.w	r3, [r7, #172]	@ 0xac
 8009842:	683b      	ldr	r3, [r7, #0]
 8009844:	2200      	movs	r2, #0
 8009846:	621a      	str	r2, [r3, #32]
 8009848:	687b      	ldr	r3, [r7, #4]
 800984a:	643b      	str	r3, [r7, #64]	@ 0x40
 800984c:	683b      	ldr	r3, [r7, #0]
 800984e:	785b      	ldrb	r3, [r3, #1]
 8009850:	2b00      	cmp	r3, #0
 8009852:	d16b      	bne.n	800992c <USB_EPStartXfer+0x5e6>
 8009854:	687b      	ldr	r3, [r7, #4]
 8009856:	63bb      	str	r3, [r7, #56]	@ 0x38
 8009858:	687b      	ldr	r3, [r7, #4]
 800985a:	f8b3 3050 	ldrh.w	r3, [r3, #80]	@ 0x50
 800985e:	b29b      	uxth	r3, r3
 8009860:	461a      	mov	r2, r3
 8009862:	6bbb      	ldr	r3, [r7, #56]	@ 0x38
 8009864:	4413      	add	r3, r2
 8009866:	63bb      	str	r3, [r7, #56]	@ 0x38
 8009868:	683b      	ldr	r3, [r7, #0]
 800986a:	781b      	ldrb	r3, [r3, #0]
 800986c:	00da      	lsls	r2, r3, #3
 800986e:	6bbb      	ldr	r3, [r7, #56]	@ 0x38
 8009870:	4413      	add	r3, r2
 8009872:	f203 4306 	addw	r3, r3, #1030	@ 0x406
 8009876:	637b      	str	r3, [r7, #52]	@ 0x34
 8009878:	6b7b      	ldr	r3, [r7, #52]	@ 0x34
 800987a:	881b      	ldrh	r3, [r3, #0]
 800987c:	b29b      	uxth	r3, r3
 800987e:	f3c3 0309 	ubfx	r3, r3, #0, #10
 8009882:	b29a      	uxth	r2, r3
 8009884:	6b7b      	ldr	r3, [r7, #52]	@ 0x34
 8009886:	801a      	strh	r2, [r3, #0]
 8009888:	f8d7 30ac 	ldr.w	r3, [r7, #172]	@ 0xac
 800988c:	2b00      	cmp	r3, #0
 800988e:	d10a      	bne.n	80098a6 <USB_EPStartXfer+0x560>
 8009890:	6b7b      	ldr	r3, [r7, #52]	@ 0x34
 8009892:	881b      	ldrh	r3, [r3, #0]
 8009894:	b29b      	uxth	r3, r3
 8009896:	ea6f 4343 	mvn.w	r3, r3, lsl #17
 800989a:	ea6f 4353 	mvn.w	r3, r3, lsr #17
 800989e:	b29a      	uxth	r2, r3
 80098a0:	6b7b      	ldr	r3, [r7, #52]	@ 0x34
 80098a2:	801a      	strh	r2, [r3, #0]
 80098a4:	e05b      	b.n	800995e <USB_EPStartXfer+0x618>
 80098a6:	f8d7 30ac 	ldr.w	r3, [r7, #172]	@ 0xac
 80098aa:	2b3e      	cmp	r3, #62	@ 0x3e
 80098ac:	d81c      	bhi.n	80098e8 <USB_EPStartXfer+0x5a2>
 80098ae:	f8d7 30ac 	ldr.w	r3, [r7, #172]	@ 0xac
 80098b2:	085b      	lsrs	r3, r3, #1
 80098b4:	f8c7 309c 	str.w	r3, [r7, #156]	@ 0x9c
 80098b8:	f8d7 30ac 	ldr.w	r3, [r7, #172]	@ 0xac
 80098bc:	f003 0301 	and.w	r3, r3, #1
 80098c0:	2b00      	cmp	r3, #0
 80098c2:	d004      	beq.n	80098ce <USB_EPStartXfer+0x588>
 80098c4:	f8d7 309c 	ldr.w	r3, [r7, #156]	@ 0x9c
 80098c8:	3301      	adds	r3, #1
 80098ca:	f8c7 309c 	str.w	r3, [r7, #156]	@ 0x9c
 80098ce:	6b7b      	ldr	r3, [r7, #52]	@ 0x34
 80098d0:	881b      	ldrh	r3, [r3, #0]
 80098d2:	b29a      	uxth	r2, r3
 80098d4:	f8d7 309c 	ldr.w	r3, [r7, #156]	@ 0x9c
 80098d8:	b29b      	uxth	r3, r3
 80098da:	029b      	lsls	r3, r3, #10
 80098dc:	b29b      	uxth	r3, r3
 80098de:	4313      	orrs	r3, r2
 80098e0:	b29a      	uxth	r2, r3
 80098e2:	6b7b      	ldr	r3, [r7, #52]	@ 0x34
 80098e4:	801a      	strh	r2, [r3, #0]
 80098e6:	e03a      	b.n	800995e <USB_EPStartXfer+0x618>
 80098e8:	f8d7 30ac 	ldr.w	r3, [r7, #172]	@ 0xac
 80098ec:	095b      	lsrs	r3, r3, #5
 80098ee:	f8c7 309c 	str.w	r3, [r7, #156]	@ 0x9c
 80098f2:	f8d7 30ac 	ldr.w	r3, [r7, #172]	@ 0xac
 80098f6:	f003 031f 	and.w	r3, r3, #31
 80098fa:	2b00      	cmp	r3, #0
 80098fc:	d104      	bne.n	8009908 <USB_EPStartXfer+0x5c2>
 80098fe:	f8d7 309c 	ldr.w	r3, [r7, #156]	@ 0x9c
 8009902:	3b01      	subs	r3, #1
 8009904:	f8c7 309c 	str.w	r3, [r7, #156]	@ 0x9c
 8009908:	6b7b      	ldr	r3, [r7, #52]	@ 0x34
 800990a:	881b      	ldrh	r3, [r3, #0]
 800990c:	b29a      	uxth	r2, r3
 800990e:	f8d7 309c 	ldr.w	r3, [r7, #156]	@ 0x9c
 8009912:	b29b      	uxth	r3, r3
 8009914:	029b      	lsls	r3, r3, #10
 8009916:	b29b      	uxth	r3, r3
 8009918:	4313      	orrs	r3, r2
 800991a:	b29b      	uxth	r3, r3
 800991c:	ea6f 4343 	mvn.w	r3, r3, lsl #17
 8009920:	ea6f 4353 	mvn.w	r3, r3, lsr #17
 8009924:	b29a      	uxth	r2, r3
 8009926:	6b7b      	ldr	r3, [r7, #52]	@ 0x34
 8009928:	801a      	strh	r2, [r3, #0]
 800992a:	e018      	b.n	800995e <USB_EPStartXfer+0x618>
 800992c:	683b      	ldr	r3, [r7, #0]
 800992e:	785b      	ldrb	r3, [r3, #1]
 8009930:	2b01      	cmp	r3, #1
 8009932:	d114      	bne.n	800995e <USB_EPStartXfer+0x618>
 8009934:	687b      	ldr	r3, [r7, #4]
 8009936:	f8b3 3050 	ldrh.w	r3, [r3, #80]	@ 0x50
 800993a:	b29b      	uxth	r3, r3
 800993c:	461a      	mov	r2, r3
 800993e:	6c3b      	ldr	r3, [r7, #64]	@ 0x40
 8009940:	4413      	add	r3, r2
 8009942:	643b      	str	r3, [r7, #64]	@ 0x40
 8009944:	683b      	ldr	r3, [r7, #0]
 8009946:	781b      	ldrb	r3, [r3, #0]
 8009948:	00da      	lsls	r2, r3, #3
 800994a:	6c3b      	ldr	r3, [r7, #64]	@ 0x40
 800994c:	4413      	add	r3, r2
 800994e:	f203 4306 	addw	r3, r3, #1030	@ 0x406
 8009952:	63fb      	str	r3, [r7, #60]	@ 0x3c
 8009954:	f8d7 30ac 	ldr.w	r3, [r7, #172]	@ 0xac
 8009958:	b29a      	uxth	r2, r3
 800995a:	6bfb      	ldr	r3, [r7, #60]	@ 0x3c
 800995c:	801a      	strh	r2, [r3, #0]
 800995e:	683b      	ldr	r3, [r7, #0]
 8009960:	895b      	ldrh	r3, [r3, #10]
 8009962:	f8a7 3076 	strh.w	r3, [r7, #118]	@ 0x76
 8009966:	683b      	ldr	r3, [r7, #0]
 8009968:	6959      	ldr	r1, [r3, #20]
 800996a:	f8d7 30ac 	ldr.w	r3, [r7, #172]	@ 0xac
 800996e:	b29b      	uxth	r3, r3
 8009970:	f8b7 2076 	ldrh.w	r2, [r7, #118]	@ 0x76
 8009974:	6878      	ldr	r0, [r7, #4]
 8009976:	f000 fbca 	bl	800a10e <USB_WritePMA>
 800997a:	e193      	b.n	8009ca4 <USB_EPStartXfer+0x95e>
 800997c:	683b      	ldr	r3, [r7, #0]
 800997e:	6a1b      	ldr	r3, [r3, #32]
 8009980:	f8c7 30ac 	str.w	r3, [r7, #172]	@ 0xac
 8009984:	687a      	ldr	r2, [r7, #4]
 8009986:	683b      	ldr	r3, [r7, #0]
 8009988:	781b      	ldrb	r3, [r3, #0]
 800998a:	009b      	lsls	r3, r3, #2
 800998c:	4413      	add	r3, r2
 800998e:	881b      	ldrh	r3, [r3, #0]
 8009990:	b29b      	uxth	r3, r3
 8009992:	f423 43e2 	bic.w	r3, r3, #28928	@ 0x7100
 8009996:	f023 0370 	bic.w	r3, r3, #112	@ 0x70
 800999a:	f8a7 3062 	strh.w	r3, [r7, #98]	@ 0x62
 800999e:	687a      	ldr	r2, [r7, #4]
 80099a0:	683b      	ldr	r3, [r7, #0]
 80099a2:	781b      	ldrb	r3, [r3, #0]
 80099a4:	009b      	lsls	r3, r3, #2
 80099a6:	441a      	add	r2, r3
 80099a8:	f8b7 3062 	ldrh.w	r3, [r7, #98]	@ 0x62
 80099ac:	f043 437f 	orr.w	r3, r3, #4278190080	@ 0xff000000
 80099b0:	f443 037f 	orr.w	r3, r3, #16711680	@ 0xff0000
 80099b4:	f443 4300 	orr.w	r3, r3, #32768	@ 0x8000
 80099b8:	f043 0380 	orr.w	r3, r3, #128	@ 0x80
 80099bc:	b29b      	uxth	r3, r3
 80099be:	8013      	strh	r3, [r2, #0]
 80099c0:	687b      	ldr	r3, [r7, #4]
 80099c2:	65fb      	str	r3, [r7, #92]	@ 0x5c
 80099c4:	687b      	ldr	r3, [r7, #4]
 80099c6:	f8b3 3050 	ldrh.w	r3, [r3, #80]	@ 0x50
 80099ca:	b29b      	uxth	r3, r3
 80099cc:	461a      	mov	r2, r3
 80099ce:	6dfb      	ldr	r3, [r7, #92]	@ 0x5c
 80099d0:	4413      	add	r3, r2
 80099d2:	65fb      	str	r3, [r7, #92]	@ 0x5c
 80099d4:	683b      	ldr	r3, [r7, #0]
 80099d6:	781b      	ldrb	r3, [r3, #0]
 80099d8:	00da      	lsls	r2, r3, #3
 80099da:	6dfb      	ldr	r3, [r7, #92]	@ 0x5c
 80099dc:	4413      	add	r3, r2
 80099de:	f203 4302 	addw	r3, r3, #1026	@ 0x402
 80099e2:	65bb      	str	r3, [r7, #88]	@ 0x58
 80099e4:	f8d7 30ac 	ldr.w	r3, [r7, #172]	@ 0xac
 80099e8:	b29a      	uxth	r2, r3
 80099ea:	6dbb      	ldr	r3, [r7, #88]	@ 0x58
 80099ec:	801a      	strh	r2, [r3, #0]
 80099ee:	683b      	ldr	r3, [r7, #0]
 80099f0:	891b      	ldrh	r3, [r3, #8]
 80099f2:	f8a7 3076 	strh.w	r3, [r7, #118]	@ 0x76
 80099f6:	683b      	ldr	r3, [r7, #0]
 80099f8:	6959      	ldr	r1, [r3, #20]
 80099fa:	f8d7 30ac 	ldr.w	r3, [r7, #172]	@ 0xac
 80099fe:	b29b      	uxth	r3, r3
 8009a00:	f8b7 2076 	ldrh.w	r2, [r7, #118]	@ 0x76
 8009a04:	6878      	ldr	r0, [r7, #4]
 8009a06:	f000 fb82 	bl	800a10e <USB_WritePMA>
 8009a0a:	e14b      	b.n	8009ca4 <USB_EPStartXfer+0x95e>
 8009a0c:	683b      	ldr	r3, [r7, #0]
 8009a0e:	6a1a      	ldr	r2, [r3, #32]
 8009a10:	f8d7 30ac 	ldr.w	r3, [r7, #172]	@ 0xac
 8009a14:	1ad2      	subs	r2, r2, r3
 8009a16:	683b      	ldr	r3, [r7, #0]
 8009a18:	621a      	str	r2, [r3, #32]
 8009a1a:	687a      	ldr	r2, [r7, #4]
 8009a1c:	683b      	ldr	r3, [r7, #0]
 8009a1e:	781b      	ldrb	r3, [r3, #0]
 8009a20:	009b      	lsls	r3, r3, #2
 8009a22:	4413      	add	r3, r2
 8009a24:	881b      	ldrh	r3, [r3, #0]
 8009a26:	b29b      	uxth	r3, r3
 8009a28:	f003 0340 	and.w	r3, r3, #64	@ 0x40
 8009a2c:	2b00      	cmp	r3, #0
 8009a2e:	f000 809a 	beq.w	8009b66 <USB_EPStartXfer+0x820>
 8009a32:	687b      	ldr	r3, [r7, #4]
 8009a34:	673b      	str	r3, [r7, #112]	@ 0x70
 8009a36:	683b      	ldr	r3, [r7, #0]
 8009a38:	785b      	ldrb	r3, [r3, #1]
 8009a3a:	2b00      	cmp	r3, #0
 8009a3c:	d16b      	bne.n	8009b16 <USB_EPStartXfer+0x7d0>
 8009a3e:	687b      	ldr	r3, [r7, #4]
 8009a40:	66bb      	str	r3, [r7, #104]	@ 0x68
 8009a42:	687b      	ldr	r3, [r7, #4]
 8009a44:	f8b3 3050 	ldrh.w	r3, [r3, #80]	@ 0x50
 8009a48:	b29b      	uxth	r3, r3
 8009a4a:	461a      	mov	r2, r3
 8009a4c:	6ebb      	ldr	r3, [r7, #104]	@ 0x68
 8009a4e:	4413      	add	r3, r2
 8009a50:	66bb      	str	r3, [r7, #104]	@ 0x68
 8009a52:	683b      	ldr	r3, [r7, #0]
 8009a54:	781b      	ldrb	r3, [r3, #0]
 8009a56:	00da      	lsls	r2, r3, #3
 8009a58:	6ebb      	ldr	r3, [r7, #104]	@ 0x68
 8009a5a:	4413      	add	r3, r2
 8009a5c:	f203 4306 	addw	r3, r3, #1030	@ 0x406
 8009a60:	667b      	str	r3, [r7, #100]	@ 0x64
 8009a62:	6e7b      	ldr	r3, [r7, #100]	@ 0x64
 8009a64:	881b      	ldrh	r3, [r3, #0]
 8009a66:	b29b      	uxth	r3, r3
 8009a68:	f3c3 0309 	ubfx	r3, r3, #0, #10
 8009a6c:	b29a      	uxth	r2, r3
 8009a6e:	6e7b      	ldr	r3, [r7, #100]	@ 0x64
 8009a70:	801a      	strh	r2, [r3, #0]
 8009a72:	f8d7 30ac 	ldr.w	r3, [r7, #172]	@ 0xac
 8009a76:	2b00      	cmp	r3, #0
 8009a78:	d10a      	bne.n	8009a90 <USB_EPStartXfer+0x74a>
 8009a7a:	6e7b      	ldr	r3, [r7, #100]	@ 0x64
 8009a7c:	881b      	ldrh	r3, [r3, #0]
 8009a7e:	b29b      	uxth	r3, r3
 8009a80:	ea6f 4343 	mvn.w	r3, r3, lsl #17
 8009a84:	ea6f 4353 	mvn.w	r3, r3, lsr #17
 8009a88:	b29a      	uxth	r2, r3
 8009a8a:	6e7b      	ldr	r3, [r7, #100]	@ 0x64
 8009a8c:	801a      	strh	r2, [r3, #0]
 8009a8e:	e05b      	b.n	8009b48 <USB_EPStartXfer+0x802>
 8009a90:	f8d7 30ac 	ldr.w	r3, [r7, #172]	@ 0xac
 8009a94:	2b3e      	cmp	r3, #62	@ 0x3e
 8009a96:	d81c      	bhi.n	8009ad2 <USB_EPStartXfer+0x78c>
 8009a98:	f8d7 30ac 	ldr.w	r3, [r7, #172]	@ 0xac
 8009a9c:	085b      	lsrs	r3, r3, #1
 8009a9e:	f8c7 3098 	str.w	r3, [r7, #152]	@ 0x98
 8009aa2:	f8d7 30ac 	ldr.w	r3, [r7, #172]	@ 0xac
 8009aa6:	f003 0301 	and.w	r3, r3, #1
 8009aaa:	2b00      	cmp	r3, #0
 8009aac:	d004      	beq.n	8009ab8 <USB_EPStartXfer+0x772>
 8009aae:	f8d7 3098 	ldr.w	r3, [r7, #152]	@ 0x98
 8009ab2:	3301      	adds	r3, #1
 8009ab4:	f8c7 3098 	str.w	r3, [r7, #152]	@ 0x98
 8009ab8:	6e7b      	ldr	r3, [r7, #100]	@ 0x64
 8009aba:	881b      	ldrh	r3, [r3, #0]
 8009abc:	b29a      	uxth	r2, r3
 8009abe:	f8d7 3098 	ldr.w	r3, [r7, #152]	@ 0x98
 8009ac2:	b29b      	uxth	r3, r3
 8009ac4:	029b      	lsls	r3, r3, #10
 8009ac6:	b29b      	uxth	r3, r3
 8009ac8:	4313      	orrs	r3, r2
 8009aca:	b29a      	uxth	r2, r3
 8009acc:	6e7b      	ldr	r3, [r7, #100]	@ 0x64
 8009ace:	801a      	strh	r2, [r3, #0]
 8009ad0:	e03a      	b.n	8009b48 <USB_EPStartXfer+0x802>
 8009ad2:	f8d7 30ac 	ldr.w	r3, [r7, #172]	@ 0xac
 8009ad6:	095b      	lsrs	r3, r3, #5
 8009ad8:	f8c7 3098 	str.w	r3, [r7, #152]	@ 0x98
 8009adc:	f8d7 30ac 	ldr.w	r3, [r7, #172]	@ 0xac
 8009ae0:	f003 031f 	and.w	r3, r3, #31
 8009ae4:	2b00      	cmp	r3, #0
 8009ae6:	d104      	bne.n	8009af2 <USB_EPStartXfer+0x7ac>
 8009ae8:	f8d7 3098 	ldr.w	r3, [r7, #152]	@ 0x98
 8009aec:	3b01      	subs	r3, #1
 8009aee:	f8c7 3098 	str.w	r3, [r7, #152]	@ 0x98
 8009af2:	6e7b      	ldr	r3, [r7, #100]	@ 0x64
 8009af4:	881b      	ldrh	r3, [r3, #0]
 8009af6:	b29a      	uxth	r2, r3
 8009af8:	f8d7 3098 	ldr.w	r3, [r7, #152]	@ 0x98
 8009afc:	b29b      	uxth	r3, r3
 8009afe:	029b      	lsls	r3, r3, #10
 8009b00:	b29b      	uxth	r3, r3
 8009b02:	4313      	orrs	r3, r2
 8009b04:	b29b      	uxth	r3, r3
 8009b06:	ea6f 4343 	mvn.w	r3, r3, lsl #17
 8009b0a:	ea6f 4353 	mvn.w	r3, r3, lsr #17
 8009b0e:	b29a      	uxth	r2, r3
 8009b10:	6e7b      	ldr	r3, [r7, #100]	@ 0x64
 8009b12:	801a      	strh	r2, [r3, #0]
 8009b14:	e018      	b.n	8009b48 <USB_EPStartXfer+0x802>
 8009b16:	683b      	ldr	r3, [r7, #0]
 8009b18:	785b      	ldrb	r3, [r3, #1]
 8009b1a:	2b01      	cmp	r3, #1
 8009b1c:	d114      	bne.n	8009b48 <USB_EPStartXfer+0x802>
 8009b1e:	687b      	ldr	r3, [r7, #4]
 8009b20:	f8b3 3050 	ldrh.w	r3, [r3, #80]	@ 0x50
 8009b24:	b29b      	uxth	r3, r3
 8009b26:	461a      	mov	r2, r3
 8009b28:	6f3b      	ldr	r3, [r7, #112]	@ 0x70
 8009b2a:	4413      	add	r3, r2
 8009b2c:	673b      	str	r3, [r7, #112]	@ 0x70
 8009b2e:	683b      	ldr	r3, [r7, #0]
 8009b30:	781b      	ldrb	r3, [r3, #0]
 8009b32:	00da      	lsls	r2, r3, #3
 8009b34:	6f3b      	ldr	r3, [r7, #112]	@ 0x70
 8009b36:	4413      	add	r3, r2
 8009b38:	f203 4306 	addw	r3, r3, #1030	@ 0x406
 8009b3c:	66fb      	str	r3, [r7, #108]	@ 0x6c
 8009b3e:	f8d7 30ac 	ldr.w	r3, [r7, #172]	@ 0xac
 8009b42:	b29a      	uxth	r2, r3
 8009b44:	6efb      	ldr	r3, [r7, #108]	@ 0x6c
 8009b46:	801a      	strh	r2, [r3, #0]
 8009b48:	683b      	ldr	r3, [r7, #0]
 8009b4a:	895b      	ldrh	r3, [r3, #10]
 8009b4c:	f8a7 3076 	strh.w	r3, [r7, #118]	@ 0x76
 8009b50:	683b      	ldr	r3, [r7, #0]
 8009b52:	6959      	ldr	r1, [r3, #20]
 8009b54:	f8d7 30ac 	ldr.w	r3, [r7, #172]	@ 0xac
 8009b58:	b29b      	uxth	r3, r3
 8009b5a:	f8b7 2076 	ldrh.w	r2, [r7, #118]	@ 0x76
 8009b5e:	6878      	ldr	r0, [r7, #4]
 8009b60:	f000 fad5 	bl	800a10e <USB_WritePMA>
 8009b64:	e09e      	b.n	8009ca4 <USB_EPStartXfer+0x95e>
 8009b66:	683b      	ldr	r3, [r7, #0]
 8009b68:	785b      	ldrb	r3, [r3, #1]
 8009b6a:	2b00      	cmp	r3, #0
 8009b6c:	d16b      	bne.n	8009c46 <USB_EPStartXfer+0x900>
 8009b6e:	687b      	ldr	r3, [r7, #4]
 8009b70:	67fb      	str	r3, [r7, #124]	@ 0x7c
 8009b72:	687b      	ldr	r3, [r7, #4]
 8009b74:	f8b3 3050 	ldrh.w	r3, [r3, #80]	@ 0x50
 8009b78:	b29b      	uxth	r3, r3
 8009b7a:	461a      	mov	r2, r3
 8009b7c:	6ffb      	ldr	r3, [r7, #124]	@ 0x7c
 8009b7e:	4413      	add	r3, r2
 8009b80:	67fb      	str	r3, [r7, #124]	@ 0x7c
 8009b82:	683b      	ldr	r3, [r7, #0]
 8009b84:	781b      	ldrb	r3, [r3, #0]
 8009b86:	00da      	lsls	r2, r3, #3
 8009b88:	6ffb      	ldr	r3, [r7, #124]	@ 0x7c
 8009b8a:	4413      	add	r3, r2
 8009b8c:	f203 4302 	addw	r3, r3, #1026	@ 0x402
 8009b90:	67bb      	str	r3, [r7, #120]	@ 0x78
 8009b92:	6fbb      	ldr	r3, [r7, #120]	@ 0x78
 8009b94:	881b      	ldrh	r3, [r3, #0]
 8009b96:	b29b      	uxth	r3, r3
 8009b98:	f3c3 0309 	ubfx	r3, r3, #0, #10
 8009b9c:	b29a      	uxth	r2, r3
 8009b9e:	6fbb      	ldr	r3, [r7, #120]	@ 0x78
 8009ba0:	801a      	strh	r2, [r3, #0]
 8009ba2:	f8d7 30ac 	ldr.w	r3, [r7, #172]	@ 0xac
 8009ba6:	2b00      	cmp	r3, #0
 8009ba8:	d10a      	bne.n	8009bc0 <USB_EPStartXfer+0x87a>
 8009baa:	6fbb      	ldr	r3, [r7, #120]	@ 0x78
 8009bac:	881b      	ldrh	r3, [r3, #0]
 8009bae:	b29b      	uxth	r3, r3
 8009bb0:	ea6f 4343 	mvn.w	r3, r3, lsl #17
 8009bb4:	ea6f 4353 	mvn.w	r3, r3, lsr #17
 8009bb8:	b29a      	uxth	r2, r3
 8009bba:	6fbb      	ldr	r3, [r7, #120]	@ 0x78
 8009bbc:	801a      	strh	r2, [r3, #0]
 8009bbe:	e063      	b.n	8009c88 <USB_EPStartXfer+0x942>
 8009bc0:	f8d7 30ac 	ldr.w	r3, [r7, #172]	@ 0xac
 8009bc4:	2b3e      	cmp	r3, #62	@ 0x3e
 8009bc6:	d81c      	bhi.n	8009c02 <USB_EPStartXfer+0x8bc>
 8009bc8:	f8d7 30ac 	ldr.w	r3, [r7, #172]	@ 0xac
 8009bcc:	085b      	lsrs	r3, r3, #1
 8009bce:	f8c7 3094 	str.w	r3, [r7, #148]	@ 0x94
 8009bd2:	f8d7 30ac 	ldr.w	r3, [r7, #172]	@ 0xac
 8009bd6:	f003 0301 	and.w	r3, r3, #1
 8009bda:	2b00      	cmp	r3, #0
 8009bdc:	d004      	beq.n	8009be8 <USB_EPStartXfer+0x8a2>
 8009bde:	f8d7 3094 	ldr.w	r3, [r7, #148]	@ 0x94
 8009be2:	3301      	adds	r3, #1
 8009be4:	f8c7 3094 	str.w	r3, [r7, #148]	@ 0x94
 8009be8:	6fbb      	ldr	r3, [r7, #120]	@ 0x78
 8009bea:	881b      	ldrh	r3, [r3, #0]
 8009bec:	b29a      	uxth	r2, r3
 8009bee:	f8d7 3094 	ldr.w	r3, [r7, #148]	@ 0x94
 8009bf2:	b29b      	uxth	r3, r3
 8009bf4:	029b      	lsls	r3, r3, #10
 8009bf6:	b29b      	uxth	r3, r3
 8009bf8:	4313      	orrs	r3, r2
 8009bfa:	b29a      	uxth	r2, r3
 8009bfc:	6fbb      	ldr	r3, [r7, #120]	@ 0x78
 8009bfe:	801a      	strh	r2, [r3, #0]
 8009c00:	e042      	b.n	8009c88 <USB_EPStartXfer+0x942>
 8009c02:	f8d7 30ac 	ldr.w	r3, [r7, #172]	@ 0xac
 8009c06:	095b      	lsrs	r3, r3, #5
 8009c08:	f8c7 3094 	str.w	r3, [r7, #148]	@ 0x94
 8009c0c:	f8d7 30ac 	ldr.w	r3, [r7, #172]	@ 0xac
 8009c10:	f003 031f 	and.w	r3, r3, #31
 8009c14:	2b00      	cmp	r3, #0
 8009c16:	d104      	bne.n	8009c22 <USB_EPStartXfer+0x8dc>
 8009c18:	f8d7 3094 	ldr.w	r3, [r7, #148]	@ 0x94
 8009c1c:	3b01      	subs	r3, #1
 8009c1e:	f8c7 3094 	str.w	r3, [r7, #148]	@ 0x94
 8009c22:	6fbb      	ldr	r3, [r7, #120]	@ 0x78
 8009c24:	881b      	ldrh	r3, [r3, #0]
 8009c26:	b29a      	uxth	r2, r3
 8009c28:	f8d7 3094 	ldr.w	r3, [r7, #148]	@ 0x94
 8009c2c:	b29b      	uxth	r3, r3
 8009c2e:	029b      	lsls	r3, r3, #10
 8009c30:	b29b      	uxth	r3, r3
 8009c32:	4313      	orrs	r3, r2
 8009c34:	b29b      	uxth	r3, r3
 8009c36:	ea6f 4343 	mvn.w	r3, r3, lsl #17
 8009c3a:	ea6f 4353 	mvn.w	r3, r3, lsr #17
 8009c3e:	b29a      	uxth	r2, r3
 8009c40:	6fbb      	ldr	r3, [r7, #120]	@ 0x78
 8009c42:	801a      	strh	r2, [r3, #0]
 8009c44:	e020      	b.n	8009c88 <USB_EPStartXfer+0x942>
 8009c46:	683b      	ldr	r3, [r7, #0]
 8009c48:	785b      	ldrb	r3, [r3, #1]
 8009c4a:	2b01      	cmp	r3, #1
 8009c4c:	d11c      	bne.n	8009c88 <USB_EPStartXfer+0x942>
 8009c4e:	687b      	ldr	r3, [r7, #4]
 8009c50:	f8c7 3084 	str.w	r3, [r7, #132]	@ 0x84
 8009c54:	687b      	ldr	r3, [r7, #4]
 8009c56:	f8b3 3050 	ldrh.w	r3, [r3, #80]	@ 0x50
 8009c5a:	b29b      	uxth	r3, r3
 8009c5c:	461a      	mov	r2, r3
 8009c5e:	f8d7 3084 	ldr.w	r3, [r7, #132]	@ 0x84
 8009c62:	4413      	add	r3, r2
 8009c64:	f8c7 3084 	str.w	r3, [r7, #132]	@ 0x84
 8009c68:	683b      	ldr	r3, [r7, #0]
 8009c6a:	781b      	ldrb	r3, [r3, #0]
 8009c6c:	00da      	lsls	r2, r3, #3
 8009c6e:	f8d7 3084 	ldr.w	r3, [r7, #132]	@ 0x84
 8009c72:	4413      	add	r3, r2
 8009c74:	f203 4302 	addw	r3, r3, #1026	@ 0x402
 8009c78:	f8c7 3080 	str.w	r3, [r7, #128]	@ 0x80
 8009c7c:	f8d7 30ac 	ldr.w	r3, [r7, #172]	@ 0xac
 8009c80:	b29a      	uxth	r2, r3
 8009c82:	f8d7 3080 	ldr.w	r3, [r7, #128]	@ 0x80
 8009c86:	801a      	strh	r2, [r3, #0]
 8009c88:	683b      	ldr	r3, [r7, #0]
 8009c8a:	891b      	ldrh	r3, [r3, #8]
 8009c8c:	f8a7 3076 	strh.w	r3, [r7, #118]	@ 0x76
 8009c90:	683b      	ldr	r3, [r7, #0]
 8009c92:	6959      	ldr	r1, [r3, #20]
 8009c94:	f8d7 30ac 	ldr.w	r3, [r7, #172]	@ 0xac
 8009c98:	b29b      	uxth	r3, r3
 8009c9a:	f8b7 2076 	ldrh.w	r2, [r7, #118]	@ 0x76
 8009c9e:	6878      	ldr	r0, [r7, #4]
 8009ca0:	f000 fa35 	bl	800a10e <USB_WritePMA>
 8009ca4:	687a      	ldr	r2, [r7, #4]
 8009ca6:	683b      	ldr	r3, [r7, #0]
 8009ca8:	781b      	ldrb	r3, [r3, #0]
 8009caa:	009b      	lsls	r3, r3, #2
 8009cac:	4413      	add	r3, r2
 8009cae:	881b      	ldrh	r3, [r3, #0]
 8009cb0:	b29b      	uxth	r3, r3
 8009cb2:	f423 43e0 	bic.w	r3, r3, #28672	@ 0x7000
 8009cb6:	f023 0340 	bic.w	r3, r3, #64	@ 0x40
 8009cba:	817b      	strh	r3, [r7, #10]
 8009cbc:	897b      	ldrh	r3, [r7, #10]
 8009cbe:	f083 0310 	eor.w	r3, r3, #16
 8009cc2:	817b      	strh	r3, [r7, #10]
 8009cc4:	897b      	ldrh	r3, [r7, #10]
 8009cc6:	f083 0320 	eor.w	r3, r3, #32
 8009cca:	817b      	strh	r3, [r7, #10]
 8009ccc:	687a      	ldr	r2, [r7, #4]
 8009cce:	683b      	ldr	r3, [r7, #0]
 8009cd0:	781b      	ldrb	r3, [r3, #0]
 8009cd2:	009b      	lsls	r3, r3, #2
 8009cd4:	441a      	add	r2, r3
 8009cd6:	897b      	ldrh	r3, [r7, #10]
 8009cd8:	f043 437f 	orr.w	r3, r3, #4278190080	@ 0xff000000
 8009cdc:	f443 037f 	orr.w	r3, r3, #16711680	@ 0xff0000
 8009ce0:	f443 4300 	orr.w	r3, r3, #32768	@ 0x8000
 8009ce4:	f043 0380 	orr.w	r3, r3, #128	@ 0x80
 8009ce8:	b29b      	uxth	r3, r3
 8009cea:	8013      	strh	r3, [r2, #0]
 8009cec:	e0d5      	b.n	8009e9a <USB_EPStartXfer+0xb54>
 8009cee:	683b      	ldr	r3, [r7, #0]
 8009cf0:	7b1b      	ldrb	r3, [r3, #12]
 8009cf2:	2b00      	cmp	r3, #0
 8009cf4:	d156      	bne.n	8009da4 <USB_EPStartXfer+0xa5e>
 8009cf6:	683b      	ldr	r3, [r7, #0]
 8009cf8:	699b      	ldr	r3, [r3, #24]
 8009cfa:	2b00      	cmp	r3, #0
 8009cfc:	d122      	bne.n	8009d44 <USB_EPStartXfer+0x9fe>
 8009cfe:	683b      	ldr	r3, [r7, #0]
 8009d00:	78db      	ldrb	r3, [r3, #3]
 8009d02:	2b00      	cmp	r3, #0
 8009d04:	d11e      	bne.n	8009d44 <USB_EPStartXfer+0x9fe>
 8009d06:	687a      	ldr	r2, [r7, #4]
 8009d08:	683b      	ldr	r3, [r7, #0]
 8009d0a:	781b      	ldrb	r3, [r3, #0]
 8009d0c:	009b      	lsls	r3, r3, #2
 8009d0e:	4413      	add	r3, r2
 8009d10:	881b      	ldrh	r3, [r3, #0]
 8009d12:	b29b      	uxth	r3, r3
 8009d14:	f423 43e0 	bic.w	r3, r3, #28672	@ 0x7000
 8009d18:	f023 0370 	bic.w	r3, r3, #112	@ 0x70
 8009d1c:	f8a7 308e 	strh.w	r3, [r7, #142]	@ 0x8e
 8009d20:	687a      	ldr	r2, [r7, #4]
 8009d22:	683b      	ldr	r3, [r7, #0]
 8009d24:	781b      	ldrb	r3, [r3, #0]
 8009d26:	009b      	lsls	r3, r3, #2
 8009d28:	441a      	add	r2, r3
 8009d2a:	f8b7 308e 	ldrh.w	r3, [r7, #142]	@ 0x8e
 8009d2e:	f043 437f 	orr.w	r3, r3, #4278190080	@ 0xff000000
 8009d32:	f443 037f 	orr.w	r3, r3, #16711680	@ 0xff0000
 8009d36:	f443 4301 	orr.w	r3, r3, #33024	@ 0x8100
 8009d3a:	f043 0380 	orr.w	r3, r3, #128	@ 0x80
 8009d3e:	b29b      	uxth	r3, r3
 8009d40:	8013      	strh	r3, [r2, #0]
 8009d42:	e01d      	b.n	8009d80 <USB_EPStartXfer+0xa3a>
 8009d44:	687a      	ldr	r2, [r7, #4]
 8009d46:	683b      	ldr	r3, [r7, #0]
 8009d48:	781b      	ldrb	r3, [r3, #0]
 8009d4a:	009b      	lsls	r3, r3, #2
 8009d4c:	4413      	add	r3, r2
 8009d4e:	881b      	ldrh	r3, [r3, #0]
 8009d50:	b29b      	uxth	r3, r3
 8009d52:	f423 43e2 	bic.w	r3, r3, #28928	@ 0x7100
 8009d56:	f023 0370 	bic.w	r3, r3, #112	@ 0x70
 8009d5a:	f8a7 308c 	strh.w	r3, [r7, #140]	@ 0x8c
 8009d5e:	687a      	ldr	r2, [r7, #4]
 8009d60:	683b      	ldr	r3, [r7, #0]
 8009d62:	781b      	ldrb	r3, [r3, #0]
 8009d64:	009b      	lsls	r3, r3, #2
 8009d66:	441a      	add	r2, r3
 8009d68:	f8b7 308c 	ldrh.w	r3, [r7, #140]	@ 0x8c
 8009d6c:	f043 437f 	orr.w	r3, r3, #4278190080	@ 0xff000000
 8009d70:	f443 037f 	orr.w	r3, r3, #16711680	@ 0xff0000
 8009d74:	f443 4300 	orr.w	r3, r3, #32768	@ 0x8000
 8009d78:	f043 0380 	orr.w	r3, r3, #128	@ 0x80
 8009d7c:	b29b      	uxth	r3, r3
 8009d7e:	8013      	strh	r3, [r2, #0]
 8009d80:	683b      	ldr	r3, [r7, #0]
 8009d82:	699a      	ldr	r2, [r3, #24]
 8009d84:	683b      	ldr	r3, [r7, #0]
 8009d86:	691b      	ldr	r3, [r3, #16]
 8009d88:	429a      	cmp	r2, r3
 8009d8a:	d907      	bls.n	8009d9c <USB_EPStartXfer+0xa56>
 8009d8c:	683b      	ldr	r3, [r7, #0]
 8009d8e:	699a      	ldr	r2, [r3, #24]
 8009d90:	683b      	ldr	r3, [r7, #0]
 8009d92:	691b      	ldr	r3, [r3, #16]
 8009d94:	1ad2      	subs	r2, r2, r3
 8009d96:	683b      	ldr	r3, [r7, #0]
 8009d98:	619a      	str	r2, [r3, #24]
 8009d9a:	e054      	b.n	8009e46 <USB_EPStartXfer+0xb00>
 8009d9c:	683b      	ldr	r3, [r7, #0]
 8009d9e:	2200      	movs	r2, #0
 8009da0:	619a      	str	r2, [r3, #24]
 8009da2:	e050      	b.n	8009e46 <USB_EPStartXfer+0xb00>
 8009da4:	683b      	ldr	r3, [r7, #0]
 8009da6:	78db      	ldrb	r3, [r3, #3]
 8009da8:	2b02      	cmp	r3, #2
 8009daa:	d142      	bne.n	8009e32 <USB_EPStartXfer+0xaec>
 8009dac:	683b      	ldr	r3, [r7, #0]
 8009dae:	69db      	ldr	r3, [r3, #28]
 8009db0:	2b00      	cmp	r3, #0
 8009db2:	d048      	beq.n	8009e46 <USB_EPStartXfer+0xb00>
 8009db4:	687a      	ldr	r2, [r7, #4]
 8009db6:	683b      	ldr	r3, [r7, #0]
 8009db8:	781b      	ldrb	r3, [r3, #0]
 8009dba:	009b      	lsls	r3, r3, #2
 8009dbc:	4413      	add	r3, r2
 8009dbe:	881b      	ldrh	r3, [r3, #0]
 8009dc0:	f8a7 3092 	strh.w	r3, [r7, #146]	@ 0x92
 8009dc4:	f8b7 3092 	ldrh.w	r3, [r7, #146]	@ 0x92
 8009dc8:	f403 4380 	and.w	r3, r3, #16384	@ 0x4000
 8009dcc:	2b00      	cmp	r3, #0
 8009dce:	d005      	beq.n	8009ddc <USB_EPStartXfer+0xa96>
 8009dd0:	f8b7 3092 	ldrh.w	r3, [r7, #146]	@ 0x92
 8009dd4:	f003 0340 	and.w	r3, r3, #64	@ 0x40
 8009dd8:	2b00      	cmp	r3, #0
 8009dda:	d10b      	bne.n	8009df4 <USB_EPStartXfer+0xaae>
 8009ddc:	f8b7 3092 	ldrh.w	r3, [r7, #146]	@ 0x92
 8009de0:	f403 4380 	and.w	r3, r3, #16384	@ 0x4000
 8009de4:	2b00      	cmp	r3, #0
 8009de6:	d12e      	bne.n	8009e46 <USB_EPStartXfer+0xb00>
 8009de8:	f8b7 3092 	ldrh.w	r3, [r7, #146]	@ 0x92
 8009dec:	f003 0340 	and.w	r3, r3, #64	@ 0x40
 8009df0:	2b00      	cmp	r3, #0
 8009df2:	d128      	bne.n	8009e46 <USB_EPStartXfer+0xb00>
 8009df4:	687a      	ldr	r2, [r7, #4]
 8009df6:	683b      	ldr	r3, [r7, #0]
 8009df8:	781b      	ldrb	r3, [r3, #0]
 8009dfa:	009b      	lsls	r3, r3, #2
 8009dfc:	4413      	add	r3, r2
 8009dfe:	881b      	ldrh	r3, [r3, #0]
 8009e00:	b29b      	uxth	r3, r3
 8009e02:	f423 43e0 	bic.w	r3, r3, #28672	@ 0x7000
 8009e06:	f023 0370 	bic.w	r3, r3, #112	@ 0x70
 8009e0a:	f8a7 3090 	strh.w	r3, [r7, #144]	@ 0x90
 8009e0e:	687a      	ldr	r2, [r7, #4]
 8009e10:	683b      	ldr	r3, [r7, #0]
 8009e12:	781b      	ldrb	r3, [r3, #0]
 8009e14:	009b      	lsls	r3, r3, #2
 8009e16:	441a      	add	r2, r3
 8009e18:	f8b7 3090 	ldrh.w	r3, [r7, #144]	@ 0x90
 8009e1c:	f043 437f 	orr.w	r3, r3, #4278190080	@ 0xff000000
 8009e20:	f443 037f 	orr.w	r3, r3, #16711680	@ 0xff0000
 8009e24:	f443 4300 	orr.w	r3, r3, #32768	@ 0x8000
 8009e28:	f043 03c0 	orr.w	r3, r3, #192	@ 0xc0
 8009e2c:	b29b      	uxth	r3, r3
 8009e2e:	8013      	strh	r3, [r2, #0]
 8009e30:	e009      	b.n	8009e46 <USB_EPStartXfer+0xb00>
 8009e32:	683b      	ldr	r3, [r7, #0]
 8009e34:	78db      	ldrb	r3, [r3, #3]
 8009e36:	2b01      	cmp	r3, #1
 8009e38:	d103      	bne.n	8009e42 <USB_EPStartXfer+0xafc>
 8009e3a:	683b      	ldr	r3, [r7, #0]
 8009e3c:	2200      	movs	r2, #0
 8009e3e:	619a      	str	r2, [r3, #24]
 8009e40:	e001      	b.n	8009e46 <USB_EPStartXfer+0xb00>
 8009e42:	2301      	movs	r3, #1
 8009e44:	e02a      	b.n	8009e9c <USB_EPStartXfer+0xb56>
 8009e46:	687a      	ldr	r2, [r7, #4]
 8009e48:	683b      	ldr	r3, [r7, #0]
 8009e4a:	781b      	ldrb	r3, [r3, #0]
 8009e4c:	009b      	lsls	r3, r3, #2
 8009e4e:	4413      	add	r3, r2
 8009e50:	881b      	ldrh	r3, [r3, #0]
 8009e52:	b29b      	uxth	r3, r3
 8009e54:	f423 4380 	bic.w	r3, r3, #16384	@ 0x4000
 8009e58:	f023 0370 	bic.w	r3, r3, #112	@ 0x70
 8009e5c:	f8a7 308a 	strh.w	r3, [r7, #138]	@ 0x8a
 8009e60:	f8b7 308a 	ldrh.w	r3, [r7, #138]	@ 0x8a
 8009e64:	f483 5380 	eor.w	r3, r3, #4096	@ 0x1000
 8009e68:	f8a7 308a 	strh.w	r3, [r7, #138]	@ 0x8a
 8009e6c:	f8b7 308a 	ldrh.w	r3, [r7, #138]	@ 0x8a
 8009e70:	f483 5300 	eor.w	r3, r3, #8192	@ 0x2000
 8009e74:	f8a7 308a 	strh.w	r3, [r7, #138]	@ 0x8a
 8009e78:	687a      	ldr	r2, [r7, #4]
 8009e7a:	683b      	ldr	r3, [r7, #0]
 8009e7c:	781b      	ldrb	r3, [r3, #0]
 8009e7e:	009b      	lsls	r3, r3, #2
 8009e80:	441a      	add	r2, r3
 8009e82:	f8b7 308a 	ldrh.w	r3, [r7, #138]	@ 0x8a
 8009e86:	f043 437f 	orr.w	r3, r3, #4278190080	@ 0xff000000
 8009e8a:	f443 037f 	orr.w	r3, r3, #16711680	@ 0xff0000
 8009e8e:	f443 4300 	orr.w	r3, r3, #32768	@ 0x8000
 8009e92:	f043 0380 	orr.w	r3, r3, #128	@ 0x80
 8009e96:	b29b      	uxth	r3, r3
 8009e98:	8013      	strh	r3, [r2, #0]
 8009e9a:	2300      	movs	r3, #0
 8009e9c:	4618      	mov	r0, r3
 8009e9e:	37b0      	adds	r7, #176	@ 0xb0
 8009ea0:	46bd      	mov	sp, r7
 8009ea2:	bd80      	pop	{r7, pc}

08009ea4 <USB_EPSetStall>:
 8009ea4:	b480      	push	{r7}
 8009ea6:	b085      	sub	sp, #20
 8009ea8:	af00      	add	r7, sp, #0
 8009eaa:	6078      	str	r0, [r7, #4]
 8009eac:	6039      	str	r1, [r7, #0]
 8009eae:	683b      	ldr	r3, [r7, #0]
 8009eb0:	785b      	ldrb	r3, [r3, #1]
 8009eb2:	2b00      	cmp	r3, #0
 8009eb4:	d020      	beq.n	8009ef8 <USB_EPSetStall+0x54>
 8009eb6:	687a      	ldr	r2, [r7, #4]
 8009eb8:	683b      	ldr	r3, [r7, #0]
 8009eba:	781b      	ldrb	r3, [r3, #0]
 8009ebc:	009b      	lsls	r3, r3, #2
 8009ebe:	4413      	add	r3, r2
 8009ec0:	881b      	ldrh	r3, [r3, #0]
 8009ec2:	b29b      	uxth	r3, r3
 8009ec4:	f423 43e0 	bic.w	r3, r3, #28672	@ 0x7000
 8009ec8:	f023 0340 	bic.w	r3, r3, #64	@ 0x40
 8009ecc:	81bb      	strh	r3, [r7, #12]
 8009ece:	89bb      	ldrh	r3, [r7, #12]
 8009ed0:	f083 0310 	eor.w	r3, r3, #16
 8009ed4:	81bb      	strh	r3, [r7, #12]
 8009ed6:	687a      	ldr	r2, [r7, #4]
 8009ed8:	683b      	ldr	r3, [r7, #0]
 8009eda:	781b      	ldrb	r3, [r3, #0]
 8009edc:	009b      	lsls	r3, r3, #2
 8009ede:	441a      	add	r2, r3
 8009ee0:	89bb      	ldrh	r3, [r7, #12]
 8009ee2:	f043 437f 	orr.w	r3, r3, #4278190080	@ 0xff000000
 8009ee6:	f443 037f 	orr.w	r3, r3, #16711680	@ 0xff0000
 8009eea:	f443 4300 	orr.w	r3, r3, #32768	@ 0x8000
 8009eee:	f043 0380 	orr.w	r3, r3, #128	@ 0x80
 8009ef2:	b29b      	uxth	r3, r3
 8009ef4:	8013      	strh	r3, [r2, #0]
 8009ef6:	e01f      	b.n	8009f38 <USB_EPSetStall+0x94>
 8009ef8:	687a      	ldr	r2, [r7, #4]
 8009efa:	683b      	ldr	r3, [r7, #0]
 8009efc:	781b      	ldrb	r3, [r3, #0]
 8009efe:	009b      	lsls	r3, r3, #2
 8009f00:	4413      	add	r3, r2
 8009f02:	881b      	ldrh	r3, [r3, #0]
 8009f04:	b29b      	uxth	r3, r3
 8009f06:	f423 4380 	bic.w	r3, r3, #16384	@ 0x4000
 8009f0a:	f023 0370 	bic.w	r3, r3, #112	@ 0x70
 8009f0e:	81fb      	strh	r3, [r7, #14]
 8009f10:	89fb      	ldrh	r3, [r7, #14]
 8009f12:	f483 5380 	eor.w	r3, r3, #4096	@ 0x1000
 8009f16:	81fb      	strh	r3, [r7, #14]
 8009f18:	687a      	ldr	r2, [r7, #4]
 8009f1a:	683b      	ldr	r3, [r7, #0]
 8009f1c:	781b      	ldrb	r3, [r3, #0]
 8009f1e:	009b      	lsls	r3, r3, #2
 8009f20:	441a      	add	r2, r3
 8009f22:	89fb      	ldrh	r3, [r7, #14]
 8009f24:	f043 437f 	orr.w	r3, r3, #4278190080	@ 0xff000000
 8009f28:	f443 037f 	orr.w	r3, r3, #16711680	@ 0xff0000
 8009f2c:	f443 4300 	orr.w	r3, r3, #32768	@ 0x8000
 8009f30:	f043 0380 	orr.w	r3, r3, #128	@ 0x80
 8009f34:	b29b      	uxth	r3, r3
 8009f36:	8013      	strh	r3, [r2, #0]
 8009f38:	2300      	movs	r3, #0
 8009f3a:	4618      	mov	r0, r3
 8009f3c:	3714      	adds	r7, #20
 8009f3e:	46bd      	mov	sp, r7
 8009f40:	f85d 7b04 	ldr.w	r7, [sp], #4
 8009f44:	4770      	bx	lr

08009f46 <USB_EPClearStall>:
 8009f46:	b480      	push	{r7}
 8009f48:	b087      	sub	sp, #28
 8009f4a:	af00      	add	r7, sp, #0
 8009f4c:	6078      	str	r0, [r7, #4]
 8009f4e:	6039      	str	r1, [r7, #0]
 8009f50:	683b      	ldr	r3, [r7, #0]
 8009f52:	785b      	ldrb	r3, [r3, #1]
 8009f54:	2b00      	cmp	r3, #0
 8009f56:	d04c      	beq.n	8009ff2 <USB_EPClearStall+0xac>
 8009f58:	687a      	ldr	r2, [r7, #4]
 8009f5a:	683b      	ldr	r3, [r7, #0]
 8009f5c:	781b      	ldrb	r3, [r3, #0]
 8009f5e:	009b      	lsls	r3, r3, #2
 8009f60:	4413      	add	r3, r2
 8009f62:	881b      	ldrh	r3, [r3, #0]
 8009f64:	823b      	strh	r3, [r7, #16]
 8009f66:	8a3b      	ldrh	r3, [r7, #16]
 8009f68:	f003 0340 	and.w	r3, r3, #64	@ 0x40
 8009f6c:	2b00      	cmp	r3, #0
 8009f6e:	d01b      	beq.n	8009fa8 <USB_EPClearStall+0x62>
 8009f70:	687a      	ldr	r2, [r7, #4]
 8009f72:	683b      	ldr	r3, [r7, #0]
 8009f74:	781b      	ldrb	r3, [r3, #0]
 8009f76:	009b      	lsls	r3, r3, #2
 8009f78:	4413      	add	r3, r2
 8009f7a:	881b      	ldrh	r3, [r3, #0]
 8009f7c:	b29b      	uxth	r3, r3
 8009f7e:	f423 43e0 	bic.w	r3, r3, #28672	@ 0x7000
 8009f82:	f023 0370 	bic.w	r3, r3, #112	@ 0x70
 8009f86:	81fb      	strh	r3, [r7, #14]
 8009f88:	687a      	ldr	r2, [r7, #4]
 8009f8a:	683b      	ldr	r3, [r7, #0]
 8009f8c:	781b      	ldrb	r3, [r3, #0]
 8009f8e:	009b      	lsls	r3, r3, #2
 8009f90:	441a      	add	r2, r3
 8009f92:	89fb      	ldrh	r3, [r7, #14]
 8009f94:	f043 437f 	orr.w	r3, r3, #4278190080	@ 0xff000000
 8009f98:	f443 037f 	orr.w	r3, r3, #16711680	@ 0xff0000
 8009f9c:	f443 4300 	orr.w	r3, r3, #32768	@ 0x8000
 8009fa0:	f043 03c0 	orr.w	r3, r3, #192	@ 0xc0
 8009fa4:	b29b      	uxth	r3, r3
 8009fa6:	8013      	strh	r3, [r2, #0]
 8009fa8:	683b      	ldr	r3, [r7, #0]
 8009faa:	78db      	ldrb	r3, [r3, #3]
 8009fac:	2b01      	cmp	r3, #1
 8009fae:	d06c      	beq.n	800a08a <USB_EPClearStall+0x144>
 8009fb0:	687a      	ldr	r2, [r7, #4]
 8009fb2:	683b      	ldr	r3, [r7, #0]
 8009fb4:	781b      	ldrb	r3, [r3, #0]
 8009fb6:	009b      	lsls	r3, r3, #2
 8009fb8:	4413      	add	r3, r2
 8009fba:	881b      	ldrh	r3, [r3, #0]
 8009fbc:	b29b      	uxth	r3, r3
 8009fbe:	f423 43e0 	bic.w	r3, r3, #28672	@ 0x7000
 8009fc2:	f023 0340 	bic.w	r3, r3, #64	@ 0x40
 8009fc6:	81bb      	strh	r3, [r7, #12]
 8009fc8:	89bb      	ldrh	r3, [r7, #12]
 8009fca:	f083 0320 	eor.w	r3, r3, #32
 8009fce:	81bb      	strh	r3, [r7, #12]
 8009fd0:	687a      	ldr	r2, [r7, #4]
 8009fd2:	683b      	ldr	r3, [r7, #0]
 8009fd4:	781b      	ldrb	r3, [r3, #0]
 8009fd6:	009b      	lsls	r3, r3, #2
 8009fd8:	441a      	add	r2, r3
 8009fda:	89bb      	ldrh	r3, [r7, #12]
 8009fdc:	f043 437f 	orr.w	r3, r3, #4278190080	@ 0xff000000
 8009fe0:	f443 037f 	orr.w	r3, r3, #16711680	@ 0xff0000
 8009fe4:	f443 4300 	orr.w	r3, r3, #32768	@ 0x8000
 8009fe8:	f043 0380 	orr.w	r3, r3, #128	@ 0x80
 8009fec:	b29b      	uxth	r3, r3
 8009fee:	8013      	strh	r3, [r2, #0]
 8009ff0:	e04b      	b.n	800a08a <USB_EPClearStall+0x144>
 8009ff2:	687a      	ldr	r2, [r7, #4]
 8009ff4:	683b      	ldr	r3, [r7, #0]
 8009ff6:	781b      	ldrb	r3, [r3, #0]
 8009ff8:	009b      	lsls	r3, r3, #2
 8009ffa:	4413      	add	r3, r2
 8009ffc:	881b      	ldrh	r3, [r3, #0]
 8009ffe:	82fb      	strh	r3, [r7, #22]
 800a000:	8afb      	ldrh	r3, [r7, #22]
 800a002:	f403 4380 	and.w	r3, r3, #16384	@ 0x4000
 800a006:	2b00      	cmp	r3, #0
 800a008:	d01b      	beq.n	800a042 <USB_EPClearStall+0xfc>
 800a00a:	687a      	ldr	r2, [r7, #4]
 800a00c:	683b      	ldr	r3, [r7, #0]
 800a00e:	781b      	ldrb	r3, [r3, #0]
 800a010:	009b      	lsls	r3, r3, #2
 800a012:	4413      	add	r3, r2
 800a014:	881b      	ldrh	r3, [r3, #0]
 800a016:	b29b      	uxth	r3, r3
 800a018:	f423 43e0 	bic.w	r3, r3, #28672	@ 0x7000
 800a01c:	f023 0370 	bic.w	r3, r3, #112	@ 0x70
 800a020:	82bb      	strh	r3, [r7, #20]
 800a022:	687a      	ldr	r2, [r7, #4]
 800a024:	683b      	ldr	r3, [r7, #0]
 800a026:	781b      	ldrb	r3, [r3, #0]
 800a028:	009b      	lsls	r3, r3, #2
 800a02a:	441a      	add	r2, r3
 800a02c:	8abb      	ldrh	r3, [r7, #20]
 800a02e:	f043 437f 	orr.w	r3, r3, #4278190080	@ 0xff000000
 800a032:	f443 037f 	orr.w	r3, r3, #16711680	@ 0xff0000
 800a036:	f443 4340 	orr.w	r3, r3, #49152	@ 0xc000
 800a03a:	f043 0380 	orr.w	r3, r3, #128	@ 0x80
 800a03e:	b29b      	uxth	r3, r3
 800a040:	8013      	strh	r3, [r2, #0]
 800a042:	687a      	ldr	r2, [r7, #4]
 800a044:	683b      	ldr	r3, [r7, #0]
 800a046:	781b      	ldrb	r3, [r3, #0]
 800a048:	009b      	lsls	r3, r3, #2
 800a04a:	4413      	add	r3, r2
 800a04c:	881b      	ldrh	r3, [r3, #0]
 800a04e:	b29b      	uxth	r3, r3
 800a050:	f423 4380 	bic.w	r3, r3, #16384	@ 0x4000
 800a054:	f023 0370 	bic.w	r3, r3, #112	@ 0x70
 800a058:	827b      	strh	r3, [r7, #18]
 800a05a:	8a7b      	ldrh	r3, [r7, #18]
 800a05c:	f483 5380 	eor.w	r3, r3, #4096	@ 0x1000
 800a060:	827b      	strh	r3, [r7, #18]
 800a062:	8a7b      	ldrh	r3, [r7, #18]
 800a064:	f483 5300 	eor.w	r3, r3, #8192	@ 0x2000
 800a068:	827b      	strh	r3, [r7, #18]
 800a06a:	687a      	ldr	r2, [r7, #4]
 800a06c:	683b      	ldr	r3, [r7, #0]
 800a06e:	781b      	ldrb	r3, [r3, #0]
 800a070:	009b      	lsls	r3, r3, #2
 800a072:	441a      	add	r2, r3
 800a074:	8a7b      	ldrh	r3, [r7, #18]
 800a076:	f043 437f 	orr.w	r3, r3, #4278190080	@ 0xff000000
 800a07a:	f443 037f 	orr.w	r3, r3, #16711680	@ 0xff0000
 800a07e:	f443 4300 	orr.w	r3, r3, #32768	@ 0x8000
 800a082:	f043 0380 	orr.w	r3, r3, #128	@ 0x80
 800a086:	b29b      	uxth	r3, r3
 800a088:	8013      	strh	r3, [r2, #0]
 800a08a:	2300      	movs	r3, #0
 800a08c:	4618      	mov	r0, r3
 800a08e:	371c      	adds	r7, #28
 800a090:	46bd      	mov	sp, r7
 800a092:	f85d 7b04 	ldr.w	r7, [sp], #4
 800a096:	4770      	bx	lr

0800a098 <USB_SetDevAddress>:
 800a098:	b480      	push	{r7}
 800a09a:	b083      	sub	sp, #12
 800a09c:	af00      	add	r7, sp, #0
 800a09e:	6078      	str	r0, [r7, #4]
 800a0a0:	460b      	mov	r3, r1
 800a0a2:	70fb      	strb	r3, [r7, #3]
 800a0a4:	78fb      	ldrb	r3, [r7, #3]
 800a0a6:	2b00      	cmp	r3, #0
 800a0a8:	d103      	bne.n	800a0b2 <USB_SetDevAddress+0x1a>
 800a0aa:	687b      	ldr	r3, [r7, #4]
 800a0ac:	2280      	movs	r2, #128	@ 0x80
 800a0ae:	f8a3 204c 	strh.w	r2, [r3, #76]	@ 0x4c
 800a0b2:	2300      	movs	r3, #0
 800a0b4:	4618      	mov	r0, r3
 800a0b6:	370c      	adds	r7, #12
 800a0b8:	46bd      	mov	sp, r7
 800a0ba:	f85d 7b04 	ldr.w	r7, [sp], #4
 800a0be:	4770      	bx	lr

0800a0c0 <USB_DevConnect>:
 800a0c0:	b480      	push	{r7}
 800a0c2:	b083      	sub	sp, #12
 800a0c4:	af00      	add	r7, sp, #0
 800a0c6:	6078      	str	r0, [r7, #4]
 800a0c8:	687b      	ldr	r3, [r7, #4]
 800a0ca:	f8b3 3058 	ldrh.w	r3, [r3, #88]	@ 0x58
 800a0ce:	b29b      	uxth	r3, r3
 800a0d0:	ea6f 4343 	mvn.w	r3, r3, lsl #17
 800a0d4:	ea6f 4353 	mvn.w	r3, r3, lsr #17
 800a0d8:	b29a      	uxth	r2, r3
 800a0da:	687b      	ldr	r3, [r7, #4]
 800a0dc:	f8a3 2058 	strh.w	r2, [r3, #88]	@ 0x58
 800a0e0:	2300      	movs	r3, #0
 800a0e2:	4618      	mov	r0, r3
 800a0e4:	370c      	adds	r7, #12
 800a0e6:	46bd      	mov	sp, r7
 800a0e8:	f85d 7b04 	ldr.w	r7, [sp], #4
 800a0ec:	4770      	bx	lr

0800a0ee <USB_ReadInterrupts>:
 800a0ee:	b480      	push	{r7}
 800a0f0:	b085      	sub	sp, #20
 800a0f2:	af00      	add	r7, sp, #0
 800a0f4:	6078      	str	r0, [r7, #4]
 800a0f6:	687b      	ldr	r3, [r7, #4]
 800a0f8:	f8b3 3044 	ldrh.w	r3, [r3, #68]	@ 0x44
 800a0fc:	b29b      	uxth	r3, r3
 800a0fe:	60fb      	str	r3, [r7, #12]
 800a100:	68fb      	ldr	r3, [r7, #12]
 800a102:	4618      	mov	r0, r3
 800a104:	3714      	adds	r7, #20
 800a106:	46bd      	mov	sp, r7
 800a108:	f85d 7b04 	ldr.w	r7, [sp], #4
 800a10c:	4770      	bx	lr

0800a10e <USB_WritePMA>:
 800a10e:	b480      	push	{r7}
 800a110:	b08b      	sub	sp, #44	@ 0x2c
 800a112:	af00      	add	r7, sp, #0
 800a114:	60f8      	str	r0, [r7, #12]
 800a116:	60b9      	str	r1, [r7, #8]
 800a118:	4611      	mov	r1, r2
 800a11a:	461a      	mov	r2, r3
 800a11c:	460b      	mov	r3, r1
 800a11e:	80fb      	strh	r3, [r7, #6]
 800a120:	4613      	mov	r3, r2
 800a122:	80bb      	strh	r3, [r7, #4]
 800a124:	88bb      	ldrh	r3, [r7, #4]
 800a126:	3301      	adds	r3, #1
 800a128:	085b      	lsrs	r3, r3, #1
 800a12a:	61bb      	str	r3, [r7, #24]
 800a12c:	68fb      	ldr	r3, [r7, #12]
 800a12e:	617b      	str	r3, [r7, #20]
 800a130:	68bb      	ldr	r3, [r7, #8]
 800a132:	61fb      	str	r3, [r7, #28]
 800a134:	88fa      	ldrh	r2, [r7, #6]
 800a136:	697b      	ldr	r3, [r7, #20]
 800a138:	4413      	add	r3, r2
 800a13a:	f503 6380 	add.w	r3, r3, #1024	@ 0x400
 800a13e:	623b      	str	r3, [r7, #32]
 800a140:	69bb      	ldr	r3, [r7, #24]
 800a142:	627b      	str	r3, [r7, #36]	@ 0x24
 800a144:	e01c      	b.n	800a180 <USB_WritePMA+0x72>
 800a146:	69fb      	ldr	r3, [r7, #28]
 800a148:	781b      	ldrb	r3, [r3, #0]
 800a14a:	827b      	strh	r3, [r7, #18]
 800a14c:	69fb      	ldr	r3, [r7, #28]
 800a14e:	3301      	adds	r3, #1
 800a150:	781b      	ldrb	r3, [r3, #0]
 800a152:	b21b      	sxth	r3, r3
 800a154:	021b      	lsls	r3, r3, #8
 800a156:	b21a      	sxth	r2, r3
 800a158:	f9b7 3012 	ldrsh.w	r3, [r7, #18]
 800a15c:	4313      	orrs	r3, r2
 800a15e:	b21b      	sxth	r3, r3
 800a160:	827b      	strh	r3, [r7, #18]
 800a162:	6a3b      	ldr	r3, [r7, #32]
 800a164:	8a7a      	ldrh	r2, [r7, #18]
 800a166:	801a      	strh	r2, [r3, #0]
 800a168:	6a3b      	ldr	r3, [r7, #32]
 800a16a:	3302      	adds	r3, #2
 800a16c:	623b      	str	r3, [r7, #32]
 800a16e:	69fb      	ldr	r3, [r7, #28]
 800a170:	3301      	adds	r3, #1
 800a172:	61fb      	str	r3, [r7, #28]
 800a174:	69fb      	ldr	r3, [r7, #28]
 800a176:	3301      	adds	r3, #1
 800a178:	61fb      	str	r3, [r7, #28]
 800a17a:	6a7b      	ldr	r3, [r7, #36]	@ 0x24
 800a17c:	3b01      	subs	r3, #1
 800a17e:	627b      	str	r3, [r7, #36]	@ 0x24
 800a180:	6a7b      	ldr	r3, [r7, #36]	@ 0x24
 800a182:	2b00      	cmp	r3, #0
 800a184:	d1df      	bne.n	800a146 <USB_WritePMA+0x38>
 800a186:	bf00      	nop
 800a188:	bf00      	nop
 800a18a:	372c      	adds	r7, #44	@ 0x2c
 800a18c:	46bd      	mov	sp, r7
 800a18e:	f85d 7b04 	ldr.w	r7, [sp], #4
 800a192:	4770      	bx	lr

0800a194 <USB_ReadPMA>:
 800a194:	b480      	push	{r7}
 800a196:	b08b      	sub	sp, #44	@ 0x2c
 800a198:	af00      	add	r7, sp, #0
 800a19a:	60f8      	str	r0, [r7, #12]
 800a19c:	60b9      	str	r1, [r7, #8]
 800a19e:	4611      	mov	r1, r2
 800a1a0:	461a      	mov	r2, r3
 800a1a2:	460b      	mov	r3, r1
 800a1a4:	80fb      	strh	r3, [r7, #6]
 800a1a6:	4613      	mov	r3, r2
 800a1a8:	80bb      	strh	r3, [r7, #4]
 800a1aa:	88bb      	ldrh	r3, [r7, #4]
 800a1ac:	085b      	lsrs	r3, r3, #1
 800a1ae:	b29b      	uxth	r3, r3
 800a1b0:	61bb      	str	r3, [r7, #24]
 800a1b2:	68fb      	ldr	r3, [r7, #12]
 800a1b4:	617b      	str	r3, [r7, #20]
 800a1b6:	68bb      	ldr	r3, [r7, #8]
 800a1b8:	61fb      	str	r3, [r7, #28]
 800a1ba:	88fa      	ldrh	r2, [r7, #6]
 800a1bc:	697b      	ldr	r3, [r7, #20]
 800a1be:	4413      	add	r3, r2
 800a1c0:	f503 6380 	add.w	r3, r3, #1024	@ 0x400
 800a1c4:	623b      	str	r3, [r7, #32]
 800a1c6:	69bb      	ldr	r3, [r7, #24]
 800a1c8:	627b      	str	r3, [r7, #36]	@ 0x24
 800a1ca:	e018      	b.n	800a1fe <USB_ReadPMA+0x6a>
 800a1cc:	6a3b      	ldr	r3, [r7, #32]
 800a1ce:	881b      	ldrh	r3, [r3, #0]
 800a1d0:	b29b      	uxth	r3, r3
 800a1d2:	613b      	str	r3, [r7, #16]
 800a1d4:	6a3b      	ldr	r3, [r7, #32]
 800a1d6:	3302      	adds	r3, #2
 800a1d8:	623b      	str	r3, [r7, #32]
 800a1da:	693b      	ldr	r3, [r7, #16]
 800a1dc:	b2da      	uxtb	r2, r3
 800a1de:	69fb      	ldr	r3, [r7, #28]
 800a1e0:	701a      	strb	r2, [r3, #0]
 800a1e2:	69fb      	ldr	r3, [r7, #28]
 800a1e4:	3301      	adds	r3, #1
 800a1e6:	61fb      	str	r3, [r7, #28]
 800a1e8:	693b      	ldr	r3, [r7, #16]
 800a1ea:	0a1b      	lsrs	r3, r3, #8
 800a1ec:	b2da      	uxtb	r2, r3
 800a1ee:	69fb      	ldr	r3, [r7, #28]
 800a1f0:	701a      	strb	r2, [r3, #0]
 800a1f2:	69fb      	ldr	r3, [r7, #28]
 800a1f4:	3301      	adds	r3, #1
 800a1f6:	61fb      	str	r3, [r7, #28]
 800a1f8:	6a7b      	ldr	r3, [r7, #36]	@ 0x24
 800a1fa:	3b01      	subs	r3, #1
 800a1fc:	627b      	str	r3, [r7, #36]	@ 0x24
 800a1fe:	6a7b      	ldr	r3, [r7, #36]	@ 0x24
 800a200:	2b00      	cmp	r3, #0
 800a202:	d1e3      	bne.n	800a1cc <USB_ReadPMA+0x38>
 800a204:	88bb      	ldrh	r3, [r7, #4]
 800a206:	f003 0301 	and.w	r3, r3, #1
 800a20a:	b29b      	uxth	r3, r3
 800a20c:	2b00      	cmp	r3, #0
 800a20e:	d007      	beq.n	800a220 <USB_ReadPMA+0x8c>
 800a210:	6a3b      	ldr	r3, [r7, #32]
 800a212:	881b      	ldrh	r3, [r3, #0]
 800a214:	b29b      	uxth	r3, r3
 800a216:	613b      	str	r3, [r7, #16]
 800a218:	693b      	ldr	r3, [r7, #16]
 800a21a:	b2da      	uxtb	r2, r3
 800a21c:	69fb      	ldr	r3, [r7, #28]
 800a21e:	701a      	strb	r2, [r3, #0]
 800a220:	bf00      	nop
 800a222:	372c      	adds	r7, #44	@ 0x2c
 800a224:	46bd      	mov	sp, r7
 800a226:	f85d 7b04 	ldr.w	r7, [sp], #4
 800a22a:	4770      	bx	lr

0800a22c <USBD_CDC_Init>:
 800a22c:	b580      	push	{r7, lr}
 800a22e:	b084      	sub	sp, #16
 800a230:	af00      	add	r7, sp, #0
 800a232:	6078      	str	r0, [r7, #4]
 800a234:	460b      	mov	r3, r1
 800a236:	70fb      	strb	r3, [r7, #3]
 800a238:	f44f 7007 	mov.w	r0, #540	@ 0x21c
 800a23c:	f002 f8bc 	bl	800c3b8 <USBD_static_malloc>
 800a240:	60f8      	str	r0, [r7, #12]
 800a242:	68fb      	ldr	r3, [r7, #12]
 800a244:	2b00      	cmp	r3, #0
 800a246:	d105      	bne.n	800a254 <USBD_CDC_Init+0x28>
 800a248:	687b      	ldr	r3, [r7, #4]
 800a24a:	2200      	movs	r2, #0
 800a24c:	f8c3 22bc 	str.w	r2, [r3, #700]	@ 0x2bc
 800a250:	2302      	movs	r3, #2
 800a252:	e066      	b.n	800a322 <USBD_CDC_Init+0xf6>
 800a254:	687b      	ldr	r3, [r7, #4]
 800a256:	68fa      	ldr	r2, [r7, #12]
 800a258:	f8c3 22bc 	str.w	r2, [r3, #700]	@ 0x2bc
 800a25c:	687b      	ldr	r3, [r7, #4]
 800a25e:	7c1b      	ldrb	r3, [r3, #16]
 800a260:	2b00      	cmp	r3, #0
 800a262:	d119      	bne.n	800a298 <USBD_CDC_Init+0x6c>
 800a264:	f44f 7300 	mov.w	r3, #512	@ 0x200
 800a268:	2202      	movs	r2, #2
 800a26a:	2181      	movs	r1, #129	@ 0x81
 800a26c:	6878      	ldr	r0, [r7, #4]
 800a26e:	f001 ff4a 	bl	800c106 <USBD_LL_OpenEP>
 800a272:	687b      	ldr	r3, [r7, #4]
 800a274:	2201      	movs	r2, #1
 800a276:	871a      	strh	r2, [r3, #56]	@ 0x38
 800a278:	f44f 7300 	mov.w	r3, #512	@ 0x200
 800a27c:	2202      	movs	r2, #2
 800a27e:	2101      	movs	r1, #1
 800a280:	6878      	ldr	r0, [r7, #4]
 800a282:	f001 ff40 	bl	800c106 <USBD_LL_OpenEP>
 800a286:	687b      	ldr	r3, [r7, #4]
 800a288:	2201      	movs	r2, #1
 800a28a:	f8a3 2178 	strh.w	r2, [r3, #376]	@ 0x178
 800a28e:	687b      	ldr	r3, [r7, #4]
 800a290:	2210      	movs	r2, #16
 800a292:	f8a3 204e 	strh.w	r2, [r3, #78]	@ 0x4e
 800a296:	e016      	b.n	800a2c6 <USBD_CDC_Init+0x9a>
 800a298:	2340      	movs	r3, #64	@ 0x40
 800a29a:	2202      	movs	r2, #2
 800a29c:	2181      	movs	r1, #129	@ 0x81
 800a29e:	6878      	ldr	r0, [r7, #4]
 800a2a0:	f001 ff31 	bl	800c106 <USBD_LL_OpenEP>
 800a2a4:	687b      	ldr	r3, [r7, #4]
 800a2a6:	2201      	movs	r2, #1
 800a2a8:	871a      	strh	r2, [r3, #56]	@ 0x38
 800a2aa:	2340      	movs	r3, #64	@ 0x40
 800a2ac:	2202      	movs	r2, #2
 800a2ae:	2101      	movs	r1, #1
 800a2b0:	6878      	ldr	r0, [r7, #4]
 800a2b2:	f001 ff28 	bl	800c106 <USBD_LL_OpenEP>
 800a2b6:	687b      	ldr	r3, [r7, #4]
 800a2b8:	2201      	movs	r2, #1
 800a2ba:	f8a3 2178 	strh.w	r2, [r3, #376]	@ 0x178
 800a2be:	687b      	ldr	r3, [r7, #4]
 800a2c0:	2210      	movs	r2, #16
 800a2c2:	f8a3 204e 	strh.w	r2, [r3, #78]	@ 0x4e
 800a2c6:	2308      	movs	r3, #8
 800a2c8:	2203      	movs	r2, #3
 800a2ca:	2182      	movs	r1, #130	@ 0x82
 800a2cc:	6878      	ldr	r0, [r7, #4]
 800a2ce:	f001 ff1a 	bl	800c106 <USBD_LL_OpenEP>
 800a2d2:	687b      	ldr	r3, [r7, #4]
 800a2d4:	2201      	movs	r2, #1
 800a2d6:	f8a3 204c 	strh.w	r2, [r3, #76]	@ 0x4c
 800a2da:	687b      	ldr	r3, [r7, #4]
 800a2dc:	f8d3 32c0 	ldr.w	r3, [r3, #704]	@ 0x2c0
 800a2e0:	681b      	ldr	r3, [r3, #0]
 800a2e2:	4798      	blx	r3
 800a2e4:	68fb      	ldr	r3, [r7, #12]
 800a2e6:	2200      	movs	r2, #0
 800a2e8:	f8c3 2214 	str.w	r2, [r3, #532]	@ 0x214
 800a2ec:	68fb      	ldr	r3, [r7, #12]
 800a2ee:	2200      	movs	r2, #0
 800a2f0:	f8c3 2218 	str.w	r2, [r3, #536]	@ 0x218
 800a2f4:	687b      	ldr	r3, [r7, #4]
 800a2f6:	7c1b      	ldrb	r3, [r3, #16]
 800a2f8:	2b00      	cmp	r3, #0
 800a2fa:	d109      	bne.n	800a310 <USBD_CDC_Init+0xe4>
 800a2fc:	68fb      	ldr	r3, [r7, #12]
 800a2fe:	f8d3 2204 	ldr.w	r2, [r3, #516]	@ 0x204
 800a302:	f44f 7300 	mov.w	r3, #512	@ 0x200
 800a306:	2101      	movs	r1, #1
 800a308:	6878      	ldr	r0, [r7, #4]
 800a30a:	f001 ffeb 	bl	800c2e4 <USBD_LL_PrepareReceive>
 800a30e:	e007      	b.n	800a320 <USBD_CDC_Init+0xf4>
 800a310:	68fb      	ldr	r3, [r7, #12]
 800a312:	f8d3 2204 	ldr.w	r2, [r3, #516]	@ 0x204
 800a316:	2340      	movs	r3, #64	@ 0x40
 800a318:	2101      	movs	r1, #1
 800a31a:	6878      	ldr	r0, [r7, #4]
 800a31c:	f001 ffe2 	bl	800c2e4 <USBD_LL_PrepareReceive>
 800a320:	2300      	movs	r3, #0
 800a322:	4618      	mov	r0, r3
 800a324:	3710      	adds	r7, #16
 800a326:	46bd      	mov	sp, r7
 800a328:	bd80      	pop	{r7, pc}

0800a32a <USBD_CDC_DeInit>:
 800a32a:	b580      	push	{r7, lr}
 800a32c:	b082      	sub	sp, #8
 800a32e:	af00      	add	r7, sp, #0
 800a330:	6078      	str	r0, [r7, #4]
 800a332:	460b      	mov	r3, r1
 800a334:	70fb      	strb	r3, [r7, #3]
 800a336:	2181      	movs	r1, #129	@ 0x81
 800a338:	6878      	ldr	r0, [r7, #4]
 800a33a:	f001 ff0a 	bl	800c152 <USBD_LL_CloseEP>
 800a33e:	687b      	ldr	r3, [r7, #4]
 800a340:	2200      	movs	r2, #0
 800a342:	871a      	strh	r2, [r3, #56]	@ 0x38
 800a344:	2101      	movs	r1, #1
 800a346:	6878      	ldr	r0, [r7, #4]
 800a348:	f001 ff03 	bl	800c152 <USBD_LL_CloseEP>
 800a34c:	687b      	ldr	r3, [r7, #4]
 800a34e:	2200      	movs	r2, #0
 800a350:	f8a3 2178 	strh.w	r2, [r3, #376]	@ 0x178
 800a354:	2182      	movs	r1, #130	@ 0x82
 800a356:	6878      	ldr	r0, [r7, #4]
 800a358:	f001 fefb 	bl	800c152 <USBD_LL_CloseEP>
 800a35c:	687b      	ldr	r3, [r7, #4]
 800a35e:	2200      	movs	r2, #0
 800a360:	f8a3 204c 	strh.w	r2, [r3, #76]	@ 0x4c
 800a364:	687b      	ldr	r3, [r7, #4]
 800a366:	2200      	movs	r2, #0
 800a368:	f8a3 204e 	strh.w	r2, [r3, #78]	@ 0x4e
 800a36c:	687b      	ldr	r3, [r7, #4]
 800a36e:	f8d3 32bc 	ldr.w	r3, [r3, #700]	@ 0x2bc
 800a372:	2b00      	cmp	r3, #0
 800a374:	d00e      	beq.n	800a394 <USBD_CDC_DeInit+0x6a>
 800a376:	687b      	ldr	r3, [r7, #4]
 800a378:	f8d3 32c0 	ldr.w	r3, [r3, #704]	@ 0x2c0
 800a37c:	685b      	ldr	r3, [r3, #4]
 800a37e:	4798      	blx	r3
 800a380:	687b      	ldr	r3, [r7, #4]
 800a382:	f8d3 32bc 	ldr.w	r3, [r3, #700]	@ 0x2bc
 800a386:	4618      	mov	r0, r3
 800a388:	f002 f824 	bl	800c3d4 <USBD_static_free>
 800a38c:	687b      	ldr	r3, [r7, #4]
 800a38e:	2200      	movs	r2, #0
 800a390:	f8c3 22bc 	str.w	r2, [r3, #700]	@ 0x2bc
 800a394:	2300      	movs	r3, #0
 800a396:	4618      	mov	r0, r3
 800a398:	3708      	adds	r7, #8
 800a39a:	46bd      	mov	sp, r7
 800a39c:	bd80      	pop	{r7, pc}
	...

0800a3a0 <USBD_CDC_Setup>:
 800a3a0:	b580      	push	{r7, lr}
 800a3a2:	b086      	sub	sp, #24
 800a3a4:	af00      	add	r7, sp, #0
 800a3a6:	6078      	str	r0, [r7, #4]
 800a3a8:	6039      	str	r1, [r7, #0]
 800a3aa:	687b      	ldr	r3, [r7, #4]
 800a3ac:	f8d3 32bc 	ldr.w	r3, [r3, #700]	@ 0x2bc
 800a3b0:	613b      	str	r3, [r7, #16]
 800a3b2:	2300      	movs	r3, #0
 800a3b4:	737b      	strb	r3, [r7, #13]
 800a3b6:	2300      	movs	r3, #0
 800a3b8:	817b      	strh	r3, [r7, #10]
 800a3ba:	2300      	movs	r3, #0
 800a3bc:	75fb      	strb	r3, [r7, #23]
 800a3be:	693b      	ldr	r3, [r7, #16]
 800a3c0:	2b00      	cmp	r3, #0
 800a3c2:	d101      	bne.n	800a3c8 <USBD_CDC_Setup+0x28>
 800a3c4:	2303      	movs	r3, #3
 800a3c6:	e0af      	b.n	800a528 <USBD_CDC_Setup+0x188>
 800a3c8:	683b      	ldr	r3, [r7, #0]
 800a3ca:	781b      	ldrb	r3, [r3, #0]
 800a3cc:	f003 0360 	and.w	r3, r3, #96	@ 0x60
 800a3d0:	2b00      	cmp	r3, #0
 800a3d2:	d03f      	beq.n	800a454 <USBD_CDC_Setup+0xb4>
 800a3d4:	2b20      	cmp	r3, #32
 800a3d6:	f040 809f 	bne.w	800a518 <USBD_CDC_Setup+0x178>
 800a3da:	683b      	ldr	r3, [r7, #0]
 800a3dc:	88db      	ldrh	r3, [r3, #6]
 800a3de:	2b00      	cmp	r3, #0
 800a3e0:	d02e      	beq.n	800a440 <USBD_CDC_Setup+0xa0>
 800a3e2:	683b      	ldr	r3, [r7, #0]
 800a3e4:	781b      	ldrb	r3, [r3, #0]
 800a3e6:	b25b      	sxtb	r3, r3
 800a3e8:	2b00      	cmp	r3, #0
 800a3ea:	da16      	bge.n	800a41a <USBD_CDC_Setup+0x7a>
 800a3ec:	687b      	ldr	r3, [r7, #4]
 800a3ee:	f8d3 32c0 	ldr.w	r3, [r3, #704]	@ 0x2c0
 800a3f2:	689b      	ldr	r3, [r3, #8]
 800a3f4:	683a      	ldr	r2, [r7, #0]
 800a3f6:	7850      	ldrb	r0, [r2, #1]
 800a3f8:	6939      	ldr	r1, [r7, #16]
 800a3fa:	683a      	ldr	r2, [r7, #0]
 800a3fc:	88d2      	ldrh	r2, [r2, #6]
 800a3fe:	4798      	blx	r3
 800a400:	683b      	ldr	r3, [r7, #0]
 800a402:	88db      	ldrh	r3, [r3, #6]
 800a404:	2b07      	cmp	r3, #7
 800a406:	bf28      	it	cs
 800a408:	2307      	movcs	r3, #7
 800a40a:	81fb      	strh	r3, [r7, #14]
 800a40c:	693b      	ldr	r3, [r7, #16]
 800a40e:	89fa      	ldrh	r2, [r7, #14]
 800a410:	4619      	mov	r1, r3
 800a412:	6878      	ldr	r0, [r7, #4]
 800a414:	f001 fa9f 	bl	800b956 <USBD_CtlSendData>
 800a418:	e085      	b.n	800a526 <USBD_CDC_Setup+0x186>
 800a41a:	683b      	ldr	r3, [r7, #0]
 800a41c:	785a      	ldrb	r2, [r3, #1]
 800a41e:	693b      	ldr	r3, [r7, #16]
 800a420:	f883 2200 	strb.w	r2, [r3, #512]	@ 0x200
 800a424:	683b      	ldr	r3, [r7, #0]
 800a426:	88db      	ldrh	r3, [r3, #6]
 800a428:	b2da      	uxtb	r2, r3
 800a42a:	693b      	ldr	r3, [r7, #16]
 800a42c:	f883 2201 	strb.w	r2, [r3, #513]	@ 0x201
 800a430:	6939      	ldr	r1, [r7, #16]
 800a432:	683b      	ldr	r3, [r7, #0]
 800a434:	88db      	ldrh	r3, [r3, #6]
 800a436:	461a      	mov	r2, r3
 800a438:	6878      	ldr	r0, [r7, #4]
 800a43a:	f001 fab8 	bl	800b9ae <USBD_CtlPrepareRx>
 800a43e:	e072      	b.n	800a526 <USBD_CDC_Setup+0x186>
 800a440:	687b      	ldr	r3, [r7, #4]
 800a442:	f8d3 32c0 	ldr.w	r3, [r3, #704]	@ 0x2c0
 800a446:	689b      	ldr	r3, [r3, #8]
 800a448:	683a      	ldr	r2, [r7, #0]
 800a44a:	7850      	ldrb	r0, [r2, #1]
 800a44c:	2200      	movs	r2, #0
 800a44e:	6839      	ldr	r1, [r7, #0]
 800a450:	4798      	blx	r3
 800a452:	e068      	b.n	800a526 <USBD_CDC_Setup+0x186>
 800a454:	683b      	ldr	r3, [r7, #0]
 800a456:	785b      	ldrb	r3, [r3, #1]
 800a458:	2b0b      	cmp	r3, #11
 800a45a:	d852      	bhi.n	800a502 <USBD_CDC_Setup+0x162>
 800a45c:	a201      	add	r2, pc, #4	@ (adr r2, 800a464 <USBD_CDC_Setup+0xc4>)
 800a45e:	f852 f023 	ldr.w	pc, [r2, r3, lsl #2]
 800a462:	bf00      	nop
 800a464:	0800a495 	.word	0x0800a495
 800a468:	0800a511 	.word	0x0800a511
 800a46c:	0800a503 	.word	0x0800a503
 800a470:	0800a503 	.word	0x0800a503
 800a474:	0800a503 	.word	0x0800a503
 800a478:	0800a503 	.word	0x0800a503
 800a47c:	0800a503 	.word	0x0800a503
 800a480:	0800a503 	.word	0x0800a503
 800a484:	0800a503 	.word	0x0800a503
 800a488:	0800a503 	.word	0x0800a503
 800a48c:	0800a4bf 	.word	0x0800a4bf
 800a490:	0800a4e9 	.word	0x0800a4e9
 800a494:	687b      	ldr	r3, [r7, #4]
 800a496:	f893 329c 	ldrb.w	r3, [r3, #668]	@ 0x29c
 800a49a:	b2db      	uxtb	r3, r3
 800a49c:	2b03      	cmp	r3, #3
 800a49e:	d107      	bne.n	800a4b0 <USBD_CDC_Setup+0x110>
 800a4a0:	f107 030a 	add.w	r3, r7, #10
 800a4a4:	2202      	movs	r2, #2
 800a4a6:	4619      	mov	r1, r3
 800a4a8:	6878      	ldr	r0, [r7, #4]
 800a4aa:	f001 fa54 	bl	800b956 <USBD_CtlSendData>
 800a4ae:	e032      	b.n	800a516 <USBD_CDC_Setup+0x176>
 800a4b0:	6839      	ldr	r1, [r7, #0]
 800a4b2:	6878      	ldr	r0, [r7, #4]
 800a4b4:	f001 f9de 	bl	800b874 <USBD_CtlError>
 800a4b8:	2303      	movs	r3, #3
 800a4ba:	75fb      	strb	r3, [r7, #23]
 800a4bc:	e02b      	b.n	800a516 <USBD_CDC_Setup+0x176>
 800a4be:	687b      	ldr	r3, [r7, #4]
 800a4c0:	f893 329c 	ldrb.w	r3, [r3, #668]	@ 0x29c
 800a4c4:	b2db      	uxtb	r3, r3
 800a4c6:	2b03      	cmp	r3, #3
 800a4c8:	d107      	bne.n	800a4da <USBD_CDC_Setup+0x13a>
 800a4ca:	f107 030d 	add.w	r3, r7, #13
 800a4ce:	2201      	movs	r2, #1
 800a4d0:	4619      	mov	r1, r3
 800a4d2:	6878      	ldr	r0, [r7, #4]
 800a4d4:	f001 fa3f 	bl	800b956 <USBD_CtlSendData>
 800a4d8:	e01d      	b.n	800a516 <USBD_CDC_Setup+0x176>
 800a4da:	6839      	ldr	r1, [r7, #0]
 800a4dc:	6878      	ldr	r0, [r7, #4]
 800a4de:	f001 f9c9 	bl	800b874 <USBD_CtlError>
 800a4e2:	2303      	movs	r3, #3
 800a4e4:	75fb      	strb	r3, [r7, #23]
 800a4e6:	e016      	b.n	800a516 <USBD_CDC_Setup+0x176>
 800a4e8:	687b      	ldr	r3, [r7, #4]
 800a4ea:	f893 329c 	ldrb.w	r3, [r3, #668]	@ 0x29c
 800a4ee:	b2db      	uxtb	r3, r3
 800a4f0:	2b03      	cmp	r3, #3
 800a4f2:	d00f      	beq.n	800a514 <USBD_CDC_Setup+0x174>
 800a4f4:	6839      	ldr	r1, [r7, #0]
 800a4f6:	6878      	ldr	r0, [r7, #4]
 800a4f8:	f001 f9bc 	bl	800b874 <USBD_CtlError>
 800a4fc:	2303      	movs	r3, #3
 800a4fe:	75fb      	strb	r3, [r7, #23]
 800a500:	e008      	b.n	800a514 <USBD_CDC_Setup+0x174>
 800a502:	6839      	ldr	r1, [r7, #0]
 800a504:	6878      	ldr	r0, [r7, #4]
 800a506:	f001 f9b5 	bl	800b874 <USBD_CtlError>
 800a50a:	2303      	movs	r3, #3
 800a50c:	75fb      	strb	r3, [r7, #23]
 800a50e:	e002      	b.n	800a516 <USBD_CDC_Setup+0x176>
 800a510:	bf00      	nop
 800a512:	e008      	b.n	800a526 <USBD_CDC_Setup+0x186>
 800a514:	bf00      	nop
 800a516:	e006      	b.n	800a526 <USBD_CDC_Setup+0x186>
 800a518:	6839      	ldr	r1, [r7, #0]
 800a51a:	6878      	ldr	r0, [r7, #4]
 800a51c:	f001 f9aa 	bl	800b874 <USBD_CtlError>
 800a520:	2303      	movs	r3, #3
 800a522:	75fb      	strb	r3, [r7, #23]
 800a524:	bf00      	nop
 800a526:	7dfb      	ldrb	r3, [r7, #23]
 800a528:	4618      	mov	r0, r3
 800a52a:	3718      	adds	r7, #24
 800a52c:	46bd      	mov	sp, r7
 800a52e:	bd80      	pop	{r7, pc}

0800a530 <USBD_CDC_DataIn>:
 800a530:	b580      	push	{r7, lr}
 800a532:	b084      	sub	sp, #16
 800a534:	af00      	add	r7, sp, #0
 800a536:	6078      	str	r0, [r7, #4]
 800a538:	460b      	mov	r3, r1
 800a53a:	70fb      	strb	r3, [r7, #3]
 800a53c:	687b      	ldr	r3, [r7, #4]
 800a53e:	f8d3 32c4 	ldr.w	r3, [r3, #708]	@ 0x2c4
 800a542:	60fb      	str	r3, [r7, #12]
 800a544:	687b      	ldr	r3, [r7, #4]
 800a546:	f8d3 32bc 	ldr.w	r3, [r3, #700]	@ 0x2bc
 800a54a:	2b00      	cmp	r3, #0
 800a54c:	d101      	bne.n	800a552 <USBD_CDC_DataIn+0x22>
 800a54e:	2303      	movs	r3, #3
 800a550:	e04f      	b.n	800a5f2 <USBD_CDC_DataIn+0xc2>
 800a552:	687b      	ldr	r3, [r7, #4]
 800a554:	f8d3 32bc 	ldr.w	r3, [r3, #700]	@ 0x2bc
 800a558:	60bb      	str	r3, [r7, #8]
 800a55a:	78fa      	ldrb	r2, [r7, #3]
 800a55c:	6879      	ldr	r1, [r7, #4]
 800a55e:	4613      	mov	r3, r2
 800a560:	009b      	lsls	r3, r3, #2
 800a562:	4413      	add	r3, r2
 800a564:	009b      	lsls	r3, r3, #2
 800a566:	440b      	add	r3, r1
 800a568:	3318      	adds	r3, #24
 800a56a:	681b      	ldr	r3, [r3, #0]
 800a56c:	2b00      	cmp	r3, #0
 800a56e:	d029      	beq.n	800a5c4 <USBD_CDC_DataIn+0x94>
 800a570:	78fa      	ldrb	r2, [r7, #3]
 800a572:	6879      	ldr	r1, [r7, #4]
 800a574:	4613      	mov	r3, r2
 800a576:	009b      	lsls	r3, r3, #2
 800a578:	4413      	add	r3, r2
 800a57a:	009b      	lsls	r3, r3, #2
 800a57c:	440b      	add	r3, r1
 800a57e:	3318      	adds	r3, #24
 800a580:	681a      	ldr	r2, [r3, #0]
 800a582:	78f9      	ldrb	r1, [r7, #3]
 800a584:	68f8      	ldr	r0, [r7, #12]
 800a586:	460b      	mov	r3, r1
 800a588:	009b      	lsls	r3, r3, #2
 800a58a:	440b      	add	r3, r1
 800a58c:	00db      	lsls	r3, r3, #3
 800a58e:	4403      	add	r3, r0
 800a590:	3320      	adds	r3, #32
 800a592:	681b      	ldr	r3, [r3, #0]
 800a594:	fbb2 f1f3 	udiv	r1, r2, r3
 800a598:	fb01 f303 	mul.w	r3, r1, r3
 800a59c:	1ad3      	subs	r3, r2, r3
 800a59e:	2b00      	cmp	r3, #0
 800a5a0:	d110      	bne.n	800a5c4 <USBD_CDC_DataIn+0x94>
 800a5a2:	78fa      	ldrb	r2, [r7, #3]
 800a5a4:	6879      	ldr	r1, [r7, #4]
 800a5a6:	4613      	mov	r3, r2
 800a5a8:	009b      	lsls	r3, r3, #2
 800a5aa:	4413      	add	r3, r2
 800a5ac:	009b      	lsls	r3, r3, #2
 800a5ae:	440b      	add	r3, r1
 800a5b0:	3318      	adds	r3, #24
 800a5b2:	2200      	movs	r2, #0
 800a5b4:	601a      	str	r2, [r3, #0]
 800a5b6:	78f9      	ldrb	r1, [r7, #3]
 800a5b8:	2300      	movs	r3, #0
 800a5ba:	2200      	movs	r2, #0
 800a5bc:	6878      	ldr	r0, [r7, #4]
 800a5be:	f001 fe70 	bl	800c2a2 <USBD_LL_Transmit>
 800a5c2:	e015      	b.n	800a5f0 <USBD_CDC_DataIn+0xc0>
 800a5c4:	68bb      	ldr	r3, [r7, #8]
 800a5c6:	2200      	movs	r2, #0
 800a5c8:	f8c3 2214 	str.w	r2, [r3, #532]	@ 0x214
 800a5cc:	687b      	ldr	r3, [r7, #4]
 800a5ce:	f8d3 32c0 	ldr.w	r3, [r3, #704]	@ 0x2c0
 800a5d2:	691b      	ldr	r3, [r3, #16]
 800a5d4:	2b00      	cmp	r3, #0
 800a5d6:	d00b      	beq.n	800a5f0 <USBD_CDC_DataIn+0xc0>
 800a5d8:	687b      	ldr	r3, [r7, #4]
 800a5da:	f8d3 32c0 	ldr.w	r3, [r3, #704]	@ 0x2c0
 800a5de:	691b      	ldr	r3, [r3, #16]
 800a5e0:	68ba      	ldr	r2, [r7, #8]
 800a5e2:	f8d2 0208 	ldr.w	r0, [r2, #520]	@ 0x208
 800a5e6:	68ba      	ldr	r2, [r7, #8]
 800a5e8:	f502 7104 	add.w	r1, r2, #528	@ 0x210
 800a5ec:	78fa      	ldrb	r2, [r7, #3]
 800a5ee:	4798      	blx	r3
 800a5f0:	2300      	movs	r3, #0
 800a5f2:	4618      	mov	r0, r3
 800a5f4:	3710      	adds	r7, #16
 800a5f6:	46bd      	mov	sp, r7
 800a5f8:	bd80      	pop	{r7, pc}

0800a5fa <USBD_CDC_DataOut>:
 800a5fa:	b580      	push	{r7, lr}
 800a5fc:	b084      	sub	sp, #16
 800a5fe:	af00      	add	r7, sp, #0
 800a600:	6078      	str	r0, [r7, #4]
 800a602:	460b      	mov	r3, r1
 800a604:	70fb      	strb	r3, [r7, #3]
 800a606:	687b      	ldr	r3, [r7, #4]
 800a608:	f8d3 32bc 	ldr.w	r3, [r3, #700]	@ 0x2bc
 800a60c:	60fb      	str	r3, [r7, #12]
 800a60e:	687b      	ldr	r3, [r7, #4]
 800a610:	f8d3 32bc 	ldr.w	r3, [r3, #700]	@ 0x2bc
 800a614:	2b00      	cmp	r3, #0
 800a616:	d101      	bne.n	800a61c <USBD_CDC_DataOut+0x22>
 800a618:	2303      	movs	r3, #3
 800a61a:	e015      	b.n	800a648 <USBD_CDC_DataOut+0x4e>
 800a61c:	78fb      	ldrb	r3, [r7, #3]
 800a61e:	4619      	mov	r1, r3
 800a620:	6878      	ldr	r0, [r7, #4]
 800a622:	f001 fe80 	bl	800c326 <USBD_LL_GetRxDataSize>
 800a626:	4602      	mov	r2, r0
 800a628:	68fb      	ldr	r3, [r7, #12]
 800a62a:	f8c3 220c 	str.w	r2, [r3, #524]	@ 0x20c
 800a62e:	687b      	ldr	r3, [r7, #4]
 800a630:	f8d3 32c0 	ldr.w	r3, [r3, #704]	@ 0x2c0
 800a634:	68db      	ldr	r3, [r3, #12]
 800a636:	68fa      	ldr	r2, [r7, #12]
 800a638:	f8d2 0204 	ldr.w	r0, [r2, #516]	@ 0x204
 800a63c:	68fa      	ldr	r2, [r7, #12]
 800a63e:	f502 7203 	add.w	r2, r2, #524	@ 0x20c
 800a642:	4611      	mov	r1, r2
 800a644:	4798      	blx	r3
 800a646:	2300      	movs	r3, #0
 800a648:	4618      	mov	r0, r3
 800a64a:	3710      	adds	r7, #16
 800a64c:	46bd      	mov	sp, r7
 800a64e:	bd80      	pop	{r7, pc}

0800a650 <USBD_CDC_EP0_RxReady>:
 800a650:	b580      	push	{r7, lr}
 800a652:	b084      	sub	sp, #16
 800a654:	af00      	add	r7, sp, #0
 800a656:	6078      	str	r0, [r7, #4]
 800a658:	687b      	ldr	r3, [r7, #4]
 800a65a:	f8d3 32bc 	ldr.w	r3, [r3, #700]	@ 0x2bc
 800a65e:	60fb      	str	r3, [r7, #12]
 800a660:	68fb      	ldr	r3, [r7, #12]
 800a662:	2b00      	cmp	r3, #0
 800a664:	d101      	bne.n	800a66a <USBD_CDC_EP0_RxReady+0x1a>
 800a666:	2303      	movs	r3, #3
 800a668:	e01a      	b.n	800a6a0 <USBD_CDC_EP0_RxReady+0x50>
 800a66a:	687b      	ldr	r3, [r7, #4]
 800a66c:	f8d3 32c0 	ldr.w	r3, [r3, #704]	@ 0x2c0
 800a670:	2b00      	cmp	r3, #0
 800a672:	d014      	beq.n	800a69e <USBD_CDC_EP0_RxReady+0x4e>
 800a674:	68fb      	ldr	r3, [r7, #12]
 800a676:	f893 3200 	ldrb.w	r3, [r3, #512]	@ 0x200
 800a67a:	2bff      	cmp	r3, #255	@ 0xff
 800a67c:	d00f      	beq.n	800a69e <USBD_CDC_EP0_RxReady+0x4e>
 800a67e:	687b      	ldr	r3, [r7, #4]
 800a680:	f8d3 32c0 	ldr.w	r3, [r3, #704]	@ 0x2c0
 800a684:	689b      	ldr	r3, [r3, #8]
 800a686:	68fa      	ldr	r2, [r7, #12]
 800a688:	f892 0200 	ldrb.w	r0, [r2, #512]	@ 0x200
 800a68c:	68f9      	ldr	r1, [r7, #12]
 800a68e:	68fa      	ldr	r2, [r7, #12]
 800a690:	f892 2201 	ldrb.w	r2, [r2, #513]	@ 0x201
 800a694:	4798      	blx	r3
 800a696:	68fb      	ldr	r3, [r7, #12]
 800a698:	22ff      	movs	r2, #255	@ 0xff
 800a69a:	f883 2200 	strb.w	r2, [r3, #512]	@ 0x200
 800a69e:	2300      	movs	r3, #0
 800a6a0:	4618      	mov	r0, r3
 800a6a2:	3710      	adds	r7, #16
 800a6a4:	46bd      	mov	sp, r7
 800a6a6:	bd80      	pop	{r7, pc}

0800a6a8 <USBD_CDC_GetFSCfgDesc>:
 800a6a8:	b480      	push	{r7}
 800a6aa:	b083      	sub	sp, #12
 800a6ac:	af00      	add	r7, sp, #0
 800a6ae:	6078      	str	r0, [r7, #4]
 800a6b0:	687b      	ldr	r3, [r7, #4]
 800a6b2:	2243      	movs	r2, #67	@ 0x43
 800a6b4:	801a      	strh	r2, [r3, #0]
 800a6b6:	4b03      	ldr	r3, [pc, #12]	@ (800a6c4 <USBD_CDC_GetFSCfgDesc+0x1c>)
 800a6b8:	4618      	mov	r0, r3
 800a6ba:	370c      	adds	r7, #12
 800a6bc:	46bd      	mov	sp, r7
 800a6be:	f85d 7b04 	ldr.w	r7, [sp], #4
 800a6c2:	4770      	bx	lr
 800a6c4:	200000c4 	.word	0x200000c4

0800a6c8 <USBD_CDC_GetHSCfgDesc>:
 800a6c8:	b480      	push	{r7}
 800a6ca:	b083      	sub	sp, #12
 800a6cc:	af00      	add	r7, sp, #0
 800a6ce:	6078      	str	r0, [r7, #4]
 800a6d0:	687b      	ldr	r3, [r7, #4]
 800a6d2:	2243      	movs	r2, #67	@ 0x43
 800a6d4:	801a      	strh	r2, [r3, #0]
 800a6d6:	4b03      	ldr	r3, [pc, #12]	@ (800a6e4 <USBD_CDC_GetHSCfgDesc+0x1c>)
 800a6d8:	4618      	mov	r0, r3
 800a6da:	370c      	adds	r7, #12
 800a6dc:	46bd      	mov	sp, r7
 800a6de:	f85d 7b04 	ldr.w	r7, [sp], #4
 800a6e2:	4770      	bx	lr
 800a6e4:	20000080 	.word	0x20000080

0800a6e8 <USBD_CDC_GetOtherSpeedCfgDesc>:
 800a6e8:	b480      	push	{r7}
 800a6ea:	b083      	sub	sp, #12
 800a6ec:	af00      	add	r7, sp, #0
 800a6ee:	6078      	str	r0, [r7, #4]
 800a6f0:	687b      	ldr	r3, [r7, #4]
 800a6f2:	2243      	movs	r2, #67	@ 0x43
 800a6f4:	801a      	strh	r2, [r3, #0]
 800a6f6:	4b03      	ldr	r3, [pc, #12]	@ (800a704 <USBD_CDC_GetOtherSpeedCfgDesc+0x1c>)
 800a6f8:	4618      	mov	r0, r3
 800a6fa:	370c      	adds	r7, #12
 800a6fc:	46bd      	mov	sp, r7
 800a6fe:	f85d 7b04 	ldr.w	r7, [sp], #4
 800a702:	4770      	bx	lr
 800a704:	20000108 	.word	0x20000108

0800a708 <USBD_CDC_GetDeviceQualifierDescriptor>:
 800a708:	b480      	push	{r7}
 800a70a:	b083      	sub	sp, #12
 800a70c:	af00      	add	r7, sp, #0
 800a70e:	6078      	str	r0, [r7, #4]
 800a710:	687b      	ldr	r3, [r7, #4]
 800a712:	220a      	movs	r2, #10
 800a714:	801a      	strh	r2, [r3, #0]
 800a716:	4b03      	ldr	r3, [pc, #12]	@ (800a724 <USBD_CDC_GetDeviceQualifierDescriptor+0x1c>)
 800a718:	4618      	mov	r0, r3
 800a71a:	370c      	adds	r7, #12
 800a71c:	46bd      	mov	sp, r7
 800a71e:	f85d 7b04 	ldr.w	r7, [sp], #4
 800a722:	4770      	bx	lr
 800a724:	2000003c 	.word	0x2000003c

0800a728 <USBD_CDC_RegisterInterface>:
 800a728:	b480      	push	{r7}
 800a72a:	b083      	sub	sp, #12
 800a72c:	af00      	add	r7, sp, #0
 800a72e:	6078      	str	r0, [r7, #4]
 800a730:	6039      	str	r1, [r7, #0]
 800a732:	683b      	ldr	r3, [r7, #0]
 800a734:	2b00      	cmp	r3, #0
 800a736:	d101      	bne.n	800a73c <USBD_CDC_RegisterInterface+0x14>
 800a738:	2303      	movs	r3, #3
 800a73a:	e004      	b.n	800a746 <USBD_CDC_RegisterInterface+0x1e>
 800a73c:	687b      	ldr	r3, [r7, #4]
 800a73e:	683a      	ldr	r2, [r7, #0]
 800a740:	f8c3 22c0 	str.w	r2, [r3, #704]	@ 0x2c0
 800a744:	2300      	movs	r3, #0
 800a746:	4618      	mov	r0, r3
 800a748:	370c      	adds	r7, #12
 800a74a:	46bd      	mov	sp, r7
 800a74c:	f85d 7b04 	ldr.w	r7, [sp], #4
 800a750:	4770      	bx	lr

0800a752 <USBD_CDC_SetTxBuffer>:
 800a752:	b480      	push	{r7}
 800a754:	b087      	sub	sp, #28
 800a756:	af00      	add	r7, sp, #0
 800a758:	60f8      	str	r0, [r7, #12]
 800a75a:	60b9      	str	r1, [r7, #8]
 800a75c:	607a      	str	r2, [r7, #4]
 800a75e:	68fb      	ldr	r3, [r7, #12]
 800a760:	f8d3 32bc 	ldr.w	r3, [r3, #700]	@ 0x2bc
 800a764:	617b      	str	r3, [r7, #20]
 800a766:	697b      	ldr	r3, [r7, #20]
 800a768:	2b00      	cmp	r3, #0
 800a76a:	d101      	bne.n	800a770 <USBD_CDC_SetTxBuffer+0x1e>
 800a76c:	2303      	movs	r3, #3
 800a76e:	e008      	b.n	800a782 <USBD_CDC_SetTxBuffer+0x30>
 800a770:	697b      	ldr	r3, [r7, #20]
 800a772:	68ba      	ldr	r2, [r7, #8]
 800a774:	f8c3 2208 	str.w	r2, [r3, #520]	@ 0x208
 800a778:	697b      	ldr	r3, [r7, #20]
 800a77a:	687a      	ldr	r2, [r7, #4]
 800a77c:	f8c3 2210 	str.w	r2, [r3, #528]	@ 0x210
 800a780:	2300      	movs	r3, #0
 800a782:	4618      	mov	r0, r3
 800a784:	371c      	adds	r7, #28
 800a786:	46bd      	mov	sp, r7
 800a788:	f85d 7b04 	ldr.w	r7, [sp], #4
 800a78c:	4770      	bx	lr

0800a78e <USBD_CDC_SetRxBuffer>:
 800a78e:	b480      	push	{r7}
 800a790:	b085      	sub	sp, #20
 800a792:	af00      	add	r7, sp, #0
 800a794:	6078      	str	r0, [r7, #4]
 800a796:	6039      	str	r1, [r7, #0]
 800a798:	687b      	ldr	r3, [r7, #4]
 800a79a:	f8d3 32bc 	ldr.w	r3, [r3, #700]	@ 0x2bc
 800a79e:	60fb      	str	r3, [r7, #12]
 800a7a0:	68fb      	ldr	r3, [r7, #12]
 800a7a2:	2b00      	cmp	r3, #0
 800a7a4:	d101      	bne.n	800a7aa <USBD_CDC_SetRxBuffer+0x1c>
 800a7a6:	2303      	movs	r3, #3
 800a7a8:	e004      	b.n	800a7b4 <USBD_CDC_SetRxBuffer+0x26>
 800a7aa:	68fb      	ldr	r3, [r7, #12]
 800a7ac:	683a      	ldr	r2, [r7, #0]
 800a7ae:	f8c3 2204 	str.w	r2, [r3, #516]	@ 0x204
 800a7b2:	2300      	movs	r3, #0
 800a7b4:	4618      	mov	r0, r3
 800a7b6:	3714      	adds	r7, #20
 800a7b8:	46bd      	mov	sp, r7
 800a7ba:	f85d 7b04 	ldr.w	r7, [sp], #4
 800a7be:	4770      	bx	lr

0800a7c0 <USBD_CDC_ReceivePacket>:
 800a7c0:	b580      	push	{r7, lr}
 800a7c2:	b084      	sub	sp, #16
 800a7c4:	af00      	add	r7, sp, #0
 800a7c6:	6078      	str	r0, [r7, #4]
 800a7c8:	687b      	ldr	r3, [r7, #4]
 800a7ca:	f8d3 32bc 	ldr.w	r3, [r3, #700]	@ 0x2bc
 800a7ce:	60fb      	str	r3, [r7, #12]
 800a7d0:	687b      	ldr	r3, [r7, #4]
 800a7d2:	f8d3 32bc 	ldr.w	r3, [r3, #700]	@ 0x2bc
 800a7d6:	2b00      	cmp	r3, #0
 800a7d8:	d101      	bne.n	800a7de <USBD_CDC_ReceivePacket+0x1e>
 800a7da:	2303      	movs	r3, #3
 800a7dc:	e016      	b.n	800a80c <USBD_CDC_ReceivePacket+0x4c>
 800a7de:	687b      	ldr	r3, [r7, #4]
 800a7e0:	7c1b      	ldrb	r3, [r3, #16]
 800a7e2:	2b00      	cmp	r3, #0
 800a7e4:	d109      	bne.n	800a7fa <USBD_CDC_ReceivePacket+0x3a>
 800a7e6:	68fb      	ldr	r3, [r7, #12]
 800a7e8:	f8d3 2204 	ldr.w	r2, [r3, #516]	@ 0x204
 800a7ec:	f44f 7300 	mov.w	r3, #512	@ 0x200
 800a7f0:	2101      	movs	r1, #1
 800a7f2:	6878      	ldr	r0, [r7, #4]
 800a7f4:	f001 fd76 	bl	800c2e4 <USBD_LL_PrepareReceive>
 800a7f8:	e007      	b.n	800a80a <USBD_CDC_ReceivePacket+0x4a>
 800a7fa:	68fb      	ldr	r3, [r7, #12]
 800a7fc:	f8d3 2204 	ldr.w	r2, [r3, #516]	@ 0x204
 800a800:	2340      	movs	r3, #64	@ 0x40
 800a802:	2101      	movs	r1, #1
 800a804:	6878      	ldr	r0, [r7, #4]
 800a806:	f001 fd6d 	bl	800c2e4 <USBD_LL_PrepareReceive>
 800a80a:	2300      	movs	r3, #0
 800a80c:	4618      	mov	r0, r3
 800a80e:	3710      	adds	r7, #16
 800a810:	46bd      	mov	sp, r7
 800a812:	bd80      	pop	{r7, pc}

0800a814 <USBD_Init>:
 800a814:	b580      	push	{r7, lr}
 800a816:	b086      	sub	sp, #24
 800a818:	af00      	add	r7, sp, #0
 800a81a:	60f8      	str	r0, [r7, #12]
 800a81c:	60b9      	str	r1, [r7, #8]
 800a81e:	4613      	mov	r3, r2
 800a820:	71fb      	strb	r3, [r7, #7]
 800a822:	68fb      	ldr	r3, [r7, #12]
 800a824:	2b00      	cmp	r3, #0
 800a826:	d101      	bne.n	800a82c <USBD_Init+0x18>
 800a828:	2303      	movs	r3, #3
 800a82a:	e01f      	b.n	800a86c <USBD_Init+0x58>
 800a82c:	68fb      	ldr	r3, [r7, #12]
 800a82e:	2200      	movs	r2, #0
 800a830:	f8c3 22b8 	str.w	r2, [r3, #696]	@ 0x2b8
 800a834:	68fb      	ldr	r3, [r7, #12]
 800a836:	2200      	movs	r2, #0
 800a838:	f8c3 22c0 	str.w	r2, [r3, #704]	@ 0x2c0
 800a83c:	68fb      	ldr	r3, [r7, #12]
 800a83e:	2200      	movs	r2, #0
 800a840:	f8c3 22cc 	str.w	r2, [r3, #716]	@ 0x2cc
 800a844:	68bb      	ldr	r3, [r7, #8]
 800a846:	2b00      	cmp	r3, #0
 800a848:	d003      	beq.n	800a852 <USBD_Init+0x3e>
 800a84a:	68fb      	ldr	r3, [r7, #12]
 800a84c:	68ba      	ldr	r2, [r7, #8]
 800a84e:	f8c3 22b4 	str.w	r2, [r3, #692]	@ 0x2b4
 800a852:	68fb      	ldr	r3, [r7, #12]
 800a854:	2201      	movs	r2, #1
 800a856:	f883 229c 	strb.w	r2, [r3, #668]	@ 0x29c
 800a85a:	68fb      	ldr	r3, [r7, #12]
 800a85c:	79fa      	ldrb	r2, [r7, #7]
 800a85e:	701a      	strb	r2, [r3, #0]
 800a860:	68f8      	ldr	r0, [r7, #12]
 800a862:	f001 fbd5 	bl	800c010 <USBD_LL_Init>
 800a866:	4603      	mov	r3, r0
 800a868:	75fb      	strb	r3, [r7, #23]
 800a86a:	7dfb      	ldrb	r3, [r7, #23]
 800a86c:	4618      	mov	r0, r3
 800a86e:	3718      	adds	r7, #24
 800a870:	46bd      	mov	sp, r7
 800a872:	bd80      	pop	{r7, pc}

0800a874 <USBD_RegisterClass>:
 800a874:	b580      	push	{r7, lr}
 800a876:	b084      	sub	sp, #16
 800a878:	af00      	add	r7, sp, #0
 800a87a:	6078      	str	r0, [r7, #4]
 800a87c:	6039      	str	r1, [r7, #0]
 800a87e:	2300      	movs	r3, #0
 800a880:	81fb      	strh	r3, [r7, #14]
 800a882:	683b      	ldr	r3, [r7, #0]
 800a884:	2b00      	cmp	r3, #0
 800a886:	d101      	bne.n	800a88c <USBD_RegisterClass+0x18>
 800a888:	2303      	movs	r3, #3
 800a88a:	e016      	b.n	800a8ba <USBD_RegisterClass+0x46>
 800a88c:	687b      	ldr	r3, [r7, #4]
 800a88e:	683a      	ldr	r2, [r7, #0]
 800a890:	f8c3 22b8 	str.w	r2, [r3, #696]	@ 0x2b8
 800a894:	687b      	ldr	r3, [r7, #4]
 800a896:	f8d3 32b8 	ldr.w	r3, [r3, #696]	@ 0x2b8
 800a89a:	6adb      	ldr	r3, [r3, #44]	@ 0x2c
 800a89c:	2b00      	cmp	r3, #0
 800a89e:	d00b      	beq.n	800a8b8 <USBD_RegisterClass+0x44>
 800a8a0:	687b      	ldr	r3, [r7, #4]
 800a8a2:	f8d3 32b8 	ldr.w	r3, [r3, #696]	@ 0x2b8
 800a8a6:	6adb      	ldr	r3, [r3, #44]	@ 0x2c
 800a8a8:	f107 020e 	add.w	r2, r7, #14
 800a8ac:	4610      	mov	r0, r2
 800a8ae:	4798      	blx	r3
 800a8b0:	4602      	mov	r2, r0
 800a8b2:	687b      	ldr	r3, [r7, #4]
 800a8b4:	f8c3 22cc 	str.w	r2, [r3, #716]	@ 0x2cc
 800a8b8:	2300      	movs	r3, #0
 800a8ba:	4618      	mov	r0, r3
 800a8bc:	3710      	adds	r7, #16
 800a8be:	46bd      	mov	sp, r7
 800a8c0:	bd80      	pop	{r7, pc}

0800a8c2 <USBD_Start>:
 800a8c2:	b580      	push	{r7, lr}
 800a8c4:	b082      	sub	sp, #8
 800a8c6:	af00      	add	r7, sp, #0
 800a8c8:	6078      	str	r0, [r7, #4]
 800a8ca:	6878      	ldr	r0, [r7, #4]
 800a8cc:	f001 fc00 	bl	800c0d0 <USBD_LL_Start>
 800a8d0:	4603      	mov	r3, r0
 800a8d2:	4618      	mov	r0, r3
 800a8d4:	3708      	adds	r7, #8
 800a8d6:	46bd      	mov	sp, r7
 800a8d8:	bd80      	pop	{r7, pc}

0800a8da <USBD_RunTestMode>:
 800a8da:	b480      	push	{r7}
 800a8dc:	b083      	sub	sp, #12
 800a8de:	af00      	add	r7, sp, #0
 800a8e0:	6078      	str	r0, [r7, #4]
 800a8e2:	2300      	movs	r3, #0
 800a8e4:	4618      	mov	r0, r3
 800a8e6:	370c      	adds	r7, #12
 800a8e8:	46bd      	mov	sp, r7
 800a8ea:	f85d 7b04 	ldr.w	r7, [sp], #4
 800a8ee:	4770      	bx	lr

0800a8f0 <USBD_SetClassConfig>:
 800a8f0:	b580      	push	{r7, lr}
 800a8f2:	b084      	sub	sp, #16
 800a8f4:	af00      	add	r7, sp, #0
 800a8f6:	6078      	str	r0, [r7, #4]
 800a8f8:	460b      	mov	r3, r1
 800a8fa:	70fb      	strb	r3, [r7, #3]
 800a8fc:	2303      	movs	r3, #3
 800a8fe:	73fb      	strb	r3, [r7, #15]
 800a900:	687b      	ldr	r3, [r7, #4]
 800a902:	f8d3 32b8 	ldr.w	r3, [r3, #696]	@ 0x2b8
 800a906:	2b00      	cmp	r3, #0
 800a908:	d009      	beq.n	800a91e <USBD_SetClassConfig+0x2e>
 800a90a:	687b      	ldr	r3, [r7, #4]
 800a90c:	f8d3 32b8 	ldr.w	r3, [r3, #696]	@ 0x2b8
 800a910:	681b      	ldr	r3, [r3, #0]
 800a912:	78fa      	ldrb	r2, [r7, #3]
 800a914:	4611      	mov	r1, r2
 800a916:	6878      	ldr	r0, [r7, #4]
 800a918:	4798      	blx	r3
 800a91a:	4603      	mov	r3, r0
 800a91c:	73fb      	strb	r3, [r7, #15]
 800a91e:	7bfb      	ldrb	r3, [r7, #15]
 800a920:	4618      	mov	r0, r3
 800a922:	3710      	adds	r7, #16
 800a924:	46bd      	mov	sp, r7
 800a926:	bd80      	pop	{r7, pc}

0800a928 <USBD_ClrClassConfig>:
 800a928:	b580      	push	{r7, lr}
 800a92a:	b082      	sub	sp, #8
 800a92c:	af00      	add	r7, sp, #0
 800a92e:	6078      	str	r0, [r7, #4]
 800a930:	460b      	mov	r3, r1
 800a932:	70fb      	strb	r3, [r7, #3]
 800a934:	687b      	ldr	r3, [r7, #4]
 800a936:	f8d3 32b8 	ldr.w	r3, [r3, #696]	@ 0x2b8
 800a93a:	2b00      	cmp	r3, #0
 800a93c:	d007      	beq.n	800a94e <USBD_ClrClassConfig+0x26>
 800a93e:	687b      	ldr	r3, [r7, #4]
 800a940:	f8d3 32b8 	ldr.w	r3, [r3, #696]	@ 0x2b8
 800a944:	685b      	ldr	r3, [r3, #4]
 800a946:	78fa      	ldrb	r2, [r7, #3]
 800a948:	4611      	mov	r1, r2
 800a94a:	6878      	ldr	r0, [r7, #4]
 800a94c:	4798      	blx	r3
 800a94e:	2300      	movs	r3, #0
 800a950:	4618      	mov	r0, r3
 800a952:	3708      	adds	r7, #8
 800a954:	46bd      	mov	sp, r7
 800a956:	bd80      	pop	{r7, pc}

0800a958 <USBD_LL_SetupStage>:
 800a958:	b580      	push	{r7, lr}
 800a95a:	b084      	sub	sp, #16
 800a95c:	af00      	add	r7, sp, #0
 800a95e:	6078      	str	r0, [r7, #4]
 800a960:	6039      	str	r1, [r7, #0]
 800a962:	687b      	ldr	r3, [r7, #4]
 800a964:	f203 23aa 	addw	r3, r3, #682	@ 0x2aa
 800a968:	6839      	ldr	r1, [r7, #0]
 800a96a:	4618      	mov	r0, r3
 800a96c:	f000 ff48 	bl	800b800 <USBD_ParseSetupRequest>
 800a970:	687b      	ldr	r3, [r7, #4]
 800a972:	2201      	movs	r2, #1
 800a974:	f8c3 2294 	str.w	r2, [r3, #660]	@ 0x294
 800a978:	687b      	ldr	r3, [r7, #4]
 800a97a:	f8b3 32b0 	ldrh.w	r3, [r3, #688]	@ 0x2b0
 800a97e:	461a      	mov	r2, r3
 800a980:	687b      	ldr	r3, [r7, #4]
 800a982:	f8c3 2298 	str.w	r2, [r3, #664]	@ 0x298
 800a986:	687b      	ldr	r3, [r7, #4]
 800a988:	f893 32aa 	ldrb.w	r3, [r3, #682]	@ 0x2aa
 800a98c:	f003 031f 	and.w	r3, r3, #31
 800a990:	2b02      	cmp	r3, #2
 800a992:	d01a      	beq.n	800a9ca <USBD_LL_SetupStage+0x72>
 800a994:	2b02      	cmp	r3, #2
 800a996:	d822      	bhi.n	800a9de <USBD_LL_SetupStage+0x86>
 800a998:	2b00      	cmp	r3, #0
 800a99a:	d002      	beq.n	800a9a2 <USBD_LL_SetupStage+0x4a>
 800a99c:	2b01      	cmp	r3, #1
 800a99e:	d00a      	beq.n	800a9b6 <USBD_LL_SetupStage+0x5e>
 800a9a0:	e01d      	b.n	800a9de <USBD_LL_SetupStage+0x86>
 800a9a2:	687b      	ldr	r3, [r7, #4]
 800a9a4:	f203 23aa 	addw	r3, r3, #682	@ 0x2aa
 800a9a8:	4619      	mov	r1, r3
 800a9aa:	6878      	ldr	r0, [r7, #4]
 800a9ac:	f000 f9f0 	bl	800ad90 <USBD_StdDevReq>
 800a9b0:	4603      	mov	r3, r0
 800a9b2:	73fb      	strb	r3, [r7, #15]
 800a9b4:	e020      	b.n	800a9f8 <USBD_LL_SetupStage+0xa0>
 800a9b6:	687b      	ldr	r3, [r7, #4]
 800a9b8:	f203 23aa 	addw	r3, r3, #682	@ 0x2aa
 800a9bc:	4619      	mov	r1, r3
 800a9be:	6878      	ldr	r0, [r7, #4]
 800a9c0:	f000 fa54 	bl	800ae6c <USBD_StdItfReq>
 800a9c4:	4603      	mov	r3, r0
 800a9c6:	73fb      	strb	r3, [r7, #15]
 800a9c8:	e016      	b.n	800a9f8 <USBD_LL_SetupStage+0xa0>
 800a9ca:	687b      	ldr	r3, [r7, #4]
 800a9cc:	f203 23aa 	addw	r3, r3, #682	@ 0x2aa
 800a9d0:	4619      	mov	r1, r3
 800a9d2:	6878      	ldr	r0, [r7, #4]
 800a9d4:	f000 fa93 	bl	800aefe <USBD_StdEPReq>
 800a9d8:	4603      	mov	r3, r0
 800a9da:	73fb      	strb	r3, [r7, #15]
 800a9dc:	e00c      	b.n	800a9f8 <USBD_LL_SetupStage+0xa0>
 800a9de:	687b      	ldr	r3, [r7, #4]
 800a9e0:	f893 32aa 	ldrb.w	r3, [r3, #682]	@ 0x2aa
 800a9e4:	f023 037f 	bic.w	r3, r3, #127	@ 0x7f
 800a9e8:	b2db      	uxtb	r3, r3
 800a9ea:	4619      	mov	r1, r3
 800a9ec:	6878      	ldr	r0, [r7, #4]
 800a9ee:	f001 fbcf 	bl	800c190 <USBD_LL_StallEP>
 800a9f2:	4603      	mov	r3, r0
 800a9f4:	73fb      	strb	r3, [r7, #15]
 800a9f6:	bf00      	nop
 800a9f8:	7bfb      	ldrb	r3, [r7, #15]
 800a9fa:	4618      	mov	r0, r3
 800a9fc:	3710      	adds	r7, #16
 800a9fe:	46bd      	mov	sp, r7
 800aa00:	bd80      	pop	{r7, pc}

0800aa02 <USBD_LL_DataOutStage>:
 800aa02:	b580      	push	{r7, lr}
 800aa04:	b086      	sub	sp, #24
 800aa06:	af00      	add	r7, sp, #0
 800aa08:	60f8      	str	r0, [r7, #12]
 800aa0a:	460b      	mov	r3, r1
 800aa0c:	607a      	str	r2, [r7, #4]
 800aa0e:	72fb      	strb	r3, [r7, #11]
 800aa10:	7afb      	ldrb	r3, [r7, #11]
 800aa12:	2b00      	cmp	r3, #0
 800aa14:	d138      	bne.n	800aa88 <USBD_LL_DataOutStage+0x86>
 800aa16:	68fb      	ldr	r3, [r7, #12]
 800aa18:	f503 73aa 	add.w	r3, r3, #340	@ 0x154
 800aa1c:	613b      	str	r3, [r7, #16]
 800aa1e:	68fb      	ldr	r3, [r7, #12]
 800aa20:	f8d3 3294 	ldr.w	r3, [r3, #660]	@ 0x294
 800aa24:	2b03      	cmp	r3, #3
 800aa26:	d14a      	bne.n	800aabe <USBD_LL_DataOutStage+0xbc>
 800aa28:	693b      	ldr	r3, [r7, #16]
 800aa2a:	689a      	ldr	r2, [r3, #8]
 800aa2c:	693b      	ldr	r3, [r7, #16]
 800aa2e:	68db      	ldr	r3, [r3, #12]
 800aa30:	429a      	cmp	r2, r3
 800aa32:	d913      	bls.n	800aa5c <USBD_LL_DataOutStage+0x5a>
 800aa34:	693b      	ldr	r3, [r7, #16]
 800aa36:	689a      	ldr	r2, [r3, #8]
 800aa38:	693b      	ldr	r3, [r7, #16]
 800aa3a:	68db      	ldr	r3, [r3, #12]
 800aa3c:	1ad2      	subs	r2, r2, r3
 800aa3e:	693b      	ldr	r3, [r7, #16]
 800aa40:	609a      	str	r2, [r3, #8]
 800aa42:	693b      	ldr	r3, [r7, #16]
 800aa44:	68da      	ldr	r2, [r3, #12]
 800aa46:	693b      	ldr	r3, [r7, #16]
 800aa48:	689b      	ldr	r3, [r3, #8]
 800aa4a:	4293      	cmp	r3, r2
 800aa4c:	bf28      	it	cs
 800aa4e:	4613      	movcs	r3, r2
 800aa50:	461a      	mov	r2, r3
 800aa52:	6879      	ldr	r1, [r7, #4]
 800aa54:	68f8      	ldr	r0, [r7, #12]
 800aa56:	f000 ffc7 	bl	800b9e8 <USBD_CtlContinueRx>
 800aa5a:	e030      	b.n	800aabe <USBD_LL_DataOutStage+0xbc>
 800aa5c:	68fb      	ldr	r3, [r7, #12]
 800aa5e:	f893 329c 	ldrb.w	r3, [r3, #668]	@ 0x29c
 800aa62:	b2db      	uxtb	r3, r3
 800aa64:	2b03      	cmp	r3, #3
 800aa66:	d10b      	bne.n	800aa80 <USBD_LL_DataOutStage+0x7e>
 800aa68:	68fb      	ldr	r3, [r7, #12]
 800aa6a:	f8d3 32b8 	ldr.w	r3, [r3, #696]	@ 0x2b8
 800aa6e:	691b      	ldr	r3, [r3, #16]
 800aa70:	2b00      	cmp	r3, #0
 800aa72:	d005      	beq.n	800aa80 <USBD_LL_DataOutStage+0x7e>
 800aa74:	68fb      	ldr	r3, [r7, #12]
 800aa76:	f8d3 32b8 	ldr.w	r3, [r3, #696]	@ 0x2b8
 800aa7a:	691b      	ldr	r3, [r3, #16]
 800aa7c:	68f8      	ldr	r0, [r7, #12]
 800aa7e:	4798      	blx	r3
 800aa80:	68f8      	ldr	r0, [r7, #12]
 800aa82:	f000 ffc2 	bl	800ba0a <USBD_CtlSendStatus>
 800aa86:	e01a      	b.n	800aabe <USBD_LL_DataOutStage+0xbc>
 800aa88:	68fb      	ldr	r3, [r7, #12]
 800aa8a:	f893 329c 	ldrb.w	r3, [r3, #668]	@ 0x29c
 800aa8e:	b2db      	uxtb	r3, r3
 800aa90:	2b03      	cmp	r3, #3
 800aa92:	d114      	bne.n	800aabe <USBD_LL_DataOutStage+0xbc>
 800aa94:	68fb      	ldr	r3, [r7, #12]
 800aa96:	f8d3 32b8 	ldr.w	r3, [r3, #696]	@ 0x2b8
 800aa9a:	699b      	ldr	r3, [r3, #24]
 800aa9c:	2b00      	cmp	r3, #0
 800aa9e:	d00e      	beq.n	800aabe <USBD_LL_DataOutStage+0xbc>
 800aaa0:	68fb      	ldr	r3, [r7, #12]
 800aaa2:	f8d3 32b8 	ldr.w	r3, [r3, #696]	@ 0x2b8
 800aaa6:	699b      	ldr	r3, [r3, #24]
 800aaa8:	7afa      	ldrb	r2, [r7, #11]
 800aaaa:	4611      	mov	r1, r2
 800aaac:	68f8      	ldr	r0, [r7, #12]
 800aaae:	4798      	blx	r3
 800aab0:	4603      	mov	r3, r0
 800aab2:	75fb      	strb	r3, [r7, #23]
 800aab4:	7dfb      	ldrb	r3, [r7, #23]
 800aab6:	2b00      	cmp	r3, #0
 800aab8:	d001      	beq.n	800aabe <USBD_LL_DataOutStage+0xbc>
 800aaba:	7dfb      	ldrb	r3, [r7, #23]
 800aabc:	e000      	b.n	800aac0 <USBD_LL_DataOutStage+0xbe>
 800aabe:	2300      	movs	r3, #0
 800aac0:	4618      	mov	r0, r3
 800aac2:	3718      	adds	r7, #24
 800aac4:	46bd      	mov	sp, r7
 800aac6:	bd80      	pop	{r7, pc}

0800aac8 <USBD_LL_DataInStage>:
 800aac8:	b580      	push	{r7, lr}
 800aaca:	b086      	sub	sp, #24
 800aacc:	af00      	add	r7, sp, #0
 800aace:	60f8      	str	r0, [r7, #12]
 800aad0:	460b      	mov	r3, r1
 800aad2:	607a      	str	r2, [r7, #4]
 800aad4:	72fb      	strb	r3, [r7, #11]
 800aad6:	7afb      	ldrb	r3, [r7, #11]
 800aad8:	2b00      	cmp	r3, #0
 800aada:	d16b      	bne.n	800abb4 <USBD_LL_DataInStage+0xec>
 800aadc:	68fb      	ldr	r3, [r7, #12]
 800aade:	3314      	adds	r3, #20
 800aae0:	613b      	str	r3, [r7, #16]
 800aae2:	68fb      	ldr	r3, [r7, #12]
 800aae4:	f8d3 3294 	ldr.w	r3, [r3, #660]	@ 0x294
 800aae8:	2b02      	cmp	r3, #2
 800aaea:	d156      	bne.n	800ab9a <USBD_LL_DataInStage+0xd2>
 800aaec:	693b      	ldr	r3, [r7, #16]
 800aaee:	689a      	ldr	r2, [r3, #8]
 800aaf0:	693b      	ldr	r3, [r7, #16]
 800aaf2:	68db      	ldr	r3, [r3, #12]
 800aaf4:	429a      	cmp	r2, r3
 800aaf6:	d914      	bls.n	800ab22 <USBD_LL_DataInStage+0x5a>
 800aaf8:	693b      	ldr	r3, [r7, #16]
 800aafa:	689a      	ldr	r2, [r3, #8]
 800aafc:	693b      	ldr	r3, [r7, #16]
 800aafe:	68db      	ldr	r3, [r3, #12]
 800ab00:	1ad2      	subs	r2, r2, r3
 800ab02:	693b      	ldr	r3, [r7, #16]
 800ab04:	609a      	str	r2, [r3, #8]
 800ab06:	693b      	ldr	r3, [r7, #16]
 800ab08:	689b      	ldr	r3, [r3, #8]
 800ab0a:	461a      	mov	r2, r3
 800ab0c:	6879      	ldr	r1, [r7, #4]
 800ab0e:	68f8      	ldr	r0, [r7, #12]
 800ab10:	f000 ff3c 	bl	800b98c <USBD_CtlContinueSendData>
 800ab14:	2300      	movs	r3, #0
 800ab16:	2200      	movs	r2, #0
 800ab18:	2100      	movs	r1, #0
 800ab1a:	68f8      	ldr	r0, [r7, #12]
 800ab1c:	f001 fbe2 	bl	800c2e4 <USBD_LL_PrepareReceive>
 800ab20:	e03b      	b.n	800ab9a <USBD_LL_DataInStage+0xd2>
 800ab22:	693b      	ldr	r3, [r7, #16]
 800ab24:	68da      	ldr	r2, [r3, #12]
 800ab26:	693b      	ldr	r3, [r7, #16]
 800ab28:	689b      	ldr	r3, [r3, #8]
 800ab2a:	429a      	cmp	r2, r3
 800ab2c:	d11c      	bne.n	800ab68 <USBD_LL_DataInStage+0xa0>
 800ab2e:	693b      	ldr	r3, [r7, #16]
 800ab30:	685a      	ldr	r2, [r3, #4]
 800ab32:	693b      	ldr	r3, [r7, #16]
 800ab34:	68db      	ldr	r3, [r3, #12]
 800ab36:	429a      	cmp	r2, r3
 800ab38:	d316      	bcc.n	800ab68 <USBD_LL_DataInStage+0xa0>
 800ab3a:	693b      	ldr	r3, [r7, #16]
 800ab3c:	685a      	ldr	r2, [r3, #4]
 800ab3e:	68fb      	ldr	r3, [r7, #12]
 800ab40:	f8d3 3298 	ldr.w	r3, [r3, #664]	@ 0x298
 800ab44:	429a      	cmp	r2, r3
 800ab46:	d20f      	bcs.n	800ab68 <USBD_LL_DataInStage+0xa0>
 800ab48:	2200      	movs	r2, #0
 800ab4a:	2100      	movs	r1, #0
 800ab4c:	68f8      	ldr	r0, [r7, #12]
 800ab4e:	f000 ff1d 	bl	800b98c <USBD_CtlContinueSendData>
 800ab52:	68fb      	ldr	r3, [r7, #12]
 800ab54:	2200      	movs	r2, #0
 800ab56:	f8c3 2298 	str.w	r2, [r3, #664]	@ 0x298
 800ab5a:	2300      	movs	r3, #0
 800ab5c:	2200      	movs	r2, #0
 800ab5e:	2100      	movs	r1, #0
 800ab60:	68f8      	ldr	r0, [r7, #12]
 800ab62:	f001 fbbf 	bl	800c2e4 <USBD_LL_PrepareReceive>
 800ab66:	e018      	b.n	800ab9a <USBD_LL_DataInStage+0xd2>
 800ab68:	68fb      	ldr	r3, [r7, #12]
 800ab6a:	f893 329c 	ldrb.w	r3, [r3, #668]	@ 0x29c
 800ab6e:	b2db      	uxtb	r3, r3
 800ab70:	2b03      	cmp	r3, #3
 800ab72:	d10b      	bne.n	800ab8c <USBD_LL_DataInStage+0xc4>
 800ab74:	68fb      	ldr	r3, [r7, #12]
 800ab76:	f8d3 32b8 	ldr.w	r3, [r3, #696]	@ 0x2b8
 800ab7a:	68db      	ldr	r3, [r3, #12]
 800ab7c:	2b00      	cmp	r3, #0
 800ab7e:	d005      	beq.n	800ab8c <USBD_LL_DataInStage+0xc4>
 800ab80:	68fb      	ldr	r3, [r7, #12]
 800ab82:	f8d3 32b8 	ldr.w	r3, [r3, #696]	@ 0x2b8
 800ab86:	68db      	ldr	r3, [r3, #12]
 800ab88:	68f8      	ldr	r0, [r7, #12]
 800ab8a:	4798      	blx	r3
 800ab8c:	2180      	movs	r1, #128	@ 0x80
 800ab8e:	68f8      	ldr	r0, [r7, #12]
 800ab90:	f001 fafe 	bl	800c190 <USBD_LL_StallEP>
 800ab94:	68f8      	ldr	r0, [r7, #12]
 800ab96:	f000 ff4b 	bl	800ba30 <USBD_CtlReceiveStatus>
 800ab9a:	68fb      	ldr	r3, [r7, #12]
 800ab9c:	f893 32a0 	ldrb.w	r3, [r3, #672]	@ 0x2a0
 800aba0:	2b01      	cmp	r3, #1
 800aba2:	d122      	bne.n	800abea <USBD_LL_DataInStage+0x122>
 800aba4:	68f8      	ldr	r0, [r7, #12]
 800aba6:	f7ff fe98 	bl	800a8da <USBD_RunTestMode>
 800abaa:	68fb      	ldr	r3, [r7, #12]
 800abac:	2200      	movs	r2, #0
 800abae:	f883 22a0 	strb.w	r2, [r3, #672]	@ 0x2a0
 800abb2:	e01a      	b.n	800abea <USBD_LL_DataInStage+0x122>
 800abb4:	68fb      	ldr	r3, [r7, #12]
 800abb6:	f893 329c 	ldrb.w	r3, [r3, #668]	@ 0x29c
 800abba:	b2db      	uxtb	r3, r3
 800abbc:	2b03      	cmp	r3, #3
 800abbe:	d114      	bne.n	800abea <USBD_LL_DataInStage+0x122>
 800abc0:	68fb      	ldr	r3, [r7, #12]
 800abc2:	f8d3 32b8 	ldr.w	r3, [r3, #696]	@ 0x2b8
 800abc6:	695b      	ldr	r3, [r3, #20]
 800abc8:	2b00      	cmp	r3, #0
 800abca:	d00e      	beq.n	800abea <USBD_LL_DataInStage+0x122>
 800abcc:	68fb      	ldr	r3, [r7, #12]
 800abce:	f8d3 32b8 	ldr.w	r3, [r3, #696]	@ 0x2b8
 800abd2:	695b      	ldr	r3, [r3, #20]
 800abd4:	7afa      	ldrb	r2, [r7, #11]
 800abd6:	4611      	mov	r1, r2
 800abd8:	68f8      	ldr	r0, [r7, #12]
 800abda:	4798      	blx	r3
 800abdc:	4603      	mov	r3, r0
 800abde:	75fb      	strb	r3, [r7, #23]
 800abe0:	7dfb      	ldrb	r3, [r7, #23]
 800abe2:	2b00      	cmp	r3, #0
 800abe4:	d001      	beq.n	800abea <USBD_LL_DataInStage+0x122>
 800abe6:	7dfb      	ldrb	r3, [r7, #23]
 800abe8:	e000      	b.n	800abec <USBD_LL_DataInStage+0x124>
 800abea:	2300      	movs	r3, #0
 800abec:	4618      	mov	r0, r3
 800abee:	3718      	adds	r7, #24
 800abf0:	46bd      	mov	sp, r7
 800abf2:	bd80      	pop	{r7, pc}

0800abf4 <USBD_LL_Reset>:
 800abf4:	b580      	push	{r7, lr}
 800abf6:	b082      	sub	sp, #8
 800abf8:	af00      	add	r7, sp, #0
 800abfa:	6078      	str	r0, [r7, #4]
 800abfc:	687b      	ldr	r3, [r7, #4]
 800abfe:	2201      	movs	r2, #1
 800ac00:	f883 229c 	strb.w	r2, [r3, #668]	@ 0x29c
 800ac04:	687b      	ldr	r3, [r7, #4]
 800ac06:	2200      	movs	r2, #0
 800ac08:	f8c3 2294 	str.w	r2, [r3, #660]	@ 0x294
 800ac0c:	687b      	ldr	r3, [r7, #4]
 800ac0e:	2200      	movs	r2, #0
 800ac10:	605a      	str	r2, [r3, #4]
 800ac12:	687b      	ldr	r3, [r7, #4]
 800ac14:	2200      	movs	r2, #0
 800ac16:	f8c3 22a4 	str.w	r2, [r3, #676]	@ 0x2a4
 800ac1a:	687b      	ldr	r3, [r7, #4]
 800ac1c:	f8d3 32b8 	ldr.w	r3, [r3, #696]	@ 0x2b8
 800ac20:	2b00      	cmp	r3, #0
 800ac22:	d101      	bne.n	800ac28 <USBD_LL_Reset+0x34>
 800ac24:	2303      	movs	r3, #3
 800ac26:	e02f      	b.n	800ac88 <USBD_LL_Reset+0x94>
 800ac28:	687b      	ldr	r3, [r7, #4]
 800ac2a:	f8d3 32bc 	ldr.w	r3, [r3, #700]	@ 0x2bc
 800ac2e:	2b00      	cmp	r3, #0
 800ac30:	d00f      	beq.n	800ac52 <USBD_LL_Reset+0x5e>
 800ac32:	687b      	ldr	r3, [r7, #4]
 800ac34:	f8d3 32b8 	ldr.w	r3, [r3, #696]	@ 0x2b8
 800ac38:	685b      	ldr	r3, [r3, #4]
 800ac3a:	2b00      	cmp	r3, #0
 800ac3c:	d009      	beq.n	800ac52 <USBD_LL_Reset+0x5e>
 800ac3e:	687b      	ldr	r3, [r7, #4]
 800ac40:	f8d3 32b8 	ldr.w	r3, [r3, #696]	@ 0x2b8
 800ac44:	685b      	ldr	r3, [r3, #4]
 800ac46:	687a      	ldr	r2, [r7, #4]
 800ac48:	6852      	ldr	r2, [r2, #4]
 800ac4a:	b2d2      	uxtb	r2, r2
 800ac4c:	4611      	mov	r1, r2
 800ac4e:	6878      	ldr	r0, [r7, #4]
 800ac50:	4798      	blx	r3
 800ac52:	2340      	movs	r3, #64	@ 0x40
 800ac54:	2200      	movs	r2, #0
 800ac56:	2100      	movs	r1, #0
 800ac58:	6878      	ldr	r0, [r7, #4]
 800ac5a:	f001 fa54 	bl	800c106 <USBD_LL_OpenEP>
 800ac5e:	687b      	ldr	r3, [r7, #4]
 800ac60:	2201      	movs	r2, #1
 800ac62:	f8a3 2164 	strh.w	r2, [r3, #356]	@ 0x164
 800ac66:	687b      	ldr	r3, [r7, #4]
 800ac68:	2240      	movs	r2, #64	@ 0x40
 800ac6a:	f8c3 2160 	str.w	r2, [r3, #352]	@ 0x160
 800ac6e:	2340      	movs	r3, #64	@ 0x40
 800ac70:	2200      	movs	r2, #0
 800ac72:	2180      	movs	r1, #128	@ 0x80
 800ac74:	6878      	ldr	r0, [r7, #4]
 800ac76:	f001 fa46 	bl	800c106 <USBD_LL_OpenEP>
 800ac7a:	687b      	ldr	r3, [r7, #4]
 800ac7c:	2201      	movs	r2, #1
 800ac7e:	849a      	strh	r2, [r3, #36]	@ 0x24
 800ac80:	687b      	ldr	r3, [r7, #4]
 800ac82:	2240      	movs	r2, #64	@ 0x40
 800ac84:	621a      	str	r2, [r3, #32]
 800ac86:	2300      	movs	r3, #0
 800ac88:	4618      	mov	r0, r3
 800ac8a:	3708      	adds	r7, #8
 800ac8c:	46bd      	mov	sp, r7
 800ac8e:	bd80      	pop	{r7, pc}

0800ac90 <USBD_LL_SetSpeed>:
 800ac90:	b480      	push	{r7}
 800ac92:	b083      	sub	sp, #12
 800ac94:	af00      	add	r7, sp, #0
 800ac96:	6078      	str	r0, [r7, #4]
 800ac98:	460b      	mov	r3, r1
 800ac9a:	70fb      	strb	r3, [r7, #3]
 800ac9c:	687b      	ldr	r3, [r7, #4]
 800ac9e:	78fa      	ldrb	r2, [r7, #3]
 800aca0:	741a      	strb	r2, [r3, #16]
 800aca2:	2300      	movs	r3, #0
 800aca4:	4618      	mov	r0, r3
 800aca6:	370c      	adds	r7, #12
 800aca8:	46bd      	mov	sp, r7
 800acaa:	f85d 7b04 	ldr.w	r7, [sp], #4
 800acae:	4770      	bx	lr

0800acb0 <USBD_LL_Suspend>:
 800acb0:	b480      	push	{r7}
 800acb2:	b083      	sub	sp, #12
 800acb4:	af00      	add	r7, sp, #0
 800acb6:	6078      	str	r0, [r7, #4]
 800acb8:	687b      	ldr	r3, [r7, #4]
 800acba:	f893 329c 	ldrb.w	r3, [r3, #668]	@ 0x29c
 800acbe:	b2da      	uxtb	r2, r3
 800acc0:	687b      	ldr	r3, [r7, #4]
 800acc2:	f883 229d 	strb.w	r2, [r3, #669]	@ 0x29d
 800acc6:	687b      	ldr	r3, [r7, #4]
 800acc8:	2204      	movs	r2, #4
 800acca:	f883 229c 	strb.w	r2, [r3, #668]	@ 0x29c
 800acce:	2300      	movs	r3, #0
 800acd0:	4618      	mov	r0, r3
 800acd2:	370c      	adds	r7, #12
 800acd4:	46bd      	mov	sp, r7
 800acd6:	f85d 7b04 	ldr.w	r7, [sp], #4
 800acda:	4770      	bx	lr

0800acdc <USBD_LL_Resume>:
 800acdc:	b480      	push	{r7}
 800acde:	b083      	sub	sp, #12
 800ace0:	af00      	add	r7, sp, #0
 800ace2:	6078      	str	r0, [r7, #4]
 800ace4:	687b      	ldr	r3, [r7, #4]
 800ace6:	f893 329c 	ldrb.w	r3, [r3, #668]	@ 0x29c
 800acea:	b2db      	uxtb	r3, r3
 800acec:	2b04      	cmp	r3, #4
 800acee:	d106      	bne.n	800acfe <USBD_LL_Resume+0x22>
 800acf0:	687b      	ldr	r3, [r7, #4]
 800acf2:	f893 329d 	ldrb.w	r3, [r3, #669]	@ 0x29d
 800acf6:	b2da      	uxtb	r2, r3
 800acf8:	687b      	ldr	r3, [r7, #4]
 800acfa:	f883 229c 	strb.w	r2, [r3, #668]	@ 0x29c
 800acfe:	2300      	movs	r3, #0
 800ad00:	4618      	mov	r0, r3
 800ad02:	370c      	adds	r7, #12
 800ad04:	46bd      	mov	sp, r7
 800ad06:	f85d 7b04 	ldr.w	r7, [sp], #4
 800ad0a:	4770      	bx	lr

0800ad0c <USBD_LL_SOF>:
 800ad0c:	b580      	push	{r7, lr}
 800ad0e:	b082      	sub	sp, #8
 800ad10:	af00      	add	r7, sp, #0
 800ad12:	6078      	str	r0, [r7, #4]
 800ad14:	687b      	ldr	r3, [r7, #4]
 800ad16:	f8d3 32b8 	ldr.w	r3, [r3, #696]	@ 0x2b8
 800ad1a:	2b00      	cmp	r3, #0
 800ad1c:	d101      	bne.n	800ad22 <USBD_LL_SOF+0x16>
 800ad1e:	2303      	movs	r3, #3
 800ad20:	e012      	b.n	800ad48 <USBD_LL_SOF+0x3c>
 800ad22:	687b      	ldr	r3, [r7, #4]
 800ad24:	f893 329c 	ldrb.w	r3, [r3, #668]	@ 0x29c
 800ad28:	b2db      	uxtb	r3, r3
 800ad2a:	2b03      	cmp	r3, #3
 800ad2c:	d10b      	bne.n	800ad46 <USBD_LL_SOF+0x3a>
 800ad2e:	687b      	ldr	r3, [r7, #4]
 800ad30:	f8d3 32b8 	ldr.w	r3, [r3, #696]	@ 0x2b8
 800ad34:	69db      	ldr	r3, [r3, #28]
 800ad36:	2b00      	cmp	r3, #0
 800ad38:	d005      	beq.n	800ad46 <USBD_LL_SOF+0x3a>
 800ad3a:	687b      	ldr	r3, [r7, #4]
 800ad3c:	f8d3 32b8 	ldr.w	r3, [r3, #696]	@ 0x2b8
 800ad40:	69db      	ldr	r3, [r3, #28]
 800ad42:	6878      	ldr	r0, [r7, #4]
 800ad44:	4798      	blx	r3
 800ad46:	2300      	movs	r3, #0
 800ad48:	4618      	mov	r0, r3
 800ad4a:	3708      	adds	r7, #8
 800ad4c:	46bd      	mov	sp, r7
 800ad4e:	bd80      	pop	{r7, pc}

0800ad50 <SWAPBYTE>:
 800ad50:	b480      	push	{r7}
 800ad52:	b087      	sub	sp, #28
 800ad54:	af00      	add	r7, sp, #0
 800ad56:	6078      	str	r0, [r7, #4]
 800ad58:	687b      	ldr	r3, [r7, #4]
 800ad5a:	617b      	str	r3, [r7, #20]
 800ad5c:	697b      	ldr	r3, [r7, #20]
 800ad5e:	781b      	ldrb	r3, [r3, #0]
 800ad60:	827b      	strh	r3, [r7, #18]
 800ad62:	697b      	ldr	r3, [r7, #20]
 800ad64:	3301      	adds	r3, #1
 800ad66:	617b      	str	r3, [r7, #20]
 800ad68:	697b      	ldr	r3, [r7, #20]
 800ad6a:	781b      	ldrb	r3, [r3, #0]
 800ad6c:	823b      	strh	r3, [r7, #16]
 800ad6e:	f9b7 3010 	ldrsh.w	r3, [r7, #16]
 800ad72:	021b      	lsls	r3, r3, #8
 800ad74:	b21a      	sxth	r2, r3
 800ad76:	f9b7 3012 	ldrsh.w	r3, [r7, #18]
 800ad7a:	4313      	orrs	r3, r2
 800ad7c:	b21b      	sxth	r3, r3
 800ad7e:	81fb      	strh	r3, [r7, #14]
 800ad80:	89fb      	ldrh	r3, [r7, #14]
 800ad82:	4618      	mov	r0, r3
 800ad84:	371c      	adds	r7, #28
 800ad86:	46bd      	mov	sp, r7
 800ad88:	f85d 7b04 	ldr.w	r7, [sp], #4
 800ad8c:	4770      	bx	lr
	...

0800ad90 <USBD_StdDevReq>:
 800ad90:	b580      	push	{r7, lr}
 800ad92:	b084      	sub	sp, #16
 800ad94:	af00      	add	r7, sp, #0
 800ad96:	6078      	str	r0, [r7, #4]
 800ad98:	6039      	str	r1, [r7, #0]
 800ad9a:	2300      	movs	r3, #0
 800ad9c:	73fb      	strb	r3, [r7, #15]
 800ad9e:	683b      	ldr	r3, [r7, #0]
 800ada0:	781b      	ldrb	r3, [r3, #0]
 800ada2:	f003 0360 	and.w	r3, r3, #96	@ 0x60
 800ada6:	2b40      	cmp	r3, #64	@ 0x40
 800ada8:	d005      	beq.n	800adb6 <USBD_StdDevReq+0x26>
 800adaa:	2b40      	cmp	r3, #64	@ 0x40
 800adac:	d853      	bhi.n	800ae56 <USBD_StdDevReq+0xc6>
 800adae:	2b00      	cmp	r3, #0
 800adb0:	d00b      	beq.n	800adca <USBD_StdDevReq+0x3a>
 800adb2:	2b20      	cmp	r3, #32
 800adb4:	d14f      	bne.n	800ae56 <USBD_StdDevReq+0xc6>
 800adb6:	687b      	ldr	r3, [r7, #4]
 800adb8:	f8d3 32b8 	ldr.w	r3, [r3, #696]	@ 0x2b8
 800adbc:	689b      	ldr	r3, [r3, #8]
 800adbe:	6839      	ldr	r1, [r7, #0]
 800adc0:	6878      	ldr	r0, [r7, #4]
 800adc2:	4798      	blx	r3
 800adc4:	4603      	mov	r3, r0
 800adc6:	73fb      	strb	r3, [r7, #15]
 800adc8:	e04a      	b.n	800ae60 <USBD_StdDevReq+0xd0>
 800adca:	683b      	ldr	r3, [r7, #0]
 800adcc:	785b      	ldrb	r3, [r3, #1]
 800adce:	2b09      	cmp	r3, #9
 800add0:	d83b      	bhi.n	800ae4a <USBD_StdDevReq+0xba>
 800add2:	a201      	add	r2, pc, #4	@ (adr r2, 800add8 <USBD_StdDevReq+0x48>)
 800add4:	f852 f023 	ldr.w	pc, [r2, r3, lsl #2]
 800add8:	0800ae2d 	.word	0x0800ae2d
 800addc:	0800ae41 	.word	0x0800ae41
 800ade0:	0800ae4b 	.word	0x0800ae4b
 800ade4:	0800ae37 	.word	0x0800ae37
 800ade8:	0800ae4b 	.word	0x0800ae4b
 800adec:	0800ae0b 	.word	0x0800ae0b
 800adf0:	0800ae01 	.word	0x0800ae01
 800adf4:	0800ae4b 	.word	0x0800ae4b
 800adf8:	0800ae23 	.word	0x0800ae23
 800adfc:	0800ae15 	.word	0x0800ae15
 800ae00:	6839      	ldr	r1, [r7, #0]
 800ae02:	6878      	ldr	r0, [r7, #4]
 800ae04:	f000 f9de 	bl	800b1c4 <USBD_GetDescriptor>
 800ae08:	e024      	b.n	800ae54 <USBD_StdDevReq+0xc4>
 800ae0a:	6839      	ldr	r1, [r7, #0]
 800ae0c:	6878      	ldr	r0, [r7, #4]
 800ae0e:	f000 fb6d 	bl	800b4ec <USBD_SetAddress>
 800ae12:	e01f      	b.n	800ae54 <USBD_StdDevReq+0xc4>
 800ae14:	6839      	ldr	r1, [r7, #0]
 800ae16:	6878      	ldr	r0, [r7, #4]
 800ae18:	f000 fbac 	bl	800b574 <USBD_SetConfig>
 800ae1c:	4603      	mov	r3, r0
 800ae1e:	73fb      	strb	r3, [r7, #15]
 800ae20:	e018      	b.n	800ae54 <USBD_StdDevReq+0xc4>
 800ae22:	6839      	ldr	r1, [r7, #0]
 800ae24:	6878      	ldr	r0, [r7, #4]
 800ae26:	f000 fc4b 	bl	800b6c0 <USBD_GetConfig>
 800ae2a:	e013      	b.n	800ae54 <USBD_StdDevReq+0xc4>
 800ae2c:	6839      	ldr	r1, [r7, #0]
 800ae2e:	6878      	ldr	r0, [r7, #4]
 800ae30:	f000 fc7c 	bl	800b72c <USBD_GetStatus>
 800ae34:	e00e      	b.n	800ae54 <USBD_StdDevReq+0xc4>
 800ae36:	6839      	ldr	r1, [r7, #0]
 800ae38:	6878      	ldr	r0, [r7, #4]
 800ae3a:	f000 fcab 	bl	800b794 <USBD_SetFeature>
 800ae3e:	e009      	b.n	800ae54 <USBD_StdDevReq+0xc4>
 800ae40:	6839      	ldr	r1, [r7, #0]
 800ae42:	6878      	ldr	r0, [r7, #4]
 800ae44:	f000 fcba 	bl	800b7bc <USBD_ClrFeature>
 800ae48:	e004      	b.n	800ae54 <USBD_StdDevReq+0xc4>
 800ae4a:	6839      	ldr	r1, [r7, #0]
 800ae4c:	6878      	ldr	r0, [r7, #4]
 800ae4e:	f000 fd11 	bl	800b874 <USBD_CtlError>
 800ae52:	bf00      	nop
 800ae54:	e004      	b.n	800ae60 <USBD_StdDevReq+0xd0>
 800ae56:	6839      	ldr	r1, [r7, #0]
 800ae58:	6878      	ldr	r0, [r7, #4]
 800ae5a:	f000 fd0b 	bl	800b874 <USBD_CtlError>
 800ae5e:	bf00      	nop
 800ae60:	7bfb      	ldrb	r3, [r7, #15]
 800ae62:	4618      	mov	r0, r3
 800ae64:	3710      	adds	r7, #16
 800ae66:	46bd      	mov	sp, r7
 800ae68:	bd80      	pop	{r7, pc}
 800ae6a:	bf00      	nop

0800ae6c <USBD_StdItfReq>:
 800ae6c:	b580      	push	{r7, lr}
 800ae6e:	b084      	sub	sp, #16
 800ae70:	af00      	add	r7, sp, #0
 800ae72:	6078      	str	r0, [r7, #4]
 800ae74:	6039      	str	r1, [r7, #0]
 800ae76:	2300      	movs	r3, #0
 800ae78:	73fb      	strb	r3, [r7, #15]
 800ae7a:	683b      	ldr	r3, [r7, #0]
 800ae7c:	781b      	ldrb	r3, [r3, #0]
 800ae7e:	f003 0360 	and.w	r3, r3, #96	@ 0x60
 800ae82:	2b40      	cmp	r3, #64	@ 0x40
 800ae84:	d005      	beq.n	800ae92 <USBD_StdItfReq+0x26>
 800ae86:	2b40      	cmp	r3, #64	@ 0x40
 800ae88:	d82f      	bhi.n	800aeea <USBD_StdItfReq+0x7e>
 800ae8a:	2b00      	cmp	r3, #0
 800ae8c:	d001      	beq.n	800ae92 <USBD_StdItfReq+0x26>
 800ae8e:	2b20      	cmp	r3, #32
 800ae90:	d12b      	bne.n	800aeea <USBD_StdItfReq+0x7e>
 800ae92:	687b      	ldr	r3, [r7, #4]
 800ae94:	f893 329c 	ldrb.w	r3, [r3, #668]	@ 0x29c
 800ae98:	b2db      	uxtb	r3, r3
 800ae9a:	3b01      	subs	r3, #1
 800ae9c:	2b02      	cmp	r3, #2
 800ae9e:	d81d      	bhi.n	800aedc <USBD_StdItfReq+0x70>
 800aea0:	683b      	ldr	r3, [r7, #0]
 800aea2:	889b      	ldrh	r3, [r3, #4]
 800aea4:	b2db      	uxtb	r3, r3
 800aea6:	2b01      	cmp	r3, #1
 800aea8:	d813      	bhi.n	800aed2 <USBD_StdItfReq+0x66>
 800aeaa:	687b      	ldr	r3, [r7, #4]
 800aeac:	f8d3 32b8 	ldr.w	r3, [r3, #696]	@ 0x2b8
 800aeb0:	689b      	ldr	r3, [r3, #8]
 800aeb2:	6839      	ldr	r1, [r7, #0]
 800aeb4:	6878      	ldr	r0, [r7, #4]
 800aeb6:	4798      	blx	r3
 800aeb8:	4603      	mov	r3, r0
 800aeba:	73fb      	strb	r3, [r7, #15]
 800aebc:	683b      	ldr	r3, [r7, #0]
 800aebe:	88db      	ldrh	r3, [r3, #6]
 800aec0:	2b00      	cmp	r3, #0
 800aec2:	d110      	bne.n	800aee6 <USBD_StdItfReq+0x7a>
 800aec4:	7bfb      	ldrb	r3, [r7, #15]
 800aec6:	2b00      	cmp	r3, #0
 800aec8:	d10d      	bne.n	800aee6 <USBD_StdItfReq+0x7a>
 800aeca:	6878      	ldr	r0, [r7, #4]
 800aecc:	f000 fd9d 	bl	800ba0a <USBD_CtlSendStatus>
 800aed0:	e009      	b.n	800aee6 <USBD_StdItfReq+0x7a>
 800aed2:	6839      	ldr	r1, [r7, #0]
 800aed4:	6878      	ldr	r0, [r7, #4]
 800aed6:	f000 fccd 	bl	800b874 <USBD_CtlError>
 800aeda:	e004      	b.n	800aee6 <USBD_StdItfReq+0x7a>
 800aedc:	6839      	ldr	r1, [r7, #0]
 800aede:	6878      	ldr	r0, [r7, #4]
 800aee0:	f000 fcc8 	bl	800b874 <USBD_CtlError>
 800aee4:	e000      	b.n	800aee8 <USBD_StdItfReq+0x7c>
 800aee6:	bf00      	nop
 800aee8:	e004      	b.n	800aef4 <USBD_StdItfReq+0x88>
 800aeea:	6839      	ldr	r1, [r7, #0]
 800aeec:	6878      	ldr	r0, [r7, #4]
 800aeee:	f000 fcc1 	bl	800b874 <USBD_CtlError>
 800aef2:	bf00      	nop
 800aef4:	7bfb      	ldrb	r3, [r7, #15]
 800aef6:	4618      	mov	r0, r3
 800aef8:	3710      	adds	r7, #16
 800aefa:	46bd      	mov	sp, r7
 800aefc:	bd80      	pop	{r7, pc}

0800aefe <USBD_StdEPReq>:
 800aefe:	b580      	push	{r7, lr}
 800af00:	b084      	sub	sp, #16
 800af02:	af00      	add	r7, sp, #0
 800af04:	6078      	str	r0, [r7, #4]
 800af06:	6039      	str	r1, [r7, #0]
 800af08:	2300      	movs	r3, #0
 800af0a:	73fb      	strb	r3, [r7, #15]
 800af0c:	683b      	ldr	r3, [r7, #0]
 800af0e:	889b      	ldrh	r3, [r3, #4]
 800af10:	73bb      	strb	r3, [r7, #14]
 800af12:	683b      	ldr	r3, [r7, #0]
 800af14:	781b      	ldrb	r3, [r3, #0]
 800af16:	f003 0360 	and.w	r3, r3, #96	@ 0x60
 800af1a:	2b40      	cmp	r3, #64	@ 0x40
 800af1c:	d007      	beq.n	800af2e <USBD_StdEPReq+0x30>
 800af1e:	2b40      	cmp	r3, #64	@ 0x40
 800af20:	f200 8145 	bhi.w	800b1ae <USBD_StdEPReq+0x2b0>
 800af24:	2b00      	cmp	r3, #0
 800af26:	d00c      	beq.n	800af42 <USBD_StdEPReq+0x44>
 800af28:	2b20      	cmp	r3, #32
 800af2a:	f040 8140 	bne.w	800b1ae <USBD_StdEPReq+0x2b0>
 800af2e:	687b      	ldr	r3, [r7, #4]
 800af30:	f8d3 32b8 	ldr.w	r3, [r3, #696]	@ 0x2b8
 800af34:	689b      	ldr	r3, [r3, #8]
 800af36:	6839      	ldr	r1, [r7, #0]
 800af38:	6878      	ldr	r0, [r7, #4]
 800af3a:	4798      	blx	r3
 800af3c:	4603      	mov	r3, r0
 800af3e:	73fb      	strb	r3, [r7, #15]
 800af40:	e13a      	b.n	800b1b8 <USBD_StdEPReq+0x2ba>
 800af42:	683b      	ldr	r3, [r7, #0]
 800af44:	785b      	ldrb	r3, [r3, #1]
 800af46:	2b03      	cmp	r3, #3
 800af48:	d007      	beq.n	800af5a <USBD_StdEPReq+0x5c>
 800af4a:	2b03      	cmp	r3, #3
 800af4c:	f300 8129 	bgt.w	800b1a2 <USBD_StdEPReq+0x2a4>
 800af50:	2b00      	cmp	r3, #0
 800af52:	d07f      	beq.n	800b054 <USBD_StdEPReq+0x156>
 800af54:	2b01      	cmp	r3, #1
 800af56:	d03c      	beq.n	800afd2 <USBD_StdEPReq+0xd4>
 800af58:	e123      	b.n	800b1a2 <USBD_StdEPReq+0x2a4>
 800af5a:	687b      	ldr	r3, [r7, #4]
 800af5c:	f893 329c 	ldrb.w	r3, [r3, #668]	@ 0x29c
 800af60:	b2db      	uxtb	r3, r3
 800af62:	2b02      	cmp	r3, #2
 800af64:	d002      	beq.n	800af6c <USBD_StdEPReq+0x6e>
 800af66:	2b03      	cmp	r3, #3
 800af68:	d016      	beq.n	800af98 <USBD_StdEPReq+0x9a>
 800af6a:	e02c      	b.n	800afc6 <USBD_StdEPReq+0xc8>
 800af6c:	7bbb      	ldrb	r3, [r7, #14]
 800af6e:	2b00      	cmp	r3, #0
 800af70:	d00d      	beq.n	800af8e <USBD_StdEPReq+0x90>
 800af72:	7bbb      	ldrb	r3, [r7, #14]
 800af74:	2b80      	cmp	r3, #128	@ 0x80
 800af76:	d00a      	beq.n	800af8e <USBD_StdEPReq+0x90>
 800af78:	7bbb      	ldrb	r3, [r7, #14]
 800af7a:	4619      	mov	r1, r3
 800af7c:	6878      	ldr	r0, [r7, #4]
 800af7e:	f001 f907 	bl	800c190 <USBD_LL_StallEP>
 800af82:	2180      	movs	r1, #128	@ 0x80
 800af84:	6878      	ldr	r0, [r7, #4]
 800af86:	f001 f903 	bl	800c190 <USBD_LL_StallEP>
 800af8a:	bf00      	nop
 800af8c:	e020      	b.n	800afd0 <USBD_StdEPReq+0xd2>
 800af8e:	6839      	ldr	r1, [r7, #0]
 800af90:	6878      	ldr	r0, [r7, #4]
 800af92:	f000 fc6f 	bl	800b874 <USBD_CtlError>
 800af96:	e01b      	b.n	800afd0 <USBD_StdEPReq+0xd2>
 800af98:	683b      	ldr	r3, [r7, #0]
 800af9a:	885b      	ldrh	r3, [r3, #2]
 800af9c:	2b00      	cmp	r3, #0
 800af9e:	d10e      	bne.n	800afbe <USBD_StdEPReq+0xc0>
 800afa0:	7bbb      	ldrb	r3, [r7, #14]
 800afa2:	2b00      	cmp	r3, #0
 800afa4:	d00b      	beq.n	800afbe <USBD_StdEPReq+0xc0>
 800afa6:	7bbb      	ldrb	r3, [r7, #14]
 800afa8:	2b80      	cmp	r3, #128	@ 0x80
 800afaa:	d008      	beq.n	800afbe <USBD_StdEPReq+0xc0>
 800afac:	683b      	ldr	r3, [r7, #0]
 800afae:	88db      	ldrh	r3, [r3, #6]
 800afb0:	2b00      	cmp	r3, #0
 800afb2:	d104      	bne.n	800afbe <USBD_StdEPReq+0xc0>
 800afb4:	7bbb      	ldrb	r3, [r7, #14]
 800afb6:	4619      	mov	r1, r3
 800afb8:	6878      	ldr	r0, [r7, #4]
 800afba:	f001 f8e9 	bl	800c190 <USBD_LL_StallEP>
 800afbe:	6878      	ldr	r0, [r7, #4]
 800afc0:	f000 fd23 	bl	800ba0a <USBD_CtlSendStatus>
 800afc4:	e004      	b.n	800afd0 <USBD_StdEPReq+0xd2>
 800afc6:	6839      	ldr	r1, [r7, #0]
 800afc8:	6878      	ldr	r0, [r7, #4]
 800afca:	f000 fc53 	bl	800b874 <USBD_CtlError>
 800afce:	bf00      	nop
 800afd0:	e0ec      	b.n	800b1ac <USBD_StdEPReq+0x2ae>
 800afd2:	687b      	ldr	r3, [r7, #4]
 800afd4:	f893 329c 	ldrb.w	r3, [r3, #668]	@ 0x29c
 800afd8:	b2db      	uxtb	r3, r3
 800afda:	2b02      	cmp	r3, #2
 800afdc:	d002      	beq.n	800afe4 <USBD_StdEPReq+0xe6>
 800afde:	2b03      	cmp	r3, #3
 800afe0:	d016      	beq.n	800b010 <USBD_StdEPReq+0x112>
 800afe2:	e030      	b.n	800b046 <USBD_StdEPReq+0x148>
 800afe4:	7bbb      	ldrb	r3, [r7, #14]
 800afe6:	2b00      	cmp	r3, #0
 800afe8:	d00d      	beq.n	800b006 <USBD_StdEPReq+0x108>
 800afea:	7bbb      	ldrb	r3, [r7, #14]
 800afec:	2b80      	cmp	r3, #128	@ 0x80
 800afee:	d00a      	beq.n	800b006 <USBD_StdEPReq+0x108>
 800aff0:	7bbb      	ldrb	r3, [r7, #14]
 800aff2:	4619      	mov	r1, r3
 800aff4:	6878      	ldr	r0, [r7, #4]
 800aff6:	f001 f8cb 	bl	800c190 <USBD_LL_StallEP>
 800affa:	2180      	movs	r1, #128	@ 0x80
 800affc:	6878      	ldr	r0, [r7, #4]
 800affe:	f001 f8c7 	bl	800c190 <USBD_LL_StallEP>
 800b002:	bf00      	nop
 800b004:	e025      	b.n	800b052 <USBD_StdEPReq+0x154>
 800b006:	6839      	ldr	r1, [r7, #0]
 800b008:	6878      	ldr	r0, [r7, #4]
 800b00a:	f000 fc33 	bl	800b874 <USBD_CtlError>
 800b00e:	e020      	b.n	800b052 <USBD_StdEPReq+0x154>
 800b010:	683b      	ldr	r3, [r7, #0]
 800b012:	885b      	ldrh	r3, [r3, #2]
 800b014:	2b00      	cmp	r3, #0
 800b016:	d11b      	bne.n	800b050 <USBD_StdEPReq+0x152>
 800b018:	7bbb      	ldrb	r3, [r7, #14]
 800b01a:	f003 037f 	and.w	r3, r3, #127	@ 0x7f
 800b01e:	2b00      	cmp	r3, #0
 800b020:	d004      	beq.n	800b02c <USBD_StdEPReq+0x12e>
 800b022:	7bbb      	ldrb	r3, [r7, #14]
 800b024:	4619      	mov	r1, r3
 800b026:	6878      	ldr	r0, [r7, #4]
 800b028:	f001 f8d1 	bl	800c1ce <USBD_LL_ClearStallEP>
 800b02c:	6878      	ldr	r0, [r7, #4]
 800b02e:	f000 fcec 	bl	800ba0a <USBD_CtlSendStatus>
 800b032:	687b      	ldr	r3, [r7, #4]
 800b034:	f8d3 32b8 	ldr.w	r3, [r3, #696]	@ 0x2b8
 800b038:	689b      	ldr	r3, [r3, #8]
 800b03a:	6839      	ldr	r1, [r7, #0]
 800b03c:	6878      	ldr	r0, [r7, #4]
 800b03e:	4798      	blx	r3
 800b040:	4603      	mov	r3, r0
 800b042:	73fb      	strb	r3, [r7, #15]
 800b044:	e004      	b.n	800b050 <USBD_StdEPReq+0x152>
 800b046:	6839      	ldr	r1, [r7, #0]
 800b048:	6878      	ldr	r0, [r7, #4]
 800b04a:	f000 fc13 	bl	800b874 <USBD_CtlError>
 800b04e:	e000      	b.n	800b052 <USBD_StdEPReq+0x154>
 800b050:	bf00      	nop
 800b052:	e0ab      	b.n	800b1ac <USBD_StdEPReq+0x2ae>
 800b054:	687b      	ldr	r3, [r7, #4]
 800b056:	f893 329c 	ldrb.w	r3, [r3, #668]	@ 0x29c
 800b05a:	b2db      	uxtb	r3, r3
 800b05c:	2b02      	cmp	r3, #2
 800b05e:	d002      	beq.n	800b066 <USBD_StdEPReq+0x168>
 800b060:	2b03      	cmp	r3, #3
 800b062:	d032      	beq.n	800b0ca <USBD_StdEPReq+0x1cc>
 800b064:	e097      	b.n	800b196 <USBD_StdEPReq+0x298>
 800b066:	7bbb      	ldrb	r3, [r7, #14]
 800b068:	2b00      	cmp	r3, #0
 800b06a:	d007      	beq.n	800b07c <USBD_StdEPReq+0x17e>
 800b06c:	7bbb      	ldrb	r3, [r7, #14]
 800b06e:	2b80      	cmp	r3, #128	@ 0x80
 800b070:	d004      	beq.n	800b07c <USBD_StdEPReq+0x17e>
 800b072:	6839      	ldr	r1, [r7, #0]
 800b074:	6878      	ldr	r0, [r7, #4]
 800b076:	f000 fbfd 	bl	800b874 <USBD_CtlError>
 800b07a:	e091      	b.n	800b1a0 <USBD_StdEPReq+0x2a2>
 800b07c:	f997 300e 	ldrsb.w	r3, [r7, #14]
 800b080:	2b00      	cmp	r3, #0
 800b082:	da0b      	bge.n	800b09c <USBD_StdEPReq+0x19e>
 800b084:	7bbb      	ldrb	r3, [r7, #14]
 800b086:	f003 027f 	and.w	r2, r3, #127	@ 0x7f
 800b08a:	4613      	mov	r3, r2
 800b08c:	009b      	lsls	r3, r3, #2
 800b08e:	4413      	add	r3, r2
 800b090:	009b      	lsls	r3, r3, #2
 800b092:	3310      	adds	r3, #16
 800b094:	687a      	ldr	r2, [r7, #4]
 800b096:	4413      	add	r3, r2
 800b098:	3304      	adds	r3, #4
 800b09a:	e00b      	b.n	800b0b4 <USBD_StdEPReq+0x1b6>
 800b09c:	7bbb      	ldrb	r3, [r7, #14]
 800b09e:	f003 027f 	and.w	r2, r3, #127	@ 0x7f
 800b0a2:	4613      	mov	r3, r2
 800b0a4:	009b      	lsls	r3, r3, #2
 800b0a6:	4413      	add	r3, r2
 800b0a8:	009b      	lsls	r3, r3, #2
 800b0aa:	f503 73a8 	add.w	r3, r3, #336	@ 0x150
 800b0ae:	687a      	ldr	r2, [r7, #4]
 800b0b0:	4413      	add	r3, r2
 800b0b2:	3304      	adds	r3, #4
 800b0b4:	60bb      	str	r3, [r7, #8]
 800b0b6:	68bb      	ldr	r3, [r7, #8]
 800b0b8:	2200      	movs	r2, #0
 800b0ba:	601a      	str	r2, [r3, #0]
 800b0bc:	68bb      	ldr	r3, [r7, #8]
 800b0be:	2202      	movs	r2, #2
 800b0c0:	4619      	mov	r1, r3
 800b0c2:	6878      	ldr	r0, [r7, #4]
 800b0c4:	f000 fc47 	bl	800b956 <USBD_CtlSendData>
 800b0c8:	e06a      	b.n	800b1a0 <USBD_StdEPReq+0x2a2>
 800b0ca:	f997 300e 	ldrsb.w	r3, [r7, #14]
 800b0ce:	2b00      	cmp	r3, #0
 800b0d0:	da11      	bge.n	800b0f6 <USBD_StdEPReq+0x1f8>
 800b0d2:	7bbb      	ldrb	r3, [r7, #14]
 800b0d4:	f003 020f 	and.w	r2, r3, #15
 800b0d8:	6879      	ldr	r1, [r7, #4]
 800b0da:	4613      	mov	r3, r2
 800b0dc:	009b      	lsls	r3, r3, #2
 800b0de:	4413      	add	r3, r2
 800b0e0:	009b      	lsls	r3, r3, #2
 800b0e2:	440b      	add	r3, r1
 800b0e4:	3324      	adds	r3, #36	@ 0x24
 800b0e6:	881b      	ldrh	r3, [r3, #0]
 800b0e8:	2b00      	cmp	r3, #0
 800b0ea:	d117      	bne.n	800b11c <USBD_StdEPReq+0x21e>
 800b0ec:	6839      	ldr	r1, [r7, #0]
 800b0ee:	6878      	ldr	r0, [r7, #4]
 800b0f0:	f000 fbc0 	bl	800b874 <USBD_CtlError>
 800b0f4:	e054      	b.n	800b1a0 <USBD_StdEPReq+0x2a2>
 800b0f6:	7bbb      	ldrb	r3, [r7, #14]
 800b0f8:	f003 020f 	and.w	r2, r3, #15
 800b0fc:	6879      	ldr	r1, [r7, #4]
 800b0fe:	4613      	mov	r3, r2
 800b100:	009b      	lsls	r3, r3, #2
 800b102:	4413      	add	r3, r2
 800b104:	009b      	lsls	r3, r3, #2
 800b106:	440b      	add	r3, r1
 800b108:	f503 73b2 	add.w	r3, r3, #356	@ 0x164
 800b10c:	881b      	ldrh	r3, [r3, #0]
 800b10e:	2b00      	cmp	r3, #0
 800b110:	d104      	bne.n	800b11c <USBD_StdEPReq+0x21e>
 800b112:	6839      	ldr	r1, [r7, #0]
 800b114:	6878      	ldr	r0, [r7, #4]
 800b116:	f000 fbad 	bl	800b874 <USBD_CtlError>
 800b11a:	e041      	b.n	800b1a0 <USBD_StdEPReq+0x2a2>
 800b11c:	f997 300e 	ldrsb.w	r3, [r7, #14]
 800b120:	2b00      	cmp	r3, #0
 800b122:	da0b      	bge.n	800b13c <USBD_StdEPReq+0x23e>
 800b124:	7bbb      	ldrb	r3, [r7, #14]
 800b126:	f003 027f 	and.w	r2, r3, #127	@ 0x7f
 800b12a:	4613      	mov	r3, r2
 800b12c:	009b      	lsls	r3, r3, #2
 800b12e:	4413      	add	r3, r2
 800b130:	009b      	lsls	r3, r3, #2
 800b132:	3310      	adds	r3, #16
 800b134:	687a      	ldr	r2, [r7, #4]
 800b136:	4413      	add	r3, r2
 800b138:	3304      	adds	r3, #4
 800b13a:	e00b      	b.n	800b154 <USBD_StdEPReq+0x256>
 800b13c:	7bbb      	ldrb	r3, [r7, #14]
 800b13e:	f003 027f 	and.w	r2, r3, #127	@ 0x7f
 800b142:	4613      	mov	r3, r2
 800b144:	009b      	lsls	r3, r3, #2
 800b146:	4413      	add	r3, r2
 800b148:	009b      	lsls	r3, r3, #2
 800b14a:	f503 73a8 	add.w	r3, r3, #336	@ 0x150
 800b14e:	687a      	ldr	r2, [r7, #4]
 800b150:	4413      	add	r3, r2
 800b152:	3304      	adds	r3, #4
 800b154:	60bb      	str	r3, [r7, #8]
 800b156:	7bbb      	ldrb	r3, [r7, #14]
 800b158:	2b00      	cmp	r3, #0
 800b15a:	d002      	beq.n	800b162 <USBD_StdEPReq+0x264>
 800b15c:	7bbb      	ldrb	r3, [r7, #14]
 800b15e:	2b80      	cmp	r3, #128	@ 0x80
 800b160:	d103      	bne.n	800b16a <USBD_StdEPReq+0x26c>
 800b162:	68bb      	ldr	r3, [r7, #8]
 800b164:	2200      	movs	r2, #0
 800b166:	601a      	str	r2, [r3, #0]
 800b168:	e00e      	b.n	800b188 <USBD_StdEPReq+0x28a>
 800b16a:	7bbb      	ldrb	r3, [r7, #14]
 800b16c:	4619      	mov	r1, r3
 800b16e:	6878      	ldr	r0, [r7, #4]
 800b170:	f001 f84c 	bl	800c20c <USBD_LL_IsStallEP>
 800b174:	4603      	mov	r3, r0
 800b176:	2b00      	cmp	r3, #0
 800b178:	d003      	beq.n	800b182 <USBD_StdEPReq+0x284>
 800b17a:	68bb      	ldr	r3, [r7, #8]
 800b17c:	2201      	movs	r2, #1
 800b17e:	601a      	str	r2, [r3, #0]
 800b180:	e002      	b.n	800b188 <USBD_StdEPReq+0x28a>
 800b182:	68bb      	ldr	r3, [r7, #8]
 800b184:	2200      	movs	r2, #0
 800b186:	601a      	str	r2, [r3, #0]
 800b188:	68bb      	ldr	r3, [r7, #8]
 800b18a:	2202      	movs	r2, #2
 800b18c:	4619      	mov	r1, r3
 800b18e:	6878      	ldr	r0, [r7, #4]
 800b190:	f000 fbe1 	bl	800b956 <USBD_CtlSendData>
 800b194:	e004      	b.n	800b1a0 <USBD_StdEPReq+0x2a2>
 800b196:	6839      	ldr	r1, [r7, #0]
 800b198:	6878      	ldr	r0, [r7, #4]
 800b19a:	f000 fb6b 	bl	800b874 <USBD_CtlError>
 800b19e:	bf00      	nop
 800b1a0:	e004      	b.n	800b1ac <USBD_StdEPReq+0x2ae>
 800b1a2:	6839      	ldr	r1, [r7, #0]
 800b1a4:	6878      	ldr	r0, [r7, #4]
 800b1a6:	f000 fb65 	bl	800b874 <USBD_CtlError>
 800b1aa:	bf00      	nop
 800b1ac:	e004      	b.n	800b1b8 <USBD_StdEPReq+0x2ba>
 800b1ae:	6839      	ldr	r1, [r7, #0]
 800b1b0:	6878      	ldr	r0, [r7, #4]
 800b1b2:	f000 fb5f 	bl	800b874 <USBD_CtlError>
 800b1b6:	bf00      	nop
 800b1b8:	7bfb      	ldrb	r3, [r7, #15]
 800b1ba:	4618      	mov	r0, r3
 800b1bc:	3710      	adds	r7, #16
 800b1be:	46bd      	mov	sp, r7
 800b1c0:	bd80      	pop	{r7, pc}
	...

0800b1c4 <USBD_GetDescriptor>:
 800b1c4:	b580      	push	{r7, lr}
 800b1c6:	b084      	sub	sp, #16
 800b1c8:	af00      	add	r7, sp, #0
 800b1ca:	6078      	str	r0, [r7, #4]
 800b1cc:	6039      	str	r1, [r7, #0]
 800b1ce:	2300      	movs	r3, #0
 800b1d0:	813b      	strh	r3, [r7, #8]
 800b1d2:	2300      	movs	r3, #0
 800b1d4:	60fb      	str	r3, [r7, #12]
 800b1d6:	2300      	movs	r3, #0
 800b1d8:	72fb      	strb	r3, [r7, #11]
 800b1da:	683b      	ldr	r3, [r7, #0]
 800b1dc:	885b      	ldrh	r3, [r3, #2]
 800b1de:	0a1b      	lsrs	r3, r3, #8
 800b1e0:	b29b      	uxth	r3, r3
 800b1e2:	3b01      	subs	r3, #1
 800b1e4:	2b0e      	cmp	r3, #14
 800b1e6:	f200 8152 	bhi.w	800b48e <USBD_GetDescriptor+0x2ca>
 800b1ea:	a201      	add	r2, pc, #4	@ (adr r2, 800b1f0 <USBD_GetDescriptor+0x2c>)
 800b1ec:	f852 f023 	ldr.w	pc, [r2, r3, lsl #2]
 800b1f0:	0800b261 	.word	0x0800b261
 800b1f4:	0800b279 	.word	0x0800b279
 800b1f8:	0800b2b9 	.word	0x0800b2b9
 800b1fc:	0800b48f 	.word	0x0800b48f
 800b200:	0800b48f 	.word	0x0800b48f
 800b204:	0800b42f 	.word	0x0800b42f
 800b208:	0800b45b 	.word	0x0800b45b
 800b20c:	0800b48f 	.word	0x0800b48f
 800b210:	0800b48f 	.word	0x0800b48f
 800b214:	0800b48f 	.word	0x0800b48f
 800b218:	0800b48f 	.word	0x0800b48f
 800b21c:	0800b48f 	.word	0x0800b48f
 800b220:	0800b48f 	.word	0x0800b48f
 800b224:	0800b48f 	.word	0x0800b48f
 800b228:	0800b22d 	.word	0x0800b22d
 800b22c:	687b      	ldr	r3, [r7, #4]
 800b22e:	f8d3 32b4 	ldr.w	r3, [r3, #692]	@ 0x2b4
 800b232:	69db      	ldr	r3, [r3, #28]
 800b234:	2b00      	cmp	r3, #0
 800b236:	d00b      	beq.n	800b250 <USBD_GetDescriptor+0x8c>
 800b238:	687b      	ldr	r3, [r7, #4]
 800b23a:	f8d3 32b4 	ldr.w	r3, [r3, #692]	@ 0x2b4
 800b23e:	69db      	ldr	r3, [r3, #28]
 800b240:	687a      	ldr	r2, [r7, #4]
 800b242:	7c12      	ldrb	r2, [r2, #16]
 800b244:	f107 0108 	add.w	r1, r7, #8
 800b248:	4610      	mov	r0, r2
 800b24a:	4798      	blx	r3
 800b24c:	60f8      	str	r0, [r7, #12]
 800b24e:	e126      	b.n	800b49e <USBD_GetDescriptor+0x2da>
 800b250:	6839      	ldr	r1, [r7, #0]
 800b252:	6878      	ldr	r0, [r7, #4]
 800b254:	f000 fb0e 	bl	800b874 <USBD_CtlError>
 800b258:	7afb      	ldrb	r3, [r7, #11]
 800b25a:	3301      	adds	r3, #1
 800b25c:	72fb      	strb	r3, [r7, #11]
 800b25e:	e11e      	b.n	800b49e <USBD_GetDescriptor+0x2da>
 800b260:	687b      	ldr	r3, [r7, #4]
 800b262:	f8d3 32b4 	ldr.w	r3, [r3, #692]	@ 0x2b4
 800b266:	681b      	ldr	r3, [r3, #0]
 800b268:	687a      	ldr	r2, [r7, #4]
 800b26a:	7c12      	ldrb	r2, [r2, #16]
 800b26c:	f107 0108 	add.w	r1, r7, #8
 800b270:	4610      	mov	r0, r2
 800b272:	4798      	blx	r3
 800b274:	60f8      	str	r0, [r7, #12]
 800b276:	e112      	b.n	800b49e <USBD_GetDescriptor+0x2da>
 800b278:	687b      	ldr	r3, [r7, #4]
 800b27a:	7c1b      	ldrb	r3, [r3, #16]
 800b27c:	2b00      	cmp	r3, #0
 800b27e:	d10d      	bne.n	800b29c <USBD_GetDescriptor+0xd8>
 800b280:	687b      	ldr	r3, [r7, #4]
 800b282:	f8d3 32b8 	ldr.w	r3, [r3, #696]	@ 0x2b8
 800b286:	6a9b      	ldr	r3, [r3, #40]	@ 0x28
 800b288:	f107 0208 	add.w	r2, r7, #8
 800b28c:	4610      	mov	r0, r2
 800b28e:	4798      	blx	r3
 800b290:	60f8      	str	r0, [r7, #12]
 800b292:	68fb      	ldr	r3, [r7, #12]
 800b294:	3301      	adds	r3, #1
 800b296:	2202      	movs	r2, #2
 800b298:	701a      	strb	r2, [r3, #0]
 800b29a:	e100      	b.n	800b49e <USBD_GetDescriptor+0x2da>
 800b29c:	687b      	ldr	r3, [r7, #4]
 800b29e:	f8d3 32b8 	ldr.w	r3, [r3, #696]	@ 0x2b8
 800b2a2:	6adb      	ldr	r3, [r3, #44]	@ 0x2c
 800b2a4:	f107 0208 	add.w	r2, r7, #8
 800b2a8:	4610      	mov	r0, r2
 800b2aa:	4798      	blx	r3
 800b2ac:	60f8      	str	r0, [r7, #12]
 800b2ae:	68fb      	ldr	r3, [r7, #12]
 800b2b0:	3301      	adds	r3, #1
 800b2b2:	2202      	movs	r2, #2
 800b2b4:	701a      	strb	r2, [r3, #0]
 800b2b6:	e0f2      	b.n	800b49e <USBD_GetDescriptor+0x2da>
 800b2b8:	683b      	ldr	r3, [r7, #0]
 800b2ba:	885b      	ldrh	r3, [r3, #2]
 800b2bc:	b2db      	uxtb	r3, r3
 800b2be:	2b05      	cmp	r3, #5
 800b2c0:	f200 80ac 	bhi.w	800b41c <USBD_GetDescriptor+0x258>
 800b2c4:	a201      	add	r2, pc, #4	@ (adr r2, 800b2cc <USBD_GetDescriptor+0x108>)
 800b2c6:	f852 f023 	ldr.w	pc, [r2, r3, lsl #2]
 800b2ca:	bf00      	nop
 800b2cc:	0800b2e5 	.word	0x0800b2e5
 800b2d0:	0800b319 	.word	0x0800b319
 800b2d4:	0800b34d 	.word	0x0800b34d
 800b2d8:	0800b381 	.word	0x0800b381
 800b2dc:	0800b3b5 	.word	0x0800b3b5
 800b2e0:	0800b3e9 	.word	0x0800b3e9
 800b2e4:	687b      	ldr	r3, [r7, #4]
 800b2e6:	f8d3 32b4 	ldr.w	r3, [r3, #692]	@ 0x2b4
 800b2ea:	685b      	ldr	r3, [r3, #4]
 800b2ec:	2b00      	cmp	r3, #0
 800b2ee:	d00b      	beq.n	800b308 <USBD_GetDescriptor+0x144>
 800b2f0:	687b      	ldr	r3, [r7, #4]
 800b2f2:	f8d3 32b4 	ldr.w	r3, [r3, #692]	@ 0x2b4
 800b2f6:	685b      	ldr	r3, [r3, #4]
 800b2f8:	687a      	ldr	r2, [r7, #4]
 800b2fa:	7c12      	ldrb	r2, [r2, #16]
 800b2fc:	f107 0108 	add.w	r1, r7, #8
 800b300:	4610      	mov	r0, r2
 800b302:	4798      	blx	r3
 800b304:	60f8      	str	r0, [r7, #12]
 800b306:	e091      	b.n	800b42c <USBD_GetDescriptor+0x268>
 800b308:	6839      	ldr	r1, [r7, #0]
 800b30a:	6878      	ldr	r0, [r7, #4]
 800b30c:	f000 fab2 	bl	800b874 <USBD_CtlError>
 800b310:	7afb      	ldrb	r3, [r7, #11]
 800b312:	3301      	adds	r3, #1
 800b314:	72fb      	strb	r3, [r7, #11]
 800b316:	e089      	b.n	800b42c <USBD_GetDescriptor+0x268>
 800b318:	687b      	ldr	r3, [r7, #4]
 800b31a:	f8d3 32b4 	ldr.w	r3, [r3, #692]	@ 0x2b4
 800b31e:	689b      	ldr	r3, [r3, #8]
 800b320:	2b00      	cmp	r3, #0
 800b322:	d00b      	beq.n	800b33c <USBD_GetDescriptor+0x178>
 800b324:	687b      	ldr	r3, [r7, #4]
 800b326:	f8d3 32b4 	ldr.w	r3, [r3, #692]	@ 0x2b4
 800b32a:	689b      	ldr	r3, [r3, #8]
 800b32c:	687a      	ldr	r2, [r7, #4]
 800b32e:	7c12      	ldrb	r2, [r2, #16]
 800b330:	f107 0108 	add.w	r1, r7, #8
 800b334:	4610      	mov	r0, r2
 800b336:	4798      	blx	r3
 800b338:	60f8      	str	r0, [r7, #12]
 800b33a:	e077      	b.n	800b42c <USBD_GetDescriptor+0x268>
 800b33c:	6839      	ldr	r1, [r7, #0]
 800b33e:	6878      	ldr	r0, [r7, #4]
 800b340:	f000 fa98 	bl	800b874 <USBD_CtlError>
 800b344:	7afb      	ldrb	r3, [r7, #11]
 800b346:	3301      	adds	r3, #1
 800b348:	72fb      	strb	r3, [r7, #11]
 800b34a:	e06f      	b.n	800b42c <USBD_GetDescriptor+0x268>
 800b34c:	687b      	ldr	r3, [r7, #4]
 800b34e:	f8d3 32b4 	ldr.w	r3, [r3, #692]	@ 0x2b4
 800b352:	68db      	ldr	r3, [r3, #12]
 800b354:	2b00      	cmp	r3, #0
 800b356:	d00b      	beq.n	800b370 <USBD_GetDescriptor+0x1ac>
 800b358:	687b      	ldr	r3, [r7, #4]
 800b35a:	f8d3 32b4 	ldr.w	r3, [r3, #692]	@ 0x2b4
 800b35e:	68db      	ldr	r3, [r3, #12]
 800b360:	687a      	ldr	r2, [r7, #4]
 800b362:	7c12      	ldrb	r2, [r2, #16]
 800b364:	f107 0108 	add.w	r1, r7, #8
 800b368:	4610      	mov	r0, r2
 800b36a:	4798      	blx	r3
 800b36c:	60f8      	str	r0, [r7, #12]
 800b36e:	e05d      	b.n	800b42c <USBD_GetDescriptor+0x268>
 800b370:	6839      	ldr	r1, [r7, #0]
 800b372:	6878      	ldr	r0, [r7, #4]
 800b374:	f000 fa7e 	bl	800b874 <USBD_CtlError>
 800b378:	7afb      	ldrb	r3, [r7, #11]
 800b37a:	3301      	adds	r3, #1
 800b37c:	72fb      	strb	r3, [r7, #11]
 800b37e:	e055      	b.n	800b42c <USBD_GetDescriptor+0x268>
 800b380:	687b      	ldr	r3, [r7, #4]
 800b382:	f8d3 32b4 	ldr.w	r3, [r3, #692]	@ 0x2b4
 800b386:	691b      	ldr	r3, [r3, #16]
 800b388:	2b00      	cmp	r3, #0
 800b38a:	d00b      	beq.n	800b3a4 <USBD_GetDescriptor+0x1e0>
 800b38c:	687b      	ldr	r3, [r7, #4]
 800b38e:	f8d3 32b4 	ldr.w	r3, [r3, #692]	@ 0x2b4
 800b392:	691b      	ldr	r3, [r3, #16]
 800b394:	687a      	ldr	r2, [r7, #4]
 800b396:	7c12      	ldrb	r2, [r2, #16]
 800b398:	f107 0108 	add.w	r1, r7, #8
 800b39c:	4610      	mov	r0, r2
 800b39e:	4798      	blx	r3
 800b3a0:	60f8      	str	r0, [r7, #12]
 800b3a2:	e043      	b.n	800b42c <USBD_GetDescriptor+0x268>
 800b3a4:	6839      	ldr	r1, [r7, #0]
 800b3a6:	6878      	ldr	r0, [r7, #4]
 800b3a8:	f000 fa64 	bl	800b874 <USBD_CtlError>
 800b3ac:	7afb      	ldrb	r3, [r7, #11]
 800b3ae:	3301      	adds	r3, #1
 800b3b0:	72fb      	strb	r3, [r7, #11]
 800b3b2:	e03b      	b.n	800b42c <USBD_GetDescriptor+0x268>
 800b3b4:	687b      	ldr	r3, [r7, #4]
 800b3b6:	f8d3 32b4 	ldr.w	r3, [r3, #692]	@ 0x2b4
 800b3ba:	695b      	ldr	r3, [r3, #20]
 800b3bc:	2b00      	cmp	r3, #0
 800b3be:	d00b      	beq.n	800b3d8 <USBD_GetDescriptor+0x214>
 800b3c0:	687b      	ldr	r3, [r7, #4]
 800b3c2:	f8d3 32b4 	ldr.w	r3, [r3, #692]	@ 0x2b4
 800b3c6:	695b      	ldr	r3, [r3, #20]
 800b3c8:	687a      	ldr	r2, [r7, #4]
 800b3ca:	7c12      	ldrb	r2, [r2, #16]
 800b3cc:	f107 0108 	add.w	r1, r7, #8
 800b3d0:	4610      	mov	r0, r2
 800b3d2:	4798      	blx	r3
 800b3d4:	60f8      	str	r0, [r7, #12]
 800b3d6:	e029      	b.n	800b42c <USBD_GetDescriptor+0x268>
 800b3d8:	6839      	ldr	r1, [r7, #0]
 800b3da:	6878      	ldr	r0, [r7, #4]
 800b3dc:	f000 fa4a 	bl	800b874 <USBD_CtlError>
 800b3e0:	7afb      	ldrb	r3, [r7, #11]
 800b3e2:	3301      	adds	r3, #1
 800b3e4:	72fb      	strb	r3, [r7, #11]
 800b3e6:	e021      	b.n	800b42c <USBD_GetDescriptor+0x268>
 800b3e8:	687b      	ldr	r3, [r7, #4]
 800b3ea:	f8d3 32b4 	ldr.w	r3, [r3, #692]	@ 0x2b4
 800b3ee:	699b      	ldr	r3, [r3, #24]
 800b3f0:	2b00      	cmp	r3, #0
 800b3f2:	d00b      	beq.n	800b40c <USBD_GetDescriptor+0x248>
 800b3f4:	687b      	ldr	r3, [r7, #4]
 800b3f6:	f8d3 32b4 	ldr.w	r3, [r3, #692]	@ 0x2b4
 800b3fa:	699b      	ldr	r3, [r3, #24]
 800b3fc:	687a      	ldr	r2, [r7, #4]
 800b3fe:	7c12      	ldrb	r2, [r2, #16]
 800b400:	f107 0108 	add.w	r1, r7, #8
 800b404:	4610      	mov	r0, r2
 800b406:	4798      	blx	r3
 800b408:	60f8      	str	r0, [r7, #12]
 800b40a:	e00f      	b.n	800b42c <USBD_GetDescriptor+0x268>
 800b40c:	6839      	ldr	r1, [r7, #0]
 800b40e:	6878      	ldr	r0, [r7, #4]
 800b410:	f000 fa30 	bl	800b874 <USBD_CtlError>
 800b414:	7afb      	ldrb	r3, [r7, #11]
 800b416:	3301      	adds	r3, #1
 800b418:	72fb      	strb	r3, [r7, #11]
 800b41a:	e007      	b.n	800b42c <USBD_GetDescriptor+0x268>
 800b41c:	6839      	ldr	r1, [r7, #0]
 800b41e:	6878      	ldr	r0, [r7, #4]
 800b420:	f000 fa28 	bl	800b874 <USBD_CtlError>
 800b424:	7afb      	ldrb	r3, [r7, #11]
 800b426:	3301      	adds	r3, #1
 800b428:	72fb      	strb	r3, [r7, #11]
 800b42a:	bf00      	nop
 800b42c:	e037      	b.n	800b49e <USBD_GetDescriptor+0x2da>
 800b42e:	687b      	ldr	r3, [r7, #4]
 800b430:	7c1b      	ldrb	r3, [r3, #16]
 800b432:	2b00      	cmp	r3, #0
 800b434:	d109      	bne.n	800b44a <USBD_GetDescriptor+0x286>
 800b436:	687b      	ldr	r3, [r7, #4]
 800b438:	f8d3 32b8 	ldr.w	r3, [r3, #696]	@ 0x2b8
 800b43c:	6b5b      	ldr	r3, [r3, #52]	@ 0x34
 800b43e:	f107 0208 	add.w	r2, r7, #8
 800b442:	4610      	mov	r0, r2
 800b444:	4798      	blx	r3
 800b446:	60f8      	str	r0, [r7, #12]
 800b448:	e029      	b.n	800b49e <USBD_GetDescriptor+0x2da>
 800b44a:	6839      	ldr	r1, [r7, #0]
 800b44c:	6878      	ldr	r0, [r7, #4]
 800b44e:	f000 fa11 	bl	800b874 <USBD_CtlError>
 800b452:	7afb      	ldrb	r3, [r7, #11]
 800b454:	3301      	adds	r3, #1
 800b456:	72fb      	strb	r3, [r7, #11]
 800b458:	e021      	b.n	800b49e <USBD_GetDescriptor+0x2da>
 800b45a:	687b      	ldr	r3, [r7, #4]
 800b45c:	7c1b      	ldrb	r3, [r3, #16]
 800b45e:	2b00      	cmp	r3, #0
 800b460:	d10d      	bne.n	800b47e <USBD_GetDescriptor+0x2ba>
 800b462:	687b      	ldr	r3, [r7, #4]
 800b464:	f8d3 32b8 	ldr.w	r3, [r3, #696]	@ 0x2b8
 800b468:	6b1b      	ldr	r3, [r3, #48]	@ 0x30
 800b46a:	f107 0208 	add.w	r2, r7, #8
 800b46e:	4610      	mov	r0, r2
 800b470:	4798      	blx	r3
 800b472:	60f8      	str	r0, [r7, #12]
 800b474:	68fb      	ldr	r3, [r7, #12]
 800b476:	3301      	adds	r3, #1
 800b478:	2207      	movs	r2, #7
 800b47a:	701a      	strb	r2, [r3, #0]
 800b47c:	e00f      	b.n	800b49e <USBD_GetDescriptor+0x2da>
 800b47e:	6839      	ldr	r1, [r7, #0]
 800b480:	6878      	ldr	r0, [r7, #4]
 800b482:	f000 f9f7 	bl	800b874 <USBD_CtlError>
 800b486:	7afb      	ldrb	r3, [r7, #11]
 800b488:	3301      	adds	r3, #1
 800b48a:	72fb      	strb	r3, [r7, #11]
 800b48c:	e007      	b.n	800b49e <USBD_GetDescriptor+0x2da>
 800b48e:	6839      	ldr	r1, [r7, #0]
 800b490:	6878      	ldr	r0, [r7, #4]
 800b492:	f000 f9ef 	bl	800b874 <USBD_CtlError>
 800b496:	7afb      	ldrb	r3, [r7, #11]
 800b498:	3301      	adds	r3, #1
 800b49a:	72fb      	strb	r3, [r7, #11]
 800b49c:	bf00      	nop
 800b49e:	7afb      	ldrb	r3, [r7, #11]
 800b4a0:	2b00      	cmp	r3, #0
 800b4a2:	d11e      	bne.n	800b4e2 <USBD_GetDescriptor+0x31e>
 800b4a4:	683b      	ldr	r3, [r7, #0]
 800b4a6:	88db      	ldrh	r3, [r3, #6]
 800b4a8:	2b00      	cmp	r3, #0
 800b4aa:	d016      	beq.n	800b4da <USBD_GetDescriptor+0x316>
 800b4ac:	893b      	ldrh	r3, [r7, #8]
 800b4ae:	2b00      	cmp	r3, #0
 800b4b0:	d00e      	beq.n	800b4d0 <USBD_GetDescriptor+0x30c>
 800b4b2:	683b      	ldr	r3, [r7, #0]
 800b4b4:	88da      	ldrh	r2, [r3, #6]
 800b4b6:	893b      	ldrh	r3, [r7, #8]
 800b4b8:	4293      	cmp	r3, r2
 800b4ba:	bf28      	it	cs
 800b4bc:	4613      	movcs	r3, r2
 800b4be:	b29b      	uxth	r3, r3
 800b4c0:	813b      	strh	r3, [r7, #8]
 800b4c2:	893b      	ldrh	r3, [r7, #8]
 800b4c4:	461a      	mov	r2, r3
 800b4c6:	68f9      	ldr	r1, [r7, #12]
 800b4c8:	6878      	ldr	r0, [r7, #4]
 800b4ca:	f000 fa44 	bl	800b956 <USBD_CtlSendData>
 800b4ce:	e009      	b.n	800b4e4 <USBD_GetDescriptor+0x320>
 800b4d0:	6839      	ldr	r1, [r7, #0]
 800b4d2:	6878      	ldr	r0, [r7, #4]
 800b4d4:	f000 f9ce 	bl	800b874 <USBD_CtlError>
 800b4d8:	e004      	b.n	800b4e4 <USBD_GetDescriptor+0x320>
 800b4da:	6878      	ldr	r0, [r7, #4]
 800b4dc:	f000 fa95 	bl	800ba0a <USBD_CtlSendStatus>
 800b4e0:	e000      	b.n	800b4e4 <USBD_GetDescriptor+0x320>
 800b4e2:	bf00      	nop
 800b4e4:	3710      	adds	r7, #16
 800b4e6:	46bd      	mov	sp, r7
 800b4e8:	bd80      	pop	{r7, pc}
 800b4ea:	bf00      	nop

0800b4ec <USBD_SetAddress>:
 800b4ec:	b580      	push	{r7, lr}
 800b4ee:	b084      	sub	sp, #16
 800b4f0:	af00      	add	r7, sp, #0
 800b4f2:	6078      	str	r0, [r7, #4]
 800b4f4:	6039      	str	r1, [r7, #0]
 800b4f6:	683b      	ldr	r3, [r7, #0]
 800b4f8:	889b      	ldrh	r3, [r3, #4]
 800b4fa:	2b00      	cmp	r3, #0
 800b4fc:	d131      	bne.n	800b562 <USBD_SetAddress+0x76>
 800b4fe:	683b      	ldr	r3, [r7, #0]
 800b500:	88db      	ldrh	r3, [r3, #6]
 800b502:	2b00      	cmp	r3, #0
 800b504:	d12d      	bne.n	800b562 <USBD_SetAddress+0x76>
 800b506:	683b      	ldr	r3, [r7, #0]
 800b508:	885b      	ldrh	r3, [r3, #2]
 800b50a:	2b7f      	cmp	r3, #127	@ 0x7f
 800b50c:	d829      	bhi.n	800b562 <USBD_SetAddress+0x76>
 800b50e:	683b      	ldr	r3, [r7, #0]
 800b510:	885b      	ldrh	r3, [r3, #2]
 800b512:	b2db      	uxtb	r3, r3
 800b514:	f003 037f 	and.w	r3, r3, #127	@ 0x7f
 800b518:	73fb      	strb	r3, [r7, #15]
 800b51a:	687b      	ldr	r3, [r7, #4]
 800b51c:	f893 329c 	ldrb.w	r3, [r3, #668]	@ 0x29c
 800b520:	b2db      	uxtb	r3, r3
 800b522:	2b03      	cmp	r3, #3
 800b524:	d104      	bne.n	800b530 <USBD_SetAddress+0x44>
 800b526:	6839      	ldr	r1, [r7, #0]
 800b528:	6878      	ldr	r0, [r7, #4]
 800b52a:	f000 f9a3 	bl	800b874 <USBD_CtlError>
 800b52e:	e01d      	b.n	800b56c <USBD_SetAddress+0x80>
 800b530:	687b      	ldr	r3, [r7, #4]
 800b532:	7bfa      	ldrb	r2, [r7, #15]
 800b534:	f883 229e 	strb.w	r2, [r3, #670]	@ 0x29e
 800b538:	7bfb      	ldrb	r3, [r7, #15]
 800b53a:	4619      	mov	r1, r3
 800b53c:	6878      	ldr	r0, [r7, #4]
 800b53e:	f000 fe91 	bl	800c264 <USBD_LL_SetUSBAddress>
 800b542:	6878      	ldr	r0, [r7, #4]
 800b544:	f000 fa61 	bl	800ba0a <USBD_CtlSendStatus>
 800b548:	7bfb      	ldrb	r3, [r7, #15]
 800b54a:	2b00      	cmp	r3, #0
 800b54c:	d004      	beq.n	800b558 <USBD_SetAddress+0x6c>
 800b54e:	687b      	ldr	r3, [r7, #4]
 800b550:	2202      	movs	r2, #2
 800b552:	f883 229c 	strb.w	r2, [r3, #668]	@ 0x29c
 800b556:	e009      	b.n	800b56c <USBD_SetAddress+0x80>
 800b558:	687b      	ldr	r3, [r7, #4]
 800b55a:	2201      	movs	r2, #1
 800b55c:	f883 229c 	strb.w	r2, [r3, #668]	@ 0x29c
 800b560:	e004      	b.n	800b56c <USBD_SetAddress+0x80>
 800b562:	6839      	ldr	r1, [r7, #0]
 800b564:	6878      	ldr	r0, [r7, #4]
 800b566:	f000 f985 	bl	800b874 <USBD_CtlError>
 800b56a:	bf00      	nop
 800b56c:	bf00      	nop
 800b56e:	3710      	adds	r7, #16
 800b570:	46bd      	mov	sp, r7
 800b572:	bd80      	pop	{r7, pc}

0800b574 <USBD_SetConfig>:
 800b574:	b580      	push	{r7, lr}
 800b576:	b084      	sub	sp, #16
 800b578:	af00      	add	r7, sp, #0
 800b57a:	6078      	str	r0, [r7, #4]
 800b57c:	6039      	str	r1, [r7, #0]
 800b57e:	2300      	movs	r3, #0
 800b580:	73fb      	strb	r3, [r7, #15]
 800b582:	683b      	ldr	r3, [r7, #0]
 800b584:	885b      	ldrh	r3, [r3, #2]
 800b586:	b2da      	uxtb	r2, r3
 800b588:	4b4c      	ldr	r3, [pc, #304]	@ (800b6bc <USBD_SetConfig+0x148>)
 800b58a:	701a      	strb	r2, [r3, #0]
 800b58c:	4b4b      	ldr	r3, [pc, #300]	@ (800b6bc <USBD_SetConfig+0x148>)
 800b58e:	781b      	ldrb	r3, [r3, #0]
 800b590:	2b01      	cmp	r3, #1
 800b592:	d905      	bls.n	800b5a0 <USBD_SetConfig+0x2c>
 800b594:	6839      	ldr	r1, [r7, #0]
 800b596:	6878      	ldr	r0, [r7, #4]
 800b598:	f000 f96c 	bl	800b874 <USBD_CtlError>
 800b59c:	2303      	movs	r3, #3
 800b59e:	e088      	b.n	800b6b2 <USBD_SetConfig+0x13e>
 800b5a0:	687b      	ldr	r3, [r7, #4]
 800b5a2:	f893 329c 	ldrb.w	r3, [r3, #668]	@ 0x29c
 800b5a6:	b2db      	uxtb	r3, r3
 800b5a8:	2b02      	cmp	r3, #2
 800b5aa:	d002      	beq.n	800b5b2 <USBD_SetConfig+0x3e>
 800b5ac:	2b03      	cmp	r3, #3
 800b5ae:	d025      	beq.n	800b5fc <USBD_SetConfig+0x88>
 800b5b0:	e071      	b.n	800b696 <USBD_SetConfig+0x122>
 800b5b2:	4b42      	ldr	r3, [pc, #264]	@ (800b6bc <USBD_SetConfig+0x148>)
 800b5b4:	781b      	ldrb	r3, [r3, #0]
 800b5b6:	2b00      	cmp	r3, #0
 800b5b8:	d01c      	beq.n	800b5f4 <USBD_SetConfig+0x80>
 800b5ba:	4b40      	ldr	r3, [pc, #256]	@ (800b6bc <USBD_SetConfig+0x148>)
 800b5bc:	781b      	ldrb	r3, [r3, #0]
 800b5be:	461a      	mov	r2, r3
 800b5c0:	687b      	ldr	r3, [r7, #4]
 800b5c2:	605a      	str	r2, [r3, #4]
 800b5c4:	4b3d      	ldr	r3, [pc, #244]	@ (800b6bc <USBD_SetConfig+0x148>)
 800b5c6:	781b      	ldrb	r3, [r3, #0]
 800b5c8:	4619      	mov	r1, r3
 800b5ca:	6878      	ldr	r0, [r7, #4]
 800b5cc:	f7ff f990 	bl	800a8f0 <USBD_SetClassConfig>
 800b5d0:	4603      	mov	r3, r0
 800b5d2:	73fb      	strb	r3, [r7, #15]
 800b5d4:	7bfb      	ldrb	r3, [r7, #15]
 800b5d6:	2b00      	cmp	r3, #0
 800b5d8:	d004      	beq.n	800b5e4 <USBD_SetConfig+0x70>
 800b5da:	6839      	ldr	r1, [r7, #0]
 800b5dc:	6878      	ldr	r0, [r7, #4]
 800b5de:	f000 f949 	bl	800b874 <USBD_CtlError>
 800b5e2:	e065      	b.n	800b6b0 <USBD_SetConfig+0x13c>
 800b5e4:	6878      	ldr	r0, [r7, #4]
 800b5e6:	f000 fa10 	bl	800ba0a <USBD_CtlSendStatus>
 800b5ea:	687b      	ldr	r3, [r7, #4]
 800b5ec:	2203      	movs	r2, #3
 800b5ee:	f883 229c 	strb.w	r2, [r3, #668]	@ 0x29c
 800b5f2:	e05d      	b.n	800b6b0 <USBD_SetConfig+0x13c>
 800b5f4:	6878      	ldr	r0, [r7, #4]
 800b5f6:	f000 fa08 	bl	800ba0a <USBD_CtlSendStatus>
 800b5fa:	e059      	b.n	800b6b0 <USBD_SetConfig+0x13c>
 800b5fc:	4b2f      	ldr	r3, [pc, #188]	@ (800b6bc <USBD_SetConfig+0x148>)
 800b5fe:	781b      	ldrb	r3, [r3, #0]
 800b600:	2b00      	cmp	r3, #0
 800b602:	d112      	bne.n	800b62a <USBD_SetConfig+0xb6>
 800b604:	687b      	ldr	r3, [r7, #4]
 800b606:	2202      	movs	r2, #2
 800b608:	f883 229c 	strb.w	r2, [r3, #668]	@ 0x29c
 800b60c:	4b2b      	ldr	r3, [pc, #172]	@ (800b6bc <USBD_SetConfig+0x148>)
 800b60e:	781b      	ldrb	r3, [r3, #0]
 800b610:	461a      	mov	r2, r3
 800b612:	687b      	ldr	r3, [r7, #4]
 800b614:	605a      	str	r2, [r3, #4]
 800b616:	4b29      	ldr	r3, [pc, #164]	@ (800b6bc <USBD_SetConfig+0x148>)
 800b618:	781b      	ldrb	r3, [r3, #0]
 800b61a:	4619      	mov	r1, r3
 800b61c:	6878      	ldr	r0, [r7, #4]
 800b61e:	f7ff f983 	bl	800a928 <USBD_ClrClassConfig>
 800b622:	6878      	ldr	r0, [r7, #4]
 800b624:	f000 f9f1 	bl	800ba0a <USBD_CtlSendStatus>
 800b628:	e042      	b.n	800b6b0 <USBD_SetConfig+0x13c>
 800b62a:	4b24      	ldr	r3, [pc, #144]	@ (800b6bc <USBD_SetConfig+0x148>)
 800b62c:	781b      	ldrb	r3, [r3, #0]
 800b62e:	461a      	mov	r2, r3
 800b630:	687b      	ldr	r3, [r7, #4]
 800b632:	685b      	ldr	r3, [r3, #4]
 800b634:	429a      	cmp	r2, r3
 800b636:	d02a      	beq.n	800b68e <USBD_SetConfig+0x11a>
 800b638:	687b      	ldr	r3, [r7, #4]
 800b63a:	685b      	ldr	r3, [r3, #4]
 800b63c:	b2db      	uxtb	r3, r3
 800b63e:	4619      	mov	r1, r3
 800b640:	6878      	ldr	r0, [r7, #4]
 800b642:	f7ff f971 	bl	800a928 <USBD_ClrClassConfig>
 800b646:	4b1d      	ldr	r3, [pc, #116]	@ (800b6bc <USBD_SetConfig+0x148>)
 800b648:	781b      	ldrb	r3, [r3, #0]
 800b64a:	461a      	mov	r2, r3
 800b64c:	687b      	ldr	r3, [r7, #4]
 800b64e:	605a      	str	r2, [r3, #4]
 800b650:	4b1a      	ldr	r3, [pc, #104]	@ (800b6bc <USBD_SetConfig+0x148>)
 800b652:	781b      	ldrb	r3, [r3, #0]
 800b654:	4619      	mov	r1, r3
 800b656:	6878      	ldr	r0, [r7, #4]
 800b658:	f7ff f94a 	bl	800a8f0 <USBD_SetClassConfig>
 800b65c:	4603      	mov	r3, r0
 800b65e:	73fb      	strb	r3, [r7, #15]
 800b660:	7bfb      	ldrb	r3, [r7, #15]
 800b662:	2b00      	cmp	r3, #0
 800b664:	d00f      	beq.n	800b686 <USBD_SetConfig+0x112>
 800b666:	6839      	ldr	r1, [r7, #0]
 800b668:	6878      	ldr	r0, [r7, #4]
 800b66a:	f000 f903 	bl	800b874 <USBD_CtlError>
 800b66e:	687b      	ldr	r3, [r7, #4]
 800b670:	685b      	ldr	r3, [r3, #4]
 800b672:	b2db      	uxtb	r3, r3
 800b674:	4619      	mov	r1, r3
 800b676:	6878      	ldr	r0, [r7, #4]
 800b678:	f7ff f956 	bl	800a928 <USBD_ClrClassConfig>
 800b67c:	687b      	ldr	r3, [r7, #4]
 800b67e:	2202      	movs	r2, #2
 800b680:	f883 229c 	strb.w	r2, [r3, #668]	@ 0x29c
 800b684:	e014      	b.n	800b6b0 <USBD_SetConfig+0x13c>
 800b686:	6878      	ldr	r0, [r7, #4]
 800b688:	f000 f9bf 	bl	800ba0a <USBD_CtlSendStatus>
 800b68c:	e010      	b.n	800b6b0 <USBD_SetConfig+0x13c>
 800b68e:	6878      	ldr	r0, [r7, #4]
 800b690:	f000 f9bb 	bl	800ba0a <USBD_CtlSendStatus>
 800b694:	e00c      	b.n	800b6b0 <USBD_SetConfig+0x13c>
 800b696:	6839      	ldr	r1, [r7, #0]
 800b698:	6878      	ldr	r0, [r7, #4]
 800b69a:	f000 f8eb 	bl	800b874 <USBD_CtlError>
 800b69e:	4b07      	ldr	r3, [pc, #28]	@ (800b6bc <USBD_SetConfig+0x148>)
 800b6a0:	781b      	ldrb	r3, [r3, #0]
 800b6a2:	4619      	mov	r1, r3
 800b6a4:	6878      	ldr	r0, [r7, #4]
 800b6a6:	f7ff f93f 	bl	800a928 <USBD_ClrClassConfig>
 800b6aa:	2303      	movs	r3, #3
 800b6ac:	73fb      	strb	r3, [r7, #15]
 800b6ae:	bf00      	nop
 800b6b0:	7bfb      	ldrb	r3, [r7, #15]
 800b6b2:	4618      	mov	r0, r3
 800b6b4:	3710      	adds	r7, #16
 800b6b6:	46bd      	mov	sp, r7
 800b6b8:	bd80      	pop	{r7, pc}
 800b6ba:	bf00      	nop
 800b6bc:	2000054c 	.word	0x2000054c

0800b6c0 <USBD_GetConfig>:
 800b6c0:	b580      	push	{r7, lr}
 800b6c2:	b082      	sub	sp, #8
 800b6c4:	af00      	add	r7, sp, #0
 800b6c6:	6078      	str	r0, [r7, #4]
 800b6c8:	6039      	str	r1, [r7, #0]
 800b6ca:	683b      	ldr	r3, [r7, #0]
 800b6cc:	88db      	ldrh	r3, [r3, #6]
 800b6ce:	2b01      	cmp	r3, #1
 800b6d0:	d004      	beq.n	800b6dc <USBD_GetConfig+0x1c>
 800b6d2:	6839      	ldr	r1, [r7, #0]
 800b6d4:	6878      	ldr	r0, [r7, #4]
 800b6d6:	f000 f8cd 	bl	800b874 <USBD_CtlError>
 800b6da:	e023      	b.n	800b724 <USBD_GetConfig+0x64>
 800b6dc:	687b      	ldr	r3, [r7, #4]
 800b6de:	f893 329c 	ldrb.w	r3, [r3, #668]	@ 0x29c
 800b6e2:	b2db      	uxtb	r3, r3
 800b6e4:	2b02      	cmp	r3, #2
 800b6e6:	dc02      	bgt.n	800b6ee <USBD_GetConfig+0x2e>
 800b6e8:	2b00      	cmp	r3, #0
 800b6ea:	dc03      	bgt.n	800b6f4 <USBD_GetConfig+0x34>
 800b6ec:	e015      	b.n	800b71a <USBD_GetConfig+0x5a>
 800b6ee:	2b03      	cmp	r3, #3
 800b6f0:	d00b      	beq.n	800b70a <USBD_GetConfig+0x4a>
 800b6f2:	e012      	b.n	800b71a <USBD_GetConfig+0x5a>
 800b6f4:	687b      	ldr	r3, [r7, #4]
 800b6f6:	2200      	movs	r2, #0
 800b6f8:	609a      	str	r2, [r3, #8]
 800b6fa:	687b      	ldr	r3, [r7, #4]
 800b6fc:	3308      	adds	r3, #8
 800b6fe:	2201      	movs	r2, #1
 800b700:	4619      	mov	r1, r3
 800b702:	6878      	ldr	r0, [r7, #4]
 800b704:	f000 f927 	bl	800b956 <USBD_CtlSendData>
 800b708:	e00c      	b.n	800b724 <USBD_GetConfig+0x64>
 800b70a:	687b      	ldr	r3, [r7, #4]
 800b70c:	3304      	adds	r3, #4
 800b70e:	2201      	movs	r2, #1
 800b710:	4619      	mov	r1, r3
 800b712:	6878      	ldr	r0, [r7, #4]
 800b714:	f000 f91f 	bl	800b956 <USBD_CtlSendData>
 800b718:	e004      	b.n	800b724 <USBD_GetConfig+0x64>
 800b71a:	6839      	ldr	r1, [r7, #0]
 800b71c:	6878      	ldr	r0, [r7, #4]
 800b71e:	f000 f8a9 	bl	800b874 <USBD_CtlError>
 800b722:	bf00      	nop
 800b724:	bf00      	nop
 800b726:	3708      	adds	r7, #8
 800b728:	46bd      	mov	sp, r7
 800b72a:	bd80      	pop	{r7, pc}

0800b72c <USBD_GetStatus>:
 800b72c:	b580      	push	{r7, lr}
 800b72e:	b082      	sub	sp, #8
 800b730:	af00      	add	r7, sp, #0
 800b732:	6078      	str	r0, [r7, #4]
 800b734:	6039      	str	r1, [r7, #0]
 800b736:	687b      	ldr	r3, [r7, #4]
 800b738:	f893 329c 	ldrb.w	r3, [r3, #668]	@ 0x29c
 800b73c:	b2db      	uxtb	r3, r3
 800b73e:	3b01      	subs	r3, #1
 800b740:	2b02      	cmp	r3, #2
 800b742:	d81e      	bhi.n	800b782 <USBD_GetStatus+0x56>
 800b744:	683b      	ldr	r3, [r7, #0]
 800b746:	88db      	ldrh	r3, [r3, #6]
 800b748:	2b02      	cmp	r3, #2
 800b74a:	d004      	beq.n	800b756 <USBD_GetStatus+0x2a>
 800b74c:	6839      	ldr	r1, [r7, #0]
 800b74e:	6878      	ldr	r0, [r7, #4]
 800b750:	f000 f890 	bl	800b874 <USBD_CtlError>
 800b754:	e01a      	b.n	800b78c <USBD_GetStatus+0x60>
 800b756:	687b      	ldr	r3, [r7, #4]
 800b758:	2201      	movs	r2, #1
 800b75a:	60da      	str	r2, [r3, #12]
 800b75c:	687b      	ldr	r3, [r7, #4]
 800b75e:	f8d3 32a4 	ldr.w	r3, [r3, #676]	@ 0x2a4
 800b762:	2b00      	cmp	r3, #0
 800b764:	d005      	beq.n	800b772 <USBD_GetStatus+0x46>
 800b766:	687b      	ldr	r3, [r7, #4]
 800b768:	68db      	ldr	r3, [r3, #12]
 800b76a:	f043 0202 	orr.w	r2, r3, #2
 800b76e:	687b      	ldr	r3, [r7, #4]
 800b770:	60da      	str	r2, [r3, #12]
 800b772:	687b      	ldr	r3, [r7, #4]
 800b774:	330c      	adds	r3, #12
 800b776:	2202      	movs	r2, #2
 800b778:	4619      	mov	r1, r3
 800b77a:	6878      	ldr	r0, [r7, #4]
 800b77c:	f000 f8eb 	bl	800b956 <USBD_CtlSendData>
 800b780:	e004      	b.n	800b78c <USBD_GetStatus+0x60>
 800b782:	6839      	ldr	r1, [r7, #0]
 800b784:	6878      	ldr	r0, [r7, #4]
 800b786:	f000 f875 	bl	800b874 <USBD_CtlError>
 800b78a:	bf00      	nop
 800b78c:	bf00      	nop
 800b78e:	3708      	adds	r7, #8
 800b790:	46bd      	mov	sp, r7
 800b792:	bd80      	pop	{r7, pc}

0800b794 <USBD_SetFeature>:
 800b794:	b580      	push	{r7, lr}
 800b796:	b082      	sub	sp, #8
 800b798:	af00      	add	r7, sp, #0
 800b79a:	6078      	str	r0, [r7, #4]
 800b79c:	6039      	str	r1, [r7, #0]
 800b79e:	683b      	ldr	r3, [r7, #0]
 800b7a0:	885b      	ldrh	r3, [r3, #2]
 800b7a2:	2b01      	cmp	r3, #1
 800b7a4:	d106      	bne.n	800b7b4 <USBD_SetFeature+0x20>
 800b7a6:	687b      	ldr	r3, [r7, #4]
 800b7a8:	2201      	movs	r2, #1
 800b7aa:	f8c3 22a4 	str.w	r2, [r3, #676]	@ 0x2a4
 800b7ae:	6878      	ldr	r0, [r7, #4]
 800b7b0:	f000 f92b 	bl	800ba0a <USBD_CtlSendStatus>
 800b7b4:	bf00      	nop
 800b7b6:	3708      	adds	r7, #8
 800b7b8:	46bd      	mov	sp, r7
 800b7ba:	bd80      	pop	{r7, pc}

0800b7bc <USBD_ClrFeature>:
 800b7bc:	b580      	push	{r7, lr}
 800b7be:	b082      	sub	sp, #8
 800b7c0:	af00      	add	r7, sp, #0
 800b7c2:	6078      	str	r0, [r7, #4]
 800b7c4:	6039      	str	r1, [r7, #0]
 800b7c6:	687b      	ldr	r3, [r7, #4]
 800b7c8:	f893 329c 	ldrb.w	r3, [r3, #668]	@ 0x29c
 800b7cc:	b2db      	uxtb	r3, r3
 800b7ce:	3b01      	subs	r3, #1
 800b7d0:	2b02      	cmp	r3, #2
 800b7d2:	d80b      	bhi.n	800b7ec <USBD_ClrFeature+0x30>
 800b7d4:	683b      	ldr	r3, [r7, #0]
 800b7d6:	885b      	ldrh	r3, [r3, #2]
 800b7d8:	2b01      	cmp	r3, #1
 800b7da:	d10c      	bne.n	800b7f6 <USBD_ClrFeature+0x3a>
 800b7dc:	687b      	ldr	r3, [r7, #4]
 800b7de:	2200      	movs	r2, #0
 800b7e0:	f8c3 22a4 	str.w	r2, [r3, #676]	@ 0x2a4
 800b7e4:	6878      	ldr	r0, [r7, #4]
 800b7e6:	f000 f910 	bl	800ba0a <USBD_CtlSendStatus>
 800b7ea:	e004      	b.n	800b7f6 <USBD_ClrFeature+0x3a>
 800b7ec:	6839      	ldr	r1, [r7, #0]
 800b7ee:	6878      	ldr	r0, [r7, #4]
 800b7f0:	f000 f840 	bl	800b874 <USBD_CtlError>
 800b7f4:	e000      	b.n	800b7f8 <USBD_ClrFeature+0x3c>
 800b7f6:	bf00      	nop
 800b7f8:	bf00      	nop
 800b7fa:	3708      	adds	r7, #8
 800b7fc:	46bd      	mov	sp, r7
 800b7fe:	bd80      	pop	{r7, pc}

0800b800 <USBD_ParseSetupRequest>:
 800b800:	b580      	push	{r7, lr}
 800b802:	b084      	sub	sp, #16
 800b804:	af00      	add	r7, sp, #0
 800b806:	6078      	str	r0, [r7, #4]
 800b808:	6039      	str	r1, [r7, #0]
 800b80a:	683b      	ldr	r3, [r7, #0]
 800b80c:	60fb      	str	r3, [r7, #12]
 800b80e:	68fb      	ldr	r3, [r7, #12]
 800b810:	781a      	ldrb	r2, [r3, #0]
 800b812:	687b      	ldr	r3, [r7, #4]
 800b814:	701a      	strb	r2, [r3, #0]
 800b816:	68fb      	ldr	r3, [r7, #12]
 800b818:	3301      	adds	r3, #1
 800b81a:	60fb      	str	r3, [r7, #12]
 800b81c:	68fb      	ldr	r3, [r7, #12]
 800b81e:	781a      	ldrb	r2, [r3, #0]
 800b820:	687b      	ldr	r3, [r7, #4]
 800b822:	705a      	strb	r2, [r3, #1]
 800b824:	68fb      	ldr	r3, [r7, #12]
 800b826:	3301      	adds	r3, #1
 800b828:	60fb      	str	r3, [r7, #12]
 800b82a:	68f8      	ldr	r0, [r7, #12]
 800b82c:	f7ff fa90 	bl	800ad50 <SWAPBYTE>
 800b830:	4603      	mov	r3, r0
 800b832:	461a      	mov	r2, r3
 800b834:	687b      	ldr	r3, [r7, #4]
 800b836:	805a      	strh	r2, [r3, #2]
 800b838:	68fb      	ldr	r3, [r7, #12]
 800b83a:	3301      	adds	r3, #1
 800b83c:	60fb      	str	r3, [r7, #12]
 800b83e:	68fb      	ldr	r3, [r7, #12]
 800b840:	3301      	adds	r3, #1
 800b842:	60fb      	str	r3, [r7, #12]
 800b844:	68f8      	ldr	r0, [r7, #12]
 800b846:	f7ff fa83 	bl	800ad50 <SWAPBYTE>
 800b84a:	4603      	mov	r3, r0
 800b84c:	461a      	mov	r2, r3
 800b84e:	687b      	ldr	r3, [r7, #4]
 800b850:	809a      	strh	r2, [r3, #4]
 800b852:	68fb      	ldr	r3, [r7, #12]
 800b854:	3301      	adds	r3, #1
 800b856:	60fb      	str	r3, [r7, #12]
 800b858:	68fb      	ldr	r3, [r7, #12]
 800b85a:	3301      	adds	r3, #1
 800b85c:	60fb      	str	r3, [r7, #12]
 800b85e:	68f8      	ldr	r0, [r7, #12]
 800b860:	f7ff fa76 	bl	800ad50 <SWAPBYTE>
 800b864:	4603      	mov	r3, r0
 800b866:	461a      	mov	r2, r3
 800b868:	687b      	ldr	r3, [r7, #4]
 800b86a:	80da      	strh	r2, [r3, #6]
 800b86c:	bf00      	nop
 800b86e:	3710      	adds	r7, #16
 800b870:	46bd      	mov	sp, r7
 800b872:	bd80      	pop	{r7, pc}

0800b874 <USBD_CtlError>:
 800b874:	b580      	push	{r7, lr}
 800b876:	b082      	sub	sp, #8
 800b878:	af00      	add	r7, sp, #0
 800b87a:	6078      	str	r0, [r7, #4]
 800b87c:	6039      	str	r1, [r7, #0]
 800b87e:	2180      	movs	r1, #128	@ 0x80
 800b880:	6878      	ldr	r0, [r7, #4]
 800b882:	f000 fc85 	bl	800c190 <USBD_LL_StallEP>
 800b886:	2100      	movs	r1, #0
 800b888:	6878      	ldr	r0, [r7, #4]
 800b88a:	f000 fc81 	bl	800c190 <USBD_LL_StallEP>
 800b88e:	bf00      	nop
 800b890:	3708      	adds	r7, #8
 800b892:	46bd      	mov	sp, r7
 800b894:	bd80      	pop	{r7, pc}

0800b896 <USBD_GetString>:
 800b896:	b580      	push	{r7, lr}
 800b898:	b086      	sub	sp, #24
 800b89a:	af00      	add	r7, sp, #0
 800b89c:	60f8      	str	r0, [r7, #12]
 800b89e:	60b9      	str	r1, [r7, #8]
 800b8a0:	607a      	str	r2, [r7, #4]
 800b8a2:	2300      	movs	r3, #0
 800b8a4:	75fb      	strb	r3, [r7, #23]
 800b8a6:	68fb      	ldr	r3, [r7, #12]
 800b8a8:	2b00      	cmp	r3, #0
 800b8aa:	d036      	beq.n	800b91a <USBD_GetString+0x84>
 800b8ac:	68fb      	ldr	r3, [r7, #12]
 800b8ae:	613b      	str	r3, [r7, #16]
 800b8b0:	6938      	ldr	r0, [r7, #16]
 800b8b2:	f000 f836 	bl	800b922 <USBD_GetLen>
 800b8b6:	4603      	mov	r3, r0
 800b8b8:	3301      	adds	r3, #1
 800b8ba:	b29b      	uxth	r3, r3
 800b8bc:	005b      	lsls	r3, r3, #1
 800b8be:	b29a      	uxth	r2, r3
 800b8c0:	687b      	ldr	r3, [r7, #4]
 800b8c2:	801a      	strh	r2, [r3, #0]
 800b8c4:	7dfb      	ldrb	r3, [r7, #23]
 800b8c6:	68ba      	ldr	r2, [r7, #8]
 800b8c8:	4413      	add	r3, r2
 800b8ca:	687a      	ldr	r2, [r7, #4]
 800b8cc:	7812      	ldrb	r2, [r2, #0]
 800b8ce:	701a      	strb	r2, [r3, #0]
 800b8d0:	7dfb      	ldrb	r3, [r7, #23]
 800b8d2:	3301      	adds	r3, #1
 800b8d4:	75fb      	strb	r3, [r7, #23]
 800b8d6:	7dfb      	ldrb	r3, [r7, #23]
 800b8d8:	68ba      	ldr	r2, [r7, #8]
 800b8da:	4413      	add	r3, r2
 800b8dc:	2203      	movs	r2, #3
 800b8de:	701a      	strb	r2, [r3, #0]
 800b8e0:	7dfb      	ldrb	r3, [r7, #23]
 800b8e2:	3301      	adds	r3, #1
 800b8e4:	75fb      	strb	r3, [r7, #23]
 800b8e6:	e013      	b.n	800b910 <USBD_GetString+0x7a>
 800b8e8:	7dfb      	ldrb	r3, [r7, #23]
 800b8ea:	68ba      	ldr	r2, [r7, #8]
 800b8ec:	4413      	add	r3, r2
 800b8ee:	693a      	ldr	r2, [r7, #16]
 800b8f0:	7812      	ldrb	r2, [r2, #0]
 800b8f2:	701a      	strb	r2, [r3, #0]
 800b8f4:	693b      	ldr	r3, [r7, #16]
 800b8f6:	3301      	adds	r3, #1
 800b8f8:	613b      	str	r3, [r7, #16]
 800b8fa:	7dfb      	ldrb	r3, [r7, #23]
 800b8fc:	3301      	adds	r3, #1
 800b8fe:	75fb      	strb	r3, [r7, #23]
 800b900:	7dfb      	ldrb	r3, [r7, #23]
 800b902:	68ba      	ldr	r2, [r7, #8]
 800b904:	4413      	add	r3, r2
 800b906:	2200      	movs	r2, #0
 800b908:	701a      	strb	r2, [r3, #0]
 800b90a:	7dfb      	ldrb	r3, [r7, #23]
 800b90c:	3301      	adds	r3, #1
 800b90e:	75fb      	strb	r3, [r7, #23]
 800b910:	693b      	ldr	r3, [r7, #16]
 800b912:	781b      	ldrb	r3, [r3, #0]
 800b914:	2b00      	cmp	r3, #0
 800b916:	d1e7      	bne.n	800b8e8 <USBD_GetString+0x52>
 800b918:	e000      	b.n	800b91c <USBD_GetString+0x86>
 800b91a:	bf00      	nop
 800b91c:	3718      	adds	r7, #24
 800b91e:	46bd      	mov	sp, r7
 800b920:	bd80      	pop	{r7, pc}

0800b922 <USBD_GetLen>:
 800b922:	b480      	push	{r7}
 800b924:	b085      	sub	sp, #20
 800b926:	af00      	add	r7, sp, #0
 800b928:	6078      	str	r0, [r7, #4]
 800b92a:	2300      	movs	r3, #0
 800b92c:	73fb      	strb	r3, [r7, #15]
 800b92e:	687b      	ldr	r3, [r7, #4]
 800b930:	60bb      	str	r3, [r7, #8]
 800b932:	e005      	b.n	800b940 <USBD_GetLen+0x1e>
 800b934:	7bfb      	ldrb	r3, [r7, #15]
 800b936:	3301      	adds	r3, #1
 800b938:	73fb      	strb	r3, [r7, #15]
 800b93a:	68bb      	ldr	r3, [r7, #8]
 800b93c:	3301      	adds	r3, #1
 800b93e:	60bb      	str	r3, [r7, #8]
 800b940:	68bb      	ldr	r3, [r7, #8]
 800b942:	781b      	ldrb	r3, [r3, #0]
 800b944:	2b00      	cmp	r3, #0
 800b946:	d1f5      	bne.n	800b934 <USBD_GetLen+0x12>
 800b948:	7bfb      	ldrb	r3, [r7, #15]
 800b94a:	4618      	mov	r0, r3
 800b94c:	3714      	adds	r7, #20
 800b94e:	46bd      	mov	sp, r7
 800b950:	f85d 7b04 	ldr.w	r7, [sp], #4
 800b954:	4770      	bx	lr

0800b956 <USBD_CtlSendData>:
 800b956:	b580      	push	{r7, lr}
 800b958:	b084      	sub	sp, #16
 800b95a:	af00      	add	r7, sp, #0
 800b95c:	60f8      	str	r0, [r7, #12]
 800b95e:	60b9      	str	r1, [r7, #8]
 800b960:	607a      	str	r2, [r7, #4]
 800b962:	68fb      	ldr	r3, [r7, #12]
 800b964:	2202      	movs	r2, #2
 800b966:	f8c3 2294 	str.w	r2, [r3, #660]	@ 0x294
 800b96a:	68fb      	ldr	r3, [r7, #12]
 800b96c:	687a      	ldr	r2, [r7, #4]
 800b96e:	619a      	str	r2, [r3, #24]
 800b970:	68fb      	ldr	r3, [r7, #12]
 800b972:	687a      	ldr	r2, [r7, #4]
 800b974:	61da      	str	r2, [r3, #28]
 800b976:	687b      	ldr	r3, [r7, #4]
 800b978:	68ba      	ldr	r2, [r7, #8]
 800b97a:	2100      	movs	r1, #0
 800b97c:	68f8      	ldr	r0, [r7, #12]
 800b97e:	f000 fc90 	bl	800c2a2 <USBD_LL_Transmit>
 800b982:	2300      	movs	r3, #0
 800b984:	4618      	mov	r0, r3
 800b986:	3710      	adds	r7, #16
 800b988:	46bd      	mov	sp, r7
 800b98a:	bd80      	pop	{r7, pc}

0800b98c <USBD_CtlContinueSendData>:
 800b98c:	b580      	push	{r7, lr}
 800b98e:	b084      	sub	sp, #16
 800b990:	af00      	add	r7, sp, #0
 800b992:	60f8      	str	r0, [r7, #12]
 800b994:	60b9      	str	r1, [r7, #8]
 800b996:	607a      	str	r2, [r7, #4]
 800b998:	687b      	ldr	r3, [r7, #4]
 800b99a:	68ba      	ldr	r2, [r7, #8]
 800b99c:	2100      	movs	r1, #0
 800b99e:	68f8      	ldr	r0, [r7, #12]
 800b9a0:	f000 fc7f 	bl	800c2a2 <USBD_LL_Transmit>
 800b9a4:	2300      	movs	r3, #0
 800b9a6:	4618      	mov	r0, r3
 800b9a8:	3710      	adds	r7, #16
 800b9aa:	46bd      	mov	sp, r7
 800b9ac:	bd80      	pop	{r7, pc}

0800b9ae <USBD_CtlPrepareRx>:
 800b9ae:	b580      	push	{r7, lr}
 800b9b0:	b084      	sub	sp, #16
 800b9b2:	af00      	add	r7, sp, #0
 800b9b4:	60f8      	str	r0, [r7, #12]
 800b9b6:	60b9      	str	r1, [r7, #8]
 800b9b8:	607a      	str	r2, [r7, #4]
 800b9ba:	68fb      	ldr	r3, [r7, #12]
 800b9bc:	2203      	movs	r2, #3
 800b9be:	f8c3 2294 	str.w	r2, [r3, #660]	@ 0x294
 800b9c2:	68fb      	ldr	r3, [r7, #12]
 800b9c4:	687a      	ldr	r2, [r7, #4]
 800b9c6:	f8c3 2158 	str.w	r2, [r3, #344]	@ 0x158
 800b9ca:	68fb      	ldr	r3, [r7, #12]
 800b9cc:	687a      	ldr	r2, [r7, #4]
 800b9ce:	f8c3 215c 	str.w	r2, [r3, #348]	@ 0x15c
 800b9d2:	687b      	ldr	r3, [r7, #4]
 800b9d4:	68ba      	ldr	r2, [r7, #8]
 800b9d6:	2100      	movs	r1, #0
 800b9d8:	68f8      	ldr	r0, [r7, #12]
 800b9da:	f000 fc83 	bl	800c2e4 <USBD_LL_PrepareReceive>
 800b9de:	2300      	movs	r3, #0
 800b9e0:	4618      	mov	r0, r3
 800b9e2:	3710      	adds	r7, #16
 800b9e4:	46bd      	mov	sp, r7
 800b9e6:	bd80      	pop	{r7, pc}

0800b9e8 <USBD_CtlContinueRx>:
 800b9e8:	b580      	push	{r7, lr}
 800b9ea:	b084      	sub	sp, #16
 800b9ec:	af00      	add	r7, sp, #0
 800b9ee:	60f8      	str	r0, [r7, #12]
 800b9f0:	60b9      	str	r1, [r7, #8]
 800b9f2:	607a      	str	r2, [r7, #4]
 800b9f4:	687b      	ldr	r3, [r7, #4]
 800b9f6:	68ba      	ldr	r2, [r7, #8]
 800b9f8:	2100      	movs	r1, #0
 800b9fa:	68f8      	ldr	r0, [r7, #12]
 800b9fc:	f000 fc72 	bl	800c2e4 <USBD_LL_PrepareReceive>
 800ba00:	2300      	movs	r3, #0
 800ba02:	4618      	mov	r0, r3
 800ba04:	3710      	adds	r7, #16
 800ba06:	46bd      	mov	sp, r7
 800ba08:	bd80      	pop	{r7, pc}

0800ba0a <USBD_CtlSendStatus>:
 800ba0a:	b580      	push	{r7, lr}
 800ba0c:	b082      	sub	sp, #8
 800ba0e:	af00      	add	r7, sp, #0
 800ba10:	6078      	str	r0, [r7, #4]
 800ba12:	687b      	ldr	r3, [r7, #4]
 800ba14:	2204      	movs	r2, #4
 800ba16:	f8c3 2294 	str.w	r2, [r3, #660]	@ 0x294
 800ba1a:	2300      	movs	r3, #0
 800ba1c:	2200      	movs	r2, #0
 800ba1e:	2100      	movs	r1, #0
 800ba20:	6878      	ldr	r0, [r7, #4]
 800ba22:	f000 fc3e 	bl	800c2a2 <USBD_LL_Transmit>
 800ba26:	2300      	movs	r3, #0
 800ba28:	4618      	mov	r0, r3
 800ba2a:	3708      	adds	r7, #8
 800ba2c:	46bd      	mov	sp, r7
 800ba2e:	bd80      	pop	{r7, pc}

0800ba30 <USBD_CtlReceiveStatus>:
 800ba30:	b580      	push	{r7, lr}
 800ba32:	b082      	sub	sp, #8
 800ba34:	af00      	add	r7, sp, #0
 800ba36:	6078      	str	r0, [r7, #4]
 800ba38:	687b      	ldr	r3, [r7, #4]
 800ba3a:	2205      	movs	r2, #5
 800ba3c:	f8c3 2294 	str.w	r2, [r3, #660]	@ 0x294
 800ba40:	2300      	movs	r3, #0
 800ba42:	2200      	movs	r2, #0
 800ba44:	2100      	movs	r1, #0
 800ba46:	6878      	ldr	r0, [r7, #4]
 800ba48:	f000 fc4c 	bl	800c2e4 <USBD_LL_PrepareReceive>
 800ba4c:	2300      	movs	r3, #0
 800ba4e:	4618      	mov	r0, r3
 800ba50:	3708      	adds	r7, #8
 800ba52:	46bd      	mov	sp, r7
 800ba54:	bd80      	pop	{r7, pc}
	...

0800ba58 <MX_USB_Device_Init>:
 800ba58:	b580      	push	{r7, lr}
 800ba5a:	af00      	add	r7, sp, #0
 800ba5c:	2200      	movs	r2, #0
 800ba5e:	4912      	ldr	r1, [pc, #72]	@ (800baa8 <MX_USB_Device_Init+0x50>)
 800ba60:	4812      	ldr	r0, [pc, #72]	@ (800baac <MX_USB_Device_Init+0x54>)
 800ba62:	f7fe fed7 	bl	800a814 <USBD_Init>
 800ba66:	4603      	mov	r3, r0
 800ba68:	2b00      	cmp	r3, #0
 800ba6a:	d001      	beq.n	800ba70 <MX_USB_Device_Init+0x18>
 800ba6c:	f7f6 f810 	bl	8001a90 <Error_Handler>
 800ba70:	490f      	ldr	r1, [pc, #60]	@ (800bab0 <MX_USB_Device_Init+0x58>)
 800ba72:	480e      	ldr	r0, [pc, #56]	@ (800baac <MX_USB_Device_Init+0x54>)
 800ba74:	f7fe fefe 	bl	800a874 <USBD_RegisterClass>
 800ba78:	4603      	mov	r3, r0
 800ba7a:	2b00      	cmp	r3, #0
 800ba7c:	d001      	beq.n	800ba82 <MX_USB_Device_Init+0x2a>
 800ba7e:	f7f6 f807 	bl	8001a90 <Error_Handler>
 800ba82:	490c      	ldr	r1, [pc, #48]	@ (800bab4 <MX_USB_Device_Init+0x5c>)
 800ba84:	4809      	ldr	r0, [pc, #36]	@ (800baac <MX_USB_Device_Init+0x54>)
 800ba86:	f7fe fe4f 	bl	800a728 <USBD_CDC_RegisterInterface>
 800ba8a:	4603      	mov	r3, r0
 800ba8c:	2b00      	cmp	r3, #0
 800ba8e:	d001      	beq.n	800ba94 <MX_USB_Device_Init+0x3c>
 800ba90:	f7f5 fffe 	bl	8001a90 <Error_Handler>
 800ba94:	4805      	ldr	r0, [pc, #20]	@ (800baac <MX_USB_Device_Init+0x54>)
 800ba96:	f7fe ff14 	bl	800a8c2 <USBD_Start>
 800ba9a:	4603      	mov	r3, r0
 800ba9c:	2b00      	cmp	r3, #0
 800ba9e:	d001      	beq.n	800baa4 <MX_USB_Device_Init+0x4c>
 800baa0:	f7f5 fff6 	bl	8001a90 <Error_Handler>
 800baa4:	bf00      	nop
 800baa6:	bd80      	pop	{r7, pc}
 800baa8:	20000160 	.word	0x20000160
 800baac:	20000550 	.word	0x20000550
 800bab0:	20000048 	.word	0x20000048
 800bab4:	2000014c 	.word	0x2000014c

0800bab8 <CDC_Init_FS>:
 800bab8:	b580      	push	{r7, lr}
 800baba:	af00      	add	r7, sp, #0
 800babc:	2200      	movs	r2, #0
 800babe:	4905      	ldr	r1, [pc, #20]	@ (800bad4 <CDC_Init_FS+0x1c>)
 800bac0:	4805      	ldr	r0, [pc, #20]	@ (800bad8 <CDC_Init_FS+0x20>)
 800bac2:	f7fe fe46 	bl	800a752 <USBD_CDC_SetTxBuffer>
 800bac6:	4905      	ldr	r1, [pc, #20]	@ (800badc <CDC_Init_FS+0x24>)
 800bac8:	4803      	ldr	r0, [pc, #12]	@ (800bad8 <CDC_Init_FS+0x20>)
 800baca:	f7fe fe60 	bl	800a78e <USBD_CDC_SetRxBuffer>
 800bace:	2300      	movs	r3, #0
 800bad0:	4618      	mov	r0, r3
 800bad2:	bd80      	pop	{r7, pc}
 800bad4:	20001020 	.word	0x20001020
 800bad8:	20000550 	.word	0x20000550
 800badc:	20000820 	.word	0x20000820

0800bae0 <CDC_DeInit_FS>:
 800bae0:	b480      	push	{r7}
 800bae2:	af00      	add	r7, sp, #0
 800bae4:	2300      	movs	r3, #0
 800bae6:	4618      	mov	r0, r3
 800bae8:	46bd      	mov	sp, r7
 800baea:	f85d 7b04 	ldr.w	r7, [sp], #4
 800baee:	4770      	bx	lr

0800baf0 <CDC_Control_FS>:
 800baf0:	b480      	push	{r7}
 800baf2:	b083      	sub	sp, #12
 800baf4:	af00      	add	r7, sp, #0
 800baf6:	4603      	mov	r3, r0
 800baf8:	6039      	str	r1, [r7, #0]
 800bafa:	71fb      	strb	r3, [r7, #7]
 800bafc:	4613      	mov	r3, r2
 800bafe:	80bb      	strh	r3, [r7, #4]
 800bb00:	79fb      	ldrb	r3, [r7, #7]
 800bb02:	2b23      	cmp	r3, #35	@ 0x23
 800bb04:	d84a      	bhi.n	800bb9c <CDC_Control_FS+0xac>
 800bb06:	a201      	add	r2, pc, #4	@ (adr r2, 800bb0c <CDC_Control_FS+0x1c>)
 800bb08:	f852 f023 	ldr.w	pc, [r2, r3, lsl #2]
 800bb0c:	0800bb9d 	.word	0x0800bb9d
 800bb10:	0800bb9d 	.word	0x0800bb9d
 800bb14:	0800bb9d 	.word	0x0800bb9d
 800bb18:	0800bb9d 	.word	0x0800bb9d
 800bb1c:	0800bb9d 	.word	0x0800bb9d
 800bb20:	0800bb9d 	.word	0x0800bb9d
 800bb24:	0800bb9d 	.word	0x0800bb9d
 800bb28:	0800bb9d 	.word	0x0800bb9d
 800bb2c:	0800bb9d 	.word	0x0800bb9d
 800bb30:	0800bb9d 	.word	0x0800bb9d
 800bb34:	0800bb9d 	.word	0x0800bb9d
 800bb38:	0800bb9d 	.word	0x0800bb9d
 800bb3c:	0800bb9d 	.word	0x0800bb9d
 800bb40:	0800bb9d 	.word	0x0800bb9d
 800bb44:	0800bb9d 	.word	0x0800bb9d
 800bb48:	0800bb9d 	.word	0x0800bb9d
 800bb4c:	0800bb9d 	.word	0x0800bb9d
 800bb50:	0800bb9d 	.word	0x0800bb9d
 800bb54:	0800bb9d 	.word	0x0800bb9d
 800bb58:	0800bb9d 	.word	0x0800bb9d
 800bb5c:	0800bb9d 	.word	0x0800bb9d
 800bb60:	0800bb9d 	.word	0x0800bb9d
 800bb64:	0800bb9d 	.word	0x0800bb9d
 800bb68:	0800bb9d 	.word	0x0800bb9d
 800bb6c:	0800bb9d 	.word	0x0800bb9d
 800bb70:	0800bb9d 	.word	0x0800bb9d
 800bb74:	0800bb9d 	.word	0x0800bb9d
 800bb78:	0800bb9d 	.word	0x0800bb9d
 800bb7c:	0800bb9d 	.word	0x0800bb9d
 800bb80:	0800bb9d 	.word	0x0800bb9d
 800bb84:	0800bb9d 	.word	0x0800bb9d
 800bb88:	0800bb9d 	.word	0x0800bb9d
 800bb8c:	0800bb9d 	.word	0x0800bb9d
 800bb90:	0800bb9d 	.word	0x0800bb9d
 800bb94:	0800bb9d 	.word	0x0800bb9d
 800bb98:	0800bb9d 	.word	0x0800bb9d
 800bb9c:	bf00      	nop
 800bb9e:	2300      	movs	r3, #0
 800bba0:	4618      	mov	r0, r3
 800bba2:	370c      	adds	r7, #12
 800bba4:	46bd      	mov	sp, r7
 800bba6:	f85d 7b04 	ldr.w	r7, [sp], #4
 800bbaa:	4770      	bx	lr

0800bbac <CDC_Receive_FS>:
 800bbac:	b580      	push	{r7, lr}
 800bbae:	b084      	sub	sp, #16
 800bbb0:	af00      	add	r7, sp, #0
 800bbb2:	6078      	str	r0, [r7, #4]
 800bbb4:	6039      	str	r1, [r7, #0]
 800bbb6:	6879      	ldr	r1, [r7, #4]
 800bbb8:	480f      	ldr	r0, [pc, #60]	@ (800bbf8 <CDC_Receive_FS+0x4c>)
 800bbba:	f7fe fde8 	bl	800a78e <USBD_CDC_SetRxBuffer>
 800bbbe:	480e      	ldr	r0, [pc, #56]	@ (800bbf8 <CDC_Receive_FS+0x4c>)
 800bbc0:	f7fe fdfe 	bl	800a7c0 <USBD_CDC_ReceivePacket>
 800bbc4:	2240      	movs	r2, #64	@ 0x40
 800bbc6:	2100      	movs	r1, #0
 800bbc8:	480c      	ldr	r0, [pc, #48]	@ (800bbfc <CDC_Receive_FS+0x50>)
 800bbca:	f000 fc3f 	bl	800c44c <memset>
 800bbce:	683b      	ldr	r3, [r7, #0]
 800bbd0:	681b      	ldr	r3, [r3, #0]
 800bbd2:	73fb      	strb	r3, [r7, #15]
 800bbd4:	7bfb      	ldrb	r3, [r7, #15]
 800bbd6:	461a      	mov	r2, r3
 800bbd8:	6879      	ldr	r1, [r7, #4]
 800bbda:	4808      	ldr	r0, [pc, #32]	@ (800bbfc <CDC_Receive_FS+0x50>)
 800bbdc:	f000 fc62 	bl	800c4a4 <memcpy>
 800bbe0:	7bfb      	ldrb	r3, [r7, #15]
 800bbe2:	461a      	mov	r2, r3
 800bbe4:	2100      	movs	r1, #0
 800bbe6:	6878      	ldr	r0, [r7, #4]
 800bbe8:	f000 fc30 	bl	800c44c <memset>
 800bbec:	2300      	movs	r3, #0
 800bbee:	4618      	mov	r0, r3
 800bbf0:	3710      	adds	r7, #16
 800bbf2:	46bd      	mov	sp, r7
 800bbf4:	bd80      	pop	{r7, pc}
 800bbf6:	bf00      	nop
 800bbf8:	20000550 	.word	0x20000550
 800bbfc:	200004a8 	.word	0x200004a8

0800bc00 <CDC_TransmitCplt_FS>:
 800bc00:	b480      	push	{r7}
 800bc02:	b087      	sub	sp, #28
 800bc04:	af00      	add	r7, sp, #0
 800bc06:	60f8      	str	r0, [r7, #12]
 800bc08:	60b9      	str	r1, [r7, #8]
 800bc0a:	4613      	mov	r3, r2
 800bc0c:	71fb      	strb	r3, [r7, #7]
 800bc0e:	2300      	movs	r3, #0
 800bc10:	75fb      	strb	r3, [r7, #23]
 800bc12:	f997 3017 	ldrsb.w	r3, [r7, #23]
 800bc16:	4618      	mov	r0, r3
 800bc18:	371c      	adds	r7, #28
 800bc1a:	46bd      	mov	sp, r7
 800bc1c:	f85d 7b04 	ldr.w	r7, [sp], #4
 800bc20:	4770      	bx	lr
	...

0800bc24 <USBD_CDC_DeviceDescriptor>:
 800bc24:	b480      	push	{r7}
 800bc26:	b083      	sub	sp, #12
 800bc28:	af00      	add	r7, sp, #0
 800bc2a:	4603      	mov	r3, r0
 800bc2c:	6039      	str	r1, [r7, #0]
 800bc2e:	71fb      	strb	r3, [r7, #7]
 800bc30:	683b      	ldr	r3, [r7, #0]
 800bc32:	2212      	movs	r2, #18
 800bc34:	801a      	strh	r2, [r3, #0]
 800bc36:	4b03      	ldr	r3, [pc, #12]	@ (800bc44 <USBD_CDC_DeviceDescriptor+0x20>)
 800bc38:	4618      	mov	r0, r3
 800bc3a:	370c      	adds	r7, #12
 800bc3c:	46bd      	mov	sp, r7
 800bc3e:	f85d 7b04 	ldr.w	r7, [sp], #4
 800bc42:	4770      	bx	lr
 800bc44:	20000180 	.word	0x20000180

0800bc48 <USBD_CDC_LangIDStrDescriptor>:
 800bc48:	b480      	push	{r7}
 800bc4a:	b083      	sub	sp, #12
 800bc4c:	af00      	add	r7, sp, #0
 800bc4e:	4603      	mov	r3, r0
 800bc50:	6039      	str	r1, [r7, #0]
 800bc52:	71fb      	strb	r3, [r7, #7]
 800bc54:	683b      	ldr	r3, [r7, #0]
 800bc56:	2204      	movs	r2, #4
 800bc58:	801a      	strh	r2, [r3, #0]
 800bc5a:	4b03      	ldr	r3, [pc, #12]	@ (800bc68 <USBD_CDC_LangIDStrDescriptor+0x20>)
 800bc5c:	4618      	mov	r0, r3
 800bc5e:	370c      	adds	r7, #12
 800bc60:	46bd      	mov	sp, r7
 800bc62:	f85d 7b04 	ldr.w	r7, [sp], #4
 800bc66:	4770      	bx	lr
 800bc68:	20000194 	.word	0x20000194

0800bc6c <USBD_CDC_ProductStrDescriptor>:
 800bc6c:	b580      	push	{r7, lr}
 800bc6e:	b082      	sub	sp, #8
 800bc70:	af00      	add	r7, sp, #0
 800bc72:	4603      	mov	r3, r0
 800bc74:	6039      	str	r1, [r7, #0]
 800bc76:	71fb      	strb	r3, [r7, #7]
 800bc78:	79fb      	ldrb	r3, [r7, #7]
 800bc7a:	2b00      	cmp	r3, #0
 800bc7c:	d105      	bne.n	800bc8a <USBD_CDC_ProductStrDescriptor+0x1e>
 800bc7e:	683a      	ldr	r2, [r7, #0]
 800bc80:	4907      	ldr	r1, [pc, #28]	@ (800bca0 <USBD_CDC_ProductStrDescriptor+0x34>)
 800bc82:	4808      	ldr	r0, [pc, #32]	@ (800bca4 <USBD_CDC_ProductStrDescriptor+0x38>)
 800bc84:	f7ff fe07 	bl	800b896 <USBD_GetString>
 800bc88:	e004      	b.n	800bc94 <USBD_CDC_ProductStrDescriptor+0x28>
 800bc8a:	683a      	ldr	r2, [r7, #0]
 800bc8c:	4904      	ldr	r1, [pc, #16]	@ (800bca0 <USBD_CDC_ProductStrDescriptor+0x34>)
 800bc8e:	4805      	ldr	r0, [pc, #20]	@ (800bca4 <USBD_CDC_ProductStrDescriptor+0x38>)
 800bc90:	f7ff fe01 	bl	800b896 <USBD_GetString>
 800bc94:	4b02      	ldr	r3, [pc, #8]	@ (800bca0 <USBD_CDC_ProductStrDescriptor+0x34>)
 800bc96:	4618      	mov	r0, r3
 800bc98:	3708      	adds	r7, #8
 800bc9a:	46bd      	mov	sp, r7
 800bc9c:	bd80      	pop	{r7, pc}
 800bc9e:	bf00      	nop
 800bca0:	20001820 	.word	0x20001820
 800bca4:	0800d5d0 	.word	0x0800d5d0

0800bca8 <USBD_CDC_ManufacturerStrDescriptor>:
 800bca8:	b580      	push	{r7, lr}
 800bcaa:	b082      	sub	sp, #8
 800bcac:	af00      	add	r7, sp, #0
 800bcae:	4603      	mov	r3, r0
 800bcb0:	6039      	str	r1, [r7, #0]
 800bcb2:	71fb      	strb	r3, [r7, #7]
 800bcb4:	683a      	ldr	r2, [r7, #0]
 800bcb6:	4904      	ldr	r1, [pc, #16]	@ (800bcc8 <USBD_CDC_ManufacturerStrDescriptor+0x20>)
 800bcb8:	4804      	ldr	r0, [pc, #16]	@ (800bccc <USBD_CDC_ManufacturerStrDescriptor+0x24>)
 800bcba:	f7ff fdec 	bl	800b896 <USBD_GetString>
 800bcbe:	4b02      	ldr	r3, [pc, #8]	@ (800bcc8 <USBD_CDC_ManufacturerStrDescriptor+0x20>)
 800bcc0:	4618      	mov	r0, r3
 800bcc2:	3708      	adds	r7, #8
 800bcc4:	46bd      	mov	sp, r7
 800bcc6:	bd80      	pop	{r7, pc}
 800bcc8:	20001820 	.word	0x20001820
 800bccc:	0800d5e8 	.word	0x0800d5e8

0800bcd0 <USBD_CDC_SerialStrDescriptor>:
 800bcd0:	b580      	push	{r7, lr}
 800bcd2:	b082      	sub	sp, #8
 800bcd4:	af00      	add	r7, sp, #0
 800bcd6:	4603      	mov	r3, r0
 800bcd8:	6039      	str	r1, [r7, #0]
 800bcda:	71fb      	strb	r3, [r7, #7]
 800bcdc:	683b      	ldr	r3, [r7, #0]
 800bcde:	221a      	movs	r2, #26
 800bce0:	801a      	strh	r2, [r3, #0]
 800bce2:	f000 f843 	bl	800bd6c <Get_SerialNum>
 800bce6:	4b02      	ldr	r3, [pc, #8]	@ (800bcf0 <USBD_CDC_SerialStrDescriptor+0x20>)
 800bce8:	4618      	mov	r0, r3
 800bcea:	3708      	adds	r7, #8
 800bcec:	46bd      	mov	sp, r7
 800bcee:	bd80      	pop	{r7, pc}
 800bcf0:	20000198 	.word	0x20000198

0800bcf4 <USBD_CDC_ConfigStrDescriptor>:
 800bcf4:	b580      	push	{r7, lr}
 800bcf6:	b082      	sub	sp, #8
 800bcf8:	af00      	add	r7, sp, #0
 800bcfa:	4603      	mov	r3, r0
 800bcfc:	6039      	str	r1, [r7, #0]
 800bcfe:	71fb      	strb	r3, [r7, #7]
 800bd00:	79fb      	ldrb	r3, [r7, #7]
 800bd02:	2b00      	cmp	r3, #0
 800bd04:	d105      	bne.n	800bd12 <USBD_CDC_ConfigStrDescriptor+0x1e>
 800bd06:	683a      	ldr	r2, [r7, #0]
 800bd08:	4907      	ldr	r1, [pc, #28]	@ (800bd28 <USBD_CDC_ConfigStrDescriptor+0x34>)
 800bd0a:	4808      	ldr	r0, [pc, #32]	@ (800bd2c <USBD_CDC_ConfigStrDescriptor+0x38>)
 800bd0c:	f7ff fdc3 	bl	800b896 <USBD_GetString>
 800bd10:	e004      	b.n	800bd1c <USBD_CDC_ConfigStrDescriptor+0x28>
 800bd12:	683a      	ldr	r2, [r7, #0]
 800bd14:	4904      	ldr	r1, [pc, #16]	@ (800bd28 <USBD_CDC_ConfigStrDescriptor+0x34>)
 800bd16:	4805      	ldr	r0, [pc, #20]	@ (800bd2c <USBD_CDC_ConfigStrDescriptor+0x38>)
 800bd18:	f7ff fdbd 	bl	800b896 <USBD_GetString>
 800bd1c:	4b02      	ldr	r3, [pc, #8]	@ (800bd28 <USBD_CDC_ConfigStrDescriptor+0x34>)
 800bd1e:	4618      	mov	r0, r3
 800bd20:	3708      	adds	r7, #8
 800bd22:	46bd      	mov	sp, r7
 800bd24:	bd80      	pop	{r7, pc}
 800bd26:	bf00      	nop
 800bd28:	20001820 	.word	0x20001820
 800bd2c:	0800d5fc 	.word	0x0800d5fc

0800bd30 <USBD_CDC_InterfaceStrDescriptor>:
 800bd30:	b580      	push	{r7, lr}
 800bd32:	b082      	sub	sp, #8
 800bd34:	af00      	add	r7, sp, #0
 800bd36:	4603      	mov	r3, r0
 800bd38:	6039      	str	r1, [r7, #0]
 800bd3a:	71fb      	strb	r3, [r7, #7]
 800bd3c:	79fb      	ldrb	r3, [r7, #7]
 800bd3e:	2b00      	cmp	r3, #0
 800bd40:	d105      	bne.n	800bd4e <USBD_CDC_InterfaceStrDescriptor+0x1e>
 800bd42:	683a      	ldr	r2, [r7, #0]
 800bd44:	4907      	ldr	r1, [pc, #28]	@ (800bd64 <USBD_CDC_InterfaceStrDescriptor+0x34>)
 800bd46:	4808      	ldr	r0, [pc, #32]	@ (800bd68 <USBD_CDC_InterfaceStrDescriptor+0x38>)
 800bd48:	f7ff fda5 	bl	800b896 <USBD_GetString>
 800bd4c:	e004      	b.n	800bd58 <USBD_CDC_InterfaceStrDescriptor+0x28>
 800bd4e:	683a      	ldr	r2, [r7, #0]
 800bd50:	4904      	ldr	r1, [pc, #16]	@ (800bd64 <USBD_CDC_InterfaceStrDescriptor+0x34>)
 800bd52:	4805      	ldr	r0, [pc, #20]	@ (800bd68 <USBD_CDC_InterfaceStrDescriptor+0x38>)
 800bd54:	f7ff fd9f 	bl	800b896 <USBD_GetString>
 800bd58:	4b02      	ldr	r3, [pc, #8]	@ (800bd64 <USBD_CDC_InterfaceStrDescriptor+0x34>)
 800bd5a:	4618      	mov	r0, r3
 800bd5c:	3708      	adds	r7, #8
 800bd5e:	46bd      	mov	sp, r7
 800bd60:	bd80      	pop	{r7, pc}
 800bd62:	bf00      	nop
 800bd64:	20001820 	.word	0x20001820
 800bd68:	0800d608 	.word	0x0800d608

0800bd6c <Get_SerialNum>:
 800bd6c:	b580      	push	{r7, lr}
 800bd6e:	b084      	sub	sp, #16
 800bd70:	af00      	add	r7, sp, #0
 800bd72:	4b0f      	ldr	r3, [pc, #60]	@ (800bdb0 <Get_SerialNum+0x44>)
 800bd74:	681b      	ldr	r3, [r3, #0]
 800bd76:	60fb      	str	r3, [r7, #12]
 800bd78:	4b0e      	ldr	r3, [pc, #56]	@ (800bdb4 <Get_SerialNum+0x48>)
 800bd7a:	681b      	ldr	r3, [r3, #0]
 800bd7c:	60bb      	str	r3, [r7, #8]
 800bd7e:	4b0e      	ldr	r3, [pc, #56]	@ (800bdb8 <Get_SerialNum+0x4c>)
 800bd80:	681b      	ldr	r3, [r3, #0]
 800bd82:	607b      	str	r3, [r7, #4]
 800bd84:	68fa      	ldr	r2, [r7, #12]
 800bd86:	687b      	ldr	r3, [r7, #4]
 800bd88:	4413      	add	r3, r2
 800bd8a:	60fb      	str	r3, [r7, #12]
 800bd8c:	68fb      	ldr	r3, [r7, #12]
 800bd8e:	2b00      	cmp	r3, #0
 800bd90:	d009      	beq.n	800bda6 <Get_SerialNum+0x3a>
 800bd92:	2208      	movs	r2, #8
 800bd94:	4909      	ldr	r1, [pc, #36]	@ (800bdbc <Get_SerialNum+0x50>)
 800bd96:	68f8      	ldr	r0, [r7, #12]
 800bd98:	f000 f814 	bl	800bdc4 <IntToUnicode>
 800bd9c:	2204      	movs	r2, #4
 800bd9e:	4908      	ldr	r1, [pc, #32]	@ (800bdc0 <Get_SerialNum+0x54>)
 800bda0:	68b8      	ldr	r0, [r7, #8]
 800bda2:	f000 f80f 	bl	800bdc4 <IntToUnicode>
 800bda6:	bf00      	nop
 800bda8:	3710      	adds	r7, #16
 800bdaa:	46bd      	mov	sp, r7
 800bdac:	bd80      	pop	{r7, pc}
 800bdae:	bf00      	nop
 800bdb0:	1fff7590 	.word	0x1fff7590
 800bdb4:	1fff7594 	.word	0x1fff7594
 800bdb8:	1fff7598 	.word	0x1fff7598
 800bdbc:	2000019a 	.word	0x2000019a
 800bdc0:	200001aa 	.word	0x200001aa

0800bdc4 <IntToUnicode>:
 800bdc4:	b480      	push	{r7}
 800bdc6:	b087      	sub	sp, #28
 800bdc8:	af00      	add	r7, sp, #0
 800bdca:	60f8      	str	r0, [r7, #12]
 800bdcc:	60b9      	str	r1, [r7, #8]
 800bdce:	4613      	mov	r3, r2
 800bdd0:	71fb      	strb	r3, [r7, #7]
 800bdd2:	2300      	movs	r3, #0
 800bdd4:	75fb      	strb	r3, [r7, #23]
 800bdd6:	2300      	movs	r3, #0
 800bdd8:	75fb      	strb	r3, [r7, #23]
 800bdda:	e027      	b.n	800be2c <IntToUnicode+0x68>
 800bddc:	68fb      	ldr	r3, [r7, #12]
 800bdde:	0f1b      	lsrs	r3, r3, #28
 800bde0:	2b09      	cmp	r3, #9
 800bde2:	d80b      	bhi.n	800bdfc <IntToUnicode+0x38>
 800bde4:	68fb      	ldr	r3, [r7, #12]
 800bde6:	0f1b      	lsrs	r3, r3, #28
 800bde8:	b2da      	uxtb	r2, r3
 800bdea:	7dfb      	ldrb	r3, [r7, #23]
 800bdec:	005b      	lsls	r3, r3, #1
 800bdee:	4619      	mov	r1, r3
 800bdf0:	68bb      	ldr	r3, [r7, #8]
 800bdf2:	440b      	add	r3, r1
 800bdf4:	3230      	adds	r2, #48	@ 0x30
 800bdf6:	b2d2      	uxtb	r2, r2
 800bdf8:	701a      	strb	r2, [r3, #0]
 800bdfa:	e00a      	b.n	800be12 <IntToUnicode+0x4e>
 800bdfc:	68fb      	ldr	r3, [r7, #12]
 800bdfe:	0f1b      	lsrs	r3, r3, #28
 800be00:	b2da      	uxtb	r2, r3
 800be02:	7dfb      	ldrb	r3, [r7, #23]
 800be04:	005b      	lsls	r3, r3, #1
 800be06:	4619      	mov	r1, r3
 800be08:	68bb      	ldr	r3, [r7, #8]
 800be0a:	440b      	add	r3, r1
 800be0c:	3237      	adds	r2, #55	@ 0x37
 800be0e:	b2d2      	uxtb	r2, r2
 800be10:	701a      	strb	r2, [r3, #0]
 800be12:	68fb      	ldr	r3, [r7, #12]
 800be14:	011b      	lsls	r3, r3, #4
 800be16:	60fb      	str	r3, [r7, #12]
 800be18:	7dfb      	ldrb	r3, [r7, #23]
 800be1a:	005b      	lsls	r3, r3, #1
 800be1c:	3301      	adds	r3, #1
 800be1e:	68ba      	ldr	r2, [r7, #8]
 800be20:	4413      	add	r3, r2
 800be22:	2200      	movs	r2, #0
 800be24:	701a      	strb	r2, [r3, #0]
 800be26:	7dfb      	ldrb	r3, [r7, #23]
 800be28:	3301      	adds	r3, #1
 800be2a:	75fb      	strb	r3, [r7, #23]
 800be2c:	7dfa      	ldrb	r2, [r7, #23]
 800be2e:	79fb      	ldrb	r3, [r7, #7]
 800be30:	429a      	cmp	r2, r3
 800be32:	d3d3      	bcc.n	800bddc <IntToUnicode+0x18>
 800be34:	bf00      	nop
 800be36:	bf00      	nop
 800be38:	371c      	adds	r7, #28
 800be3a:	46bd      	mov	sp, r7
 800be3c:	f85d 7b04 	ldr.w	r7, [sp], #4
 800be40:	4770      	bx	lr
	...

0800be44 <HAL_PCD_MspInit>:
 800be44:	b580      	push	{r7, lr}
 800be46:	b098      	sub	sp, #96	@ 0x60
 800be48:	af00      	add	r7, sp, #0
 800be4a:	6078      	str	r0, [r7, #4]
 800be4c:	f107 030c 	add.w	r3, r7, #12
 800be50:	2254      	movs	r2, #84	@ 0x54
 800be52:	2100      	movs	r1, #0
 800be54:	4618      	mov	r0, r3
 800be56:	f000 faf9 	bl	800c44c <memset>
 800be5a:	687b      	ldr	r3, [r7, #4]
 800be5c:	681b      	ldr	r3, [r3, #0]
 800be5e:	4a15      	ldr	r2, [pc, #84]	@ (800beb4 <HAL_PCD_MspInit+0x70>)
 800be60:	4293      	cmp	r3, r2
 800be62:	d123      	bne.n	800beac <HAL_PCD_MspInit+0x68>
 800be64:	f44f 5300 	mov.w	r3, #8192	@ 0x2000
 800be68:	60fb      	str	r3, [r7, #12]
 800be6a:	f04f 6300 	mov.w	r3, #134217728	@ 0x8000000
 800be6e:	64bb      	str	r3, [r7, #72]	@ 0x48
 800be70:	f107 030c 	add.w	r3, r7, #12
 800be74:	4618      	mov	r0, r3
 800be76:	f7f9 ffa9 	bl	8005dcc <HAL_RCCEx_PeriphCLKConfig>
 800be7a:	4603      	mov	r3, r0
 800be7c:	2b00      	cmp	r3, #0
 800be7e:	d001      	beq.n	800be84 <HAL_PCD_MspInit+0x40>
 800be80:	f7f5 fe06 	bl	8001a90 <Error_Handler>
 800be84:	4b0c      	ldr	r3, [pc, #48]	@ (800beb8 <HAL_PCD_MspInit+0x74>)
 800be86:	6d9b      	ldr	r3, [r3, #88]	@ 0x58
 800be88:	4a0b      	ldr	r2, [pc, #44]	@ (800beb8 <HAL_PCD_MspInit+0x74>)
 800be8a:	f443 0300 	orr.w	r3, r3, #8388608	@ 0x800000
 800be8e:	6593      	str	r3, [r2, #88]	@ 0x58
 800be90:	4b09      	ldr	r3, [pc, #36]	@ (800beb8 <HAL_PCD_MspInit+0x74>)
 800be92:	6d9b      	ldr	r3, [r3, #88]	@ 0x58
 800be94:	f403 0300 	and.w	r3, r3, #8388608	@ 0x800000
 800be98:	60bb      	str	r3, [r7, #8]
 800be9a:	68bb      	ldr	r3, [r7, #8]
 800be9c:	2200      	movs	r2, #0
 800be9e:	2100      	movs	r1, #0
 800bea0:	2014      	movs	r0, #20
 800bea2:	f7f6 fb8e 	bl	80025c2 <HAL_NVIC_SetPriority>
 800bea6:	2014      	movs	r0, #20
 800bea8:	f7f6 fba5 	bl	80025f6 <HAL_NVIC_EnableIRQ>
 800beac:	bf00      	nop
 800beae:	3760      	adds	r7, #96	@ 0x60
 800beb0:	46bd      	mov	sp, r7
 800beb2:	bd80      	pop	{r7, pc}
 800beb4:	40005c00 	.word	0x40005c00
 800beb8:	40021000 	.word	0x40021000

0800bebc <HAL_PCD_SetupStageCallback>:
 800bebc:	b580      	push	{r7, lr}
 800bebe:	b082      	sub	sp, #8
 800bec0:	af00      	add	r7, sp, #0
 800bec2:	6078      	str	r0, [r7, #4]
 800bec4:	687b      	ldr	r3, [r7, #4]
 800bec6:	f8d3 22d8 	ldr.w	r2, [r3, #728]	@ 0x2d8
 800beca:	687b      	ldr	r3, [r7, #4]
 800becc:	f503 7326 	add.w	r3, r3, #664	@ 0x298
 800bed0:	4619      	mov	r1, r3
 800bed2:	4610      	mov	r0, r2
 800bed4:	f7fe fd40 	bl	800a958 <USBD_LL_SetupStage>
 800bed8:	bf00      	nop
 800beda:	3708      	adds	r7, #8
 800bedc:	46bd      	mov	sp, r7
 800bede:	bd80      	pop	{r7, pc}

0800bee0 <HAL_PCD_DataOutStageCallback>:
 800bee0:	b580      	push	{r7, lr}
 800bee2:	b082      	sub	sp, #8
 800bee4:	af00      	add	r7, sp, #0
 800bee6:	6078      	str	r0, [r7, #4]
 800bee8:	460b      	mov	r3, r1
 800beea:	70fb      	strb	r3, [r7, #3]
 800beec:	687b      	ldr	r3, [r7, #4]
 800beee:	f8d3 02d8 	ldr.w	r0, [r3, #728]	@ 0x2d8
 800bef2:	78fa      	ldrb	r2, [r7, #3]
 800bef4:	6879      	ldr	r1, [r7, #4]
 800bef6:	4613      	mov	r3, r2
 800bef8:	009b      	lsls	r3, r3, #2
 800befa:	4413      	add	r3, r2
 800befc:	00db      	lsls	r3, r3, #3
 800befe:	440b      	add	r3, r1
 800bf00:	f503 73b2 	add.w	r3, r3, #356	@ 0x164
 800bf04:	681a      	ldr	r2, [r3, #0]
 800bf06:	78fb      	ldrb	r3, [r7, #3]
 800bf08:	4619      	mov	r1, r3
 800bf0a:	f7fe fd7a 	bl	800aa02 <USBD_LL_DataOutStage>
 800bf0e:	bf00      	nop
 800bf10:	3708      	adds	r7, #8
 800bf12:	46bd      	mov	sp, r7
 800bf14:	bd80      	pop	{r7, pc}

0800bf16 <HAL_PCD_DataInStageCallback>:
 800bf16:	b580      	push	{r7, lr}
 800bf18:	b082      	sub	sp, #8
 800bf1a:	af00      	add	r7, sp, #0
 800bf1c:	6078      	str	r0, [r7, #4]
 800bf1e:	460b      	mov	r3, r1
 800bf20:	70fb      	strb	r3, [r7, #3]
 800bf22:	687b      	ldr	r3, [r7, #4]
 800bf24:	f8d3 02d8 	ldr.w	r0, [r3, #728]	@ 0x2d8
 800bf28:	78fa      	ldrb	r2, [r7, #3]
 800bf2a:	6879      	ldr	r1, [r7, #4]
 800bf2c:	4613      	mov	r3, r2
 800bf2e:	009b      	lsls	r3, r3, #2
 800bf30:	4413      	add	r3, r2
 800bf32:	00db      	lsls	r3, r3, #3
 800bf34:	440b      	add	r3, r1
 800bf36:	3324      	adds	r3, #36	@ 0x24
 800bf38:	681a      	ldr	r2, [r3, #0]
 800bf3a:	78fb      	ldrb	r3, [r7, #3]
 800bf3c:	4619      	mov	r1, r3
 800bf3e:	f7fe fdc3 	bl	800aac8 <USBD_LL_DataInStage>
 800bf42:	bf00      	nop
 800bf44:	3708      	adds	r7, #8
 800bf46:	46bd      	mov	sp, r7
 800bf48:	bd80      	pop	{r7, pc}

0800bf4a <HAL_PCD_SOFCallback>:
 800bf4a:	b580      	push	{r7, lr}
 800bf4c:	b082      	sub	sp, #8
 800bf4e:	af00      	add	r7, sp, #0
 800bf50:	6078      	str	r0, [r7, #4]
 800bf52:	687b      	ldr	r3, [r7, #4]
 800bf54:	f8d3 32d8 	ldr.w	r3, [r3, #728]	@ 0x2d8
 800bf58:	4618      	mov	r0, r3
 800bf5a:	f7fe fed7 	bl	800ad0c <USBD_LL_SOF>
 800bf5e:	bf00      	nop
 800bf60:	3708      	adds	r7, #8
 800bf62:	46bd      	mov	sp, r7
 800bf64:	bd80      	pop	{r7, pc}

0800bf66 <HAL_PCD_ResetCallback>:
 800bf66:	b580      	push	{r7, lr}
 800bf68:	b084      	sub	sp, #16
 800bf6a:	af00      	add	r7, sp, #0
 800bf6c:	6078      	str	r0, [r7, #4]
 800bf6e:	2301      	movs	r3, #1
 800bf70:	73fb      	strb	r3, [r7, #15]
 800bf72:	687b      	ldr	r3, [r7, #4]
 800bf74:	795b      	ldrb	r3, [r3, #5]
 800bf76:	2b02      	cmp	r3, #2
 800bf78:	d001      	beq.n	800bf7e <HAL_PCD_ResetCallback+0x18>
 800bf7a:	f7f5 fd89 	bl	8001a90 <Error_Handler>
 800bf7e:	687b      	ldr	r3, [r7, #4]
 800bf80:	f8d3 32d8 	ldr.w	r3, [r3, #728]	@ 0x2d8
 800bf84:	7bfa      	ldrb	r2, [r7, #15]
 800bf86:	4611      	mov	r1, r2
 800bf88:	4618      	mov	r0, r3
 800bf8a:	f7fe fe81 	bl	800ac90 <USBD_LL_SetSpeed>
 800bf8e:	687b      	ldr	r3, [r7, #4]
 800bf90:	f8d3 32d8 	ldr.w	r3, [r3, #728]	@ 0x2d8
 800bf94:	4618      	mov	r0, r3
 800bf96:	f7fe fe2d 	bl	800abf4 <USBD_LL_Reset>
 800bf9a:	bf00      	nop
 800bf9c:	3710      	adds	r7, #16
 800bf9e:	46bd      	mov	sp, r7
 800bfa0:	bd80      	pop	{r7, pc}
	...

0800bfa4 <HAL_PCD_SuspendCallback>:
 800bfa4:	b580      	push	{r7, lr}
 800bfa6:	b082      	sub	sp, #8
 800bfa8:	af00      	add	r7, sp, #0
 800bfaa:	6078      	str	r0, [r7, #4]
 800bfac:	687b      	ldr	r3, [r7, #4]
 800bfae:	f8d3 32d8 	ldr.w	r3, [r3, #728]	@ 0x2d8
 800bfb2:	4618      	mov	r0, r3
 800bfb4:	f7fe fe7c 	bl	800acb0 <USBD_LL_Suspend>
 800bfb8:	687b      	ldr	r3, [r7, #4]
 800bfba:	7a5b      	ldrb	r3, [r3, #9]
 800bfbc:	2b00      	cmp	r3, #0
 800bfbe:	d005      	beq.n	800bfcc <HAL_PCD_SuspendCallback+0x28>
 800bfc0:	4b04      	ldr	r3, [pc, #16]	@ (800bfd4 <HAL_PCD_SuspendCallback+0x30>)
 800bfc2:	691b      	ldr	r3, [r3, #16]
 800bfc4:	4a03      	ldr	r2, [pc, #12]	@ (800bfd4 <HAL_PCD_SuspendCallback+0x30>)
 800bfc6:	f043 0306 	orr.w	r3, r3, #6
 800bfca:	6113      	str	r3, [r2, #16]
 800bfcc:	bf00      	nop
 800bfce:	3708      	adds	r7, #8
 800bfd0:	46bd      	mov	sp, r7
 800bfd2:	bd80      	pop	{r7, pc}
 800bfd4:	e000ed00 	.word	0xe000ed00

0800bfd8 <HAL_PCD_ResumeCallback>:
 800bfd8:	b580      	push	{r7, lr}
 800bfda:	b082      	sub	sp, #8
 800bfdc:	af00      	add	r7, sp, #0
 800bfde:	6078      	str	r0, [r7, #4]
 800bfe0:	687b      	ldr	r3, [r7, #4]
 800bfe2:	7a5b      	ldrb	r3, [r3, #9]
 800bfe4:	2b00      	cmp	r3, #0
 800bfe6:	d007      	beq.n	800bff8 <HAL_PCD_ResumeCallback+0x20>
 800bfe8:	4b08      	ldr	r3, [pc, #32]	@ (800c00c <HAL_PCD_ResumeCallback+0x34>)
 800bfea:	691b      	ldr	r3, [r3, #16]
 800bfec:	4a07      	ldr	r2, [pc, #28]	@ (800c00c <HAL_PCD_ResumeCallback+0x34>)
 800bfee:	f023 0306 	bic.w	r3, r3, #6
 800bff2:	6113      	str	r3, [r2, #16]
 800bff4:	f000 f9f8 	bl	800c3e8 <SystemClockConfig_Resume>
 800bff8:	687b      	ldr	r3, [r7, #4]
 800bffa:	f8d3 32d8 	ldr.w	r3, [r3, #728]	@ 0x2d8
 800bffe:	4618      	mov	r0, r3
 800c000:	f7fe fe6c 	bl	800acdc <USBD_LL_Resume>
 800c004:	bf00      	nop
 800c006:	3708      	adds	r7, #8
 800c008:	46bd      	mov	sp, r7
 800c00a:	bd80      	pop	{r7, pc}
 800c00c:	e000ed00 	.word	0xe000ed00

0800c010 <USBD_LL_Init>:
 800c010:	b580      	push	{r7, lr}
 800c012:	b082      	sub	sp, #8
 800c014:	af00      	add	r7, sp, #0
 800c016:	6078      	str	r0, [r7, #4]
 800c018:	4a2b      	ldr	r2, [pc, #172]	@ (800c0c8 <USBD_LL_Init+0xb8>)
 800c01a:	687b      	ldr	r3, [r7, #4]
 800c01c:	f8c2 32d8 	str.w	r3, [r2, #728]	@ 0x2d8
 800c020:	687b      	ldr	r3, [r7, #4]
 800c022:	4a29      	ldr	r2, [pc, #164]	@ (800c0c8 <USBD_LL_Init+0xb8>)
 800c024:	f8c3 22c4 	str.w	r2, [r3, #708]	@ 0x2c4
 800c028:	4b27      	ldr	r3, [pc, #156]	@ (800c0c8 <USBD_LL_Init+0xb8>)
 800c02a:	4a28      	ldr	r2, [pc, #160]	@ (800c0cc <USBD_LL_Init+0xbc>)
 800c02c:	601a      	str	r2, [r3, #0]
 800c02e:	4b26      	ldr	r3, [pc, #152]	@ (800c0c8 <USBD_LL_Init+0xb8>)
 800c030:	2208      	movs	r2, #8
 800c032:	711a      	strb	r2, [r3, #4]
 800c034:	4b24      	ldr	r3, [pc, #144]	@ (800c0c8 <USBD_LL_Init+0xb8>)
 800c036:	2202      	movs	r2, #2
 800c038:	715a      	strb	r2, [r3, #5]
 800c03a:	4b23      	ldr	r3, [pc, #140]	@ (800c0c8 <USBD_LL_Init+0xb8>)
 800c03c:	2202      	movs	r2, #2
 800c03e:	71da      	strb	r2, [r3, #7]
 800c040:	4b21      	ldr	r3, [pc, #132]	@ (800c0c8 <USBD_LL_Init+0xb8>)
 800c042:	2200      	movs	r2, #0
 800c044:	721a      	strb	r2, [r3, #8]
 800c046:	4b20      	ldr	r3, [pc, #128]	@ (800c0c8 <USBD_LL_Init+0xb8>)
 800c048:	2200      	movs	r2, #0
 800c04a:	725a      	strb	r2, [r3, #9]
 800c04c:	4b1e      	ldr	r3, [pc, #120]	@ (800c0c8 <USBD_LL_Init+0xb8>)
 800c04e:	2200      	movs	r2, #0
 800c050:	729a      	strb	r2, [r3, #10]
 800c052:	4b1d      	ldr	r3, [pc, #116]	@ (800c0c8 <USBD_LL_Init+0xb8>)
 800c054:	2200      	movs	r2, #0
 800c056:	72da      	strb	r2, [r3, #11]
 800c058:	481b      	ldr	r0, [pc, #108]	@ (800c0c8 <USBD_LL_Init+0xb8>)
 800c05a:	f7f7 fbd3 	bl	8003804 <HAL_PCD_Init>
 800c05e:	4603      	mov	r3, r0
 800c060:	2b00      	cmp	r3, #0
 800c062:	d001      	beq.n	800c068 <USBD_LL_Init+0x58>
 800c064:	f7f5 fd14 	bl	8001a90 <Error_Handler>
 800c068:	687b      	ldr	r3, [r7, #4]
 800c06a:	f8d3 02c4 	ldr.w	r0, [r3, #708]	@ 0x2c4
 800c06e:	2318      	movs	r3, #24
 800c070:	2200      	movs	r2, #0
 800c072:	2100      	movs	r1, #0
 800c074:	f7f9 f85a 	bl	800512c <HAL_PCDEx_PMAConfig>
 800c078:	687b      	ldr	r3, [r7, #4]
 800c07a:	f8d3 02c4 	ldr.w	r0, [r3, #708]	@ 0x2c4
 800c07e:	2358      	movs	r3, #88	@ 0x58
 800c080:	2200      	movs	r2, #0
 800c082:	2180      	movs	r1, #128	@ 0x80
 800c084:	f7f9 f852 	bl	800512c <HAL_PCDEx_PMAConfig>
 800c088:	687b      	ldr	r3, [r7, #4]
 800c08a:	f8d3 02c4 	ldr.w	r0, [r3, #708]	@ 0x2c4
 800c08e:	23c0      	movs	r3, #192	@ 0xc0
 800c090:	2200      	movs	r2, #0
 800c092:	2181      	movs	r1, #129	@ 0x81
 800c094:	f7f9 f84a 	bl	800512c <HAL_PCDEx_PMAConfig>
 800c098:	687b      	ldr	r3, [r7, #4]
 800c09a:	f8d3 02c4 	ldr.w	r0, [r3, #708]	@ 0x2c4
 800c09e:	f44f 7388 	mov.w	r3, #272	@ 0x110
 800c0a2:	2200      	movs	r2, #0
 800c0a4:	2101      	movs	r1, #1
 800c0a6:	f7f9 f841 	bl	800512c <HAL_PCDEx_PMAConfig>
 800c0aa:	687b      	ldr	r3, [r7, #4]
 800c0ac:	f8d3 02c4 	ldr.w	r0, [r3, #708]	@ 0x2c4
 800c0b0:	f44f 7380 	mov.w	r3, #256	@ 0x100
 800c0b4:	2200      	movs	r2, #0
 800c0b6:	2182      	movs	r1, #130	@ 0x82
 800c0b8:	f7f9 f838 	bl	800512c <HAL_PCDEx_PMAConfig>
 800c0bc:	2300      	movs	r3, #0
 800c0be:	4618      	mov	r0, r3
 800c0c0:	3708      	adds	r7, #8
 800c0c2:	46bd      	mov	sp, r7
 800c0c4:	bd80      	pop	{r7, pc}
 800c0c6:	bf00      	nop
 800c0c8:	20001a20 	.word	0x20001a20
 800c0cc:	40005c00 	.word	0x40005c00

0800c0d0 <USBD_LL_Start>:
 800c0d0:	b580      	push	{r7, lr}
 800c0d2:	b084      	sub	sp, #16
 800c0d4:	af00      	add	r7, sp, #0
 800c0d6:	6078      	str	r0, [r7, #4]
 800c0d8:	2300      	movs	r3, #0
 800c0da:	73fb      	strb	r3, [r7, #15]
 800c0dc:	2300      	movs	r3, #0
 800c0de:	73bb      	strb	r3, [r7, #14]
 800c0e0:	687b      	ldr	r3, [r7, #4]
 800c0e2:	f8d3 32c4 	ldr.w	r3, [r3, #708]	@ 0x2c4
 800c0e6:	4618      	mov	r0, r3
 800c0e8:	f7f7 fc5a 	bl	80039a0 <HAL_PCD_Start>
 800c0ec:	4603      	mov	r3, r0
 800c0ee:	73fb      	strb	r3, [r7, #15]
 800c0f0:	7bfb      	ldrb	r3, [r7, #15]
 800c0f2:	4618      	mov	r0, r3
 800c0f4:	f000 f97e 	bl	800c3f4 <USBD_Get_USB_Status>
 800c0f8:	4603      	mov	r3, r0
 800c0fa:	73bb      	strb	r3, [r7, #14]
 800c0fc:	7bbb      	ldrb	r3, [r7, #14]
 800c0fe:	4618      	mov	r0, r3
 800c100:	3710      	adds	r7, #16
 800c102:	46bd      	mov	sp, r7
 800c104:	bd80      	pop	{r7, pc}

0800c106 <USBD_LL_OpenEP>:
 800c106:	b580      	push	{r7, lr}
 800c108:	b084      	sub	sp, #16
 800c10a:	af00      	add	r7, sp, #0
 800c10c:	6078      	str	r0, [r7, #4]
 800c10e:	4608      	mov	r0, r1
 800c110:	4611      	mov	r1, r2
 800c112:	461a      	mov	r2, r3
 800c114:	4603      	mov	r3, r0
 800c116:	70fb      	strb	r3, [r7, #3]
 800c118:	460b      	mov	r3, r1
 800c11a:	70bb      	strb	r3, [r7, #2]
 800c11c:	4613      	mov	r3, r2
 800c11e:	803b      	strh	r3, [r7, #0]
 800c120:	2300      	movs	r3, #0
 800c122:	73fb      	strb	r3, [r7, #15]
 800c124:	2300      	movs	r3, #0
 800c126:	73bb      	strb	r3, [r7, #14]
 800c128:	687b      	ldr	r3, [r7, #4]
 800c12a:	f8d3 02c4 	ldr.w	r0, [r3, #708]	@ 0x2c4
 800c12e:	78bb      	ldrb	r3, [r7, #2]
 800c130:	883a      	ldrh	r2, [r7, #0]
 800c132:	78f9      	ldrb	r1, [r7, #3]
 800c134:	f7f7 fda1 	bl	8003c7a <HAL_PCD_EP_Open>
 800c138:	4603      	mov	r3, r0
 800c13a:	73fb      	strb	r3, [r7, #15]
 800c13c:	7bfb      	ldrb	r3, [r7, #15]
 800c13e:	4618      	mov	r0, r3
 800c140:	f000 f958 	bl	800c3f4 <USBD_Get_USB_Status>
 800c144:	4603      	mov	r3, r0
 800c146:	73bb      	strb	r3, [r7, #14]
 800c148:	7bbb      	ldrb	r3, [r7, #14]
 800c14a:	4618      	mov	r0, r3
 800c14c:	3710      	adds	r7, #16
 800c14e:	46bd      	mov	sp, r7
 800c150:	bd80      	pop	{r7, pc}

0800c152 <USBD_LL_CloseEP>:
 800c152:	b580      	push	{r7, lr}
 800c154:	b084      	sub	sp, #16
 800c156:	af00      	add	r7, sp, #0
 800c158:	6078      	str	r0, [r7, #4]
 800c15a:	460b      	mov	r3, r1
 800c15c:	70fb      	strb	r3, [r7, #3]
 800c15e:	2300      	movs	r3, #0
 800c160:	73fb      	strb	r3, [r7, #15]
 800c162:	2300      	movs	r3, #0
 800c164:	73bb      	strb	r3, [r7, #14]
 800c166:	687b      	ldr	r3, [r7, #4]
 800c168:	f8d3 32c4 	ldr.w	r3, [r3, #708]	@ 0x2c4
 800c16c:	78fa      	ldrb	r2, [r7, #3]
 800c16e:	4611      	mov	r1, r2
 800c170:	4618      	mov	r0, r3
 800c172:	f7f7 fde1 	bl	8003d38 <HAL_PCD_EP_Close>
 800c176:	4603      	mov	r3, r0
 800c178:	73fb      	strb	r3, [r7, #15]
 800c17a:	7bfb      	ldrb	r3, [r7, #15]
 800c17c:	4618      	mov	r0, r3
 800c17e:	f000 f939 	bl	800c3f4 <USBD_Get_USB_Status>
 800c182:	4603      	mov	r3, r0
 800c184:	73bb      	strb	r3, [r7, #14]
 800c186:	7bbb      	ldrb	r3, [r7, #14]
 800c188:	4618      	mov	r0, r3
 800c18a:	3710      	adds	r7, #16
 800c18c:	46bd      	mov	sp, r7
 800c18e:	bd80      	pop	{r7, pc}

0800c190 <USBD_LL_StallEP>:
 800c190:	b580      	push	{r7, lr}
 800c192:	b084      	sub	sp, #16
 800c194:	af00      	add	r7, sp, #0
 800c196:	6078      	str	r0, [r7, #4]
 800c198:	460b      	mov	r3, r1
 800c19a:	70fb      	strb	r3, [r7, #3]
 800c19c:	2300      	movs	r3, #0
 800c19e:	73fb      	strb	r3, [r7, #15]
 800c1a0:	2300      	movs	r3, #0
 800c1a2:	73bb      	strb	r3, [r7, #14]
 800c1a4:	687b      	ldr	r3, [r7, #4]
 800c1a6:	f8d3 32c4 	ldr.w	r3, [r3, #708]	@ 0x2c4
 800c1aa:	78fa      	ldrb	r2, [r7, #3]
 800c1ac:	4611      	mov	r1, r2
 800c1ae:	4618      	mov	r0, r3
 800c1b0:	f7f7 fe8a 	bl	8003ec8 <HAL_PCD_EP_SetStall>
 800c1b4:	4603      	mov	r3, r0
 800c1b6:	73fb      	strb	r3, [r7, #15]
 800c1b8:	7bfb      	ldrb	r3, [r7, #15]
 800c1ba:	4618      	mov	r0, r3
 800c1bc:	f000 f91a 	bl	800c3f4 <USBD_Get_USB_Status>
 800c1c0:	4603      	mov	r3, r0
 800c1c2:	73bb      	strb	r3, [r7, #14]
 800c1c4:	7bbb      	ldrb	r3, [r7, #14]
 800c1c6:	4618      	mov	r0, r3
 800c1c8:	3710      	adds	r7, #16
 800c1ca:	46bd      	mov	sp, r7
 800c1cc:	bd80      	pop	{r7, pc}

0800c1ce <USBD_LL_ClearStallEP>:
 800c1ce:	b580      	push	{r7, lr}
 800c1d0:	b084      	sub	sp, #16
 800c1d2:	af00      	add	r7, sp, #0
 800c1d4:	6078      	str	r0, [r7, #4]
 800c1d6:	460b      	mov	r3, r1
 800c1d8:	70fb      	strb	r3, [r7, #3]
 800c1da:	2300      	movs	r3, #0
 800c1dc:	73fb      	strb	r3, [r7, #15]
 800c1de:	2300      	movs	r3, #0
 800c1e0:	73bb      	strb	r3, [r7, #14]
 800c1e2:	687b      	ldr	r3, [r7, #4]
 800c1e4:	f8d3 32c4 	ldr.w	r3, [r3, #708]	@ 0x2c4
 800c1e8:	78fa      	ldrb	r2, [r7, #3]
 800c1ea:	4611      	mov	r1, r2
 800c1ec:	4618      	mov	r0, r3
 800c1ee:	f7f7 febd 	bl	8003f6c <HAL_PCD_EP_ClrStall>
 800c1f2:	4603      	mov	r3, r0
 800c1f4:	73fb      	strb	r3, [r7, #15]
 800c1f6:	7bfb      	ldrb	r3, [r7, #15]
 800c1f8:	4618      	mov	r0, r3
 800c1fa:	f000 f8fb 	bl	800c3f4 <USBD_Get_USB_Status>
 800c1fe:	4603      	mov	r3, r0
 800c200:	73bb      	strb	r3, [r7, #14]
 800c202:	7bbb      	ldrb	r3, [r7, #14]
 800c204:	4618      	mov	r0, r3
 800c206:	3710      	adds	r7, #16
 800c208:	46bd      	mov	sp, r7
 800c20a:	bd80      	pop	{r7, pc}

0800c20c <USBD_LL_IsStallEP>:
 800c20c:	b480      	push	{r7}
 800c20e:	b085      	sub	sp, #20
 800c210:	af00      	add	r7, sp, #0
 800c212:	6078      	str	r0, [r7, #4]
 800c214:	460b      	mov	r3, r1
 800c216:	70fb      	strb	r3, [r7, #3]
 800c218:	687b      	ldr	r3, [r7, #4]
 800c21a:	f8d3 32c4 	ldr.w	r3, [r3, #708]	@ 0x2c4
 800c21e:	60fb      	str	r3, [r7, #12]
 800c220:	f997 3003 	ldrsb.w	r3, [r7, #3]
 800c224:	2b00      	cmp	r3, #0
 800c226:	da0b      	bge.n	800c240 <USBD_LL_IsStallEP+0x34>
 800c228:	78fb      	ldrb	r3, [r7, #3]
 800c22a:	f003 027f 	and.w	r2, r3, #127	@ 0x7f
 800c22e:	68f9      	ldr	r1, [r7, #12]
 800c230:	4613      	mov	r3, r2
 800c232:	009b      	lsls	r3, r3, #2
 800c234:	4413      	add	r3, r2
 800c236:	00db      	lsls	r3, r3, #3
 800c238:	440b      	add	r3, r1
 800c23a:	3312      	adds	r3, #18
 800c23c:	781b      	ldrb	r3, [r3, #0]
 800c23e:	e00b      	b.n	800c258 <USBD_LL_IsStallEP+0x4c>
 800c240:	78fb      	ldrb	r3, [r7, #3]
 800c242:	f003 027f 	and.w	r2, r3, #127	@ 0x7f
 800c246:	68f9      	ldr	r1, [r7, #12]
 800c248:	4613      	mov	r3, r2
 800c24a:	009b      	lsls	r3, r3, #2
 800c24c:	4413      	add	r3, r2
 800c24e:	00db      	lsls	r3, r3, #3
 800c250:	440b      	add	r3, r1
 800c252:	f503 73a9 	add.w	r3, r3, #338	@ 0x152
 800c256:	781b      	ldrb	r3, [r3, #0]
 800c258:	4618      	mov	r0, r3
 800c25a:	3714      	adds	r7, #20
 800c25c:	46bd      	mov	sp, r7
 800c25e:	f85d 7b04 	ldr.w	r7, [sp], #4
 800c262:	4770      	bx	lr

0800c264 <USBD_LL_SetUSBAddress>:
 800c264:	b580      	push	{r7, lr}
 800c266:	b084      	sub	sp, #16
 800c268:	af00      	add	r7, sp, #0
 800c26a:	6078      	str	r0, [r7, #4]
 800c26c:	460b      	mov	r3, r1
 800c26e:	70fb      	strb	r3, [r7, #3]
 800c270:	2300      	movs	r3, #0
 800c272:	73fb      	strb	r3, [r7, #15]
 800c274:	2300      	movs	r3, #0
 800c276:	73bb      	strb	r3, [r7, #14]
 800c278:	687b      	ldr	r3, [r7, #4]
 800c27a:	f8d3 32c4 	ldr.w	r3, [r3, #708]	@ 0x2c4
 800c27e:	78fa      	ldrb	r2, [r7, #3]
 800c280:	4611      	mov	r1, r2
 800c282:	4618      	mov	r0, r3
 800c284:	f7f7 fcd5 	bl	8003c32 <HAL_PCD_SetAddress>
 800c288:	4603      	mov	r3, r0
 800c28a:	73fb      	strb	r3, [r7, #15]
 800c28c:	7bfb      	ldrb	r3, [r7, #15]
 800c28e:	4618      	mov	r0, r3
 800c290:	f000 f8b0 	bl	800c3f4 <USBD_Get_USB_Status>
 800c294:	4603      	mov	r3, r0
 800c296:	73bb      	strb	r3, [r7, #14]
 800c298:	7bbb      	ldrb	r3, [r7, #14]
 800c29a:	4618      	mov	r0, r3
 800c29c:	3710      	adds	r7, #16
 800c29e:	46bd      	mov	sp, r7
 800c2a0:	bd80      	pop	{r7, pc}

0800c2a2 <USBD_LL_Transmit>:
 800c2a2:	b580      	push	{r7, lr}
 800c2a4:	b086      	sub	sp, #24
 800c2a6:	af00      	add	r7, sp, #0
 800c2a8:	60f8      	str	r0, [r7, #12]
 800c2aa:	607a      	str	r2, [r7, #4]
 800c2ac:	603b      	str	r3, [r7, #0]
 800c2ae:	460b      	mov	r3, r1
 800c2b0:	72fb      	strb	r3, [r7, #11]
 800c2b2:	2300      	movs	r3, #0
 800c2b4:	75fb      	strb	r3, [r7, #23]
 800c2b6:	2300      	movs	r3, #0
 800c2b8:	75bb      	strb	r3, [r7, #22]
 800c2ba:	68fb      	ldr	r3, [r7, #12]
 800c2bc:	f8d3 02c4 	ldr.w	r0, [r3, #708]	@ 0x2c4
 800c2c0:	7af9      	ldrb	r1, [r7, #11]
 800c2c2:	683b      	ldr	r3, [r7, #0]
 800c2c4:	687a      	ldr	r2, [r7, #4]
 800c2c6:	f7f7 fdc8 	bl	8003e5a <HAL_PCD_EP_Transmit>
 800c2ca:	4603      	mov	r3, r0
 800c2cc:	75fb      	strb	r3, [r7, #23]
 800c2ce:	7dfb      	ldrb	r3, [r7, #23]
 800c2d0:	4618      	mov	r0, r3
 800c2d2:	f000 f88f 	bl	800c3f4 <USBD_Get_USB_Status>
 800c2d6:	4603      	mov	r3, r0
 800c2d8:	75bb      	strb	r3, [r7, #22]
 800c2da:	7dbb      	ldrb	r3, [r7, #22]
 800c2dc:	4618      	mov	r0, r3
 800c2de:	3718      	adds	r7, #24
 800c2e0:	46bd      	mov	sp, r7
 800c2e2:	bd80      	pop	{r7, pc}

0800c2e4 <USBD_LL_PrepareReceive>:
 800c2e4:	b580      	push	{r7, lr}
 800c2e6:	b086      	sub	sp, #24
 800c2e8:	af00      	add	r7, sp, #0
 800c2ea:	60f8      	str	r0, [r7, #12]
 800c2ec:	607a      	str	r2, [r7, #4]
 800c2ee:	603b      	str	r3, [r7, #0]
 800c2f0:	460b      	mov	r3, r1
 800c2f2:	72fb      	strb	r3, [r7, #11]
 800c2f4:	2300      	movs	r3, #0
 800c2f6:	75fb      	strb	r3, [r7, #23]
 800c2f8:	2300      	movs	r3, #0
 800c2fa:	75bb      	strb	r3, [r7, #22]
 800c2fc:	68fb      	ldr	r3, [r7, #12]
 800c2fe:	f8d3 02c4 	ldr.w	r0, [r3, #708]	@ 0x2c4
 800c302:	7af9      	ldrb	r1, [r7, #11]
 800c304:	683b      	ldr	r3, [r7, #0]
 800c306:	687a      	ldr	r2, [r7, #4]
 800c308:	f7f7 fd5e 	bl	8003dc8 <HAL_PCD_EP_Receive>
 800c30c:	4603      	mov	r3, r0
 800c30e:	75fb      	strb	r3, [r7, #23]
 800c310:	7dfb      	ldrb	r3, [r7, #23]
 800c312:	4618      	mov	r0, r3
 800c314:	f000 f86e 	bl	800c3f4 <USBD_Get_USB_Status>
 800c318:	4603      	mov	r3, r0
 800c31a:	75bb      	strb	r3, [r7, #22]
 800c31c:	7dbb      	ldrb	r3, [r7, #22]
 800c31e:	4618      	mov	r0, r3
 800c320:	3718      	adds	r7, #24
 800c322:	46bd      	mov	sp, r7
 800c324:	bd80      	pop	{r7, pc}

0800c326 <USBD_LL_GetRxDataSize>:
 800c326:	b580      	push	{r7, lr}
 800c328:	b082      	sub	sp, #8
 800c32a:	af00      	add	r7, sp, #0
 800c32c:	6078      	str	r0, [r7, #4]
 800c32e:	460b      	mov	r3, r1
 800c330:	70fb      	strb	r3, [r7, #3]
 800c332:	687b      	ldr	r3, [r7, #4]
 800c334:	f8d3 32c4 	ldr.w	r3, [r3, #708]	@ 0x2c4
 800c338:	78fa      	ldrb	r2, [r7, #3]
 800c33a:	4611      	mov	r1, r2
 800c33c:	4618      	mov	r0, r3
 800c33e:	f7f7 fd74 	bl	8003e2a <HAL_PCD_EP_GetRxCount>
 800c342:	4603      	mov	r3, r0
 800c344:	4618      	mov	r0, r3
 800c346:	3708      	adds	r7, #8
 800c348:	46bd      	mov	sp, r7
 800c34a:	bd80      	pop	{r7, pc}

0800c34c <HAL_PCDEx_LPM_Callback>:
 800c34c:	b580      	push	{r7, lr}
 800c34e:	b082      	sub	sp, #8
 800c350:	af00      	add	r7, sp, #0
 800c352:	6078      	str	r0, [r7, #4]
 800c354:	460b      	mov	r3, r1
 800c356:	70fb      	strb	r3, [r7, #3]
 800c358:	78fb      	ldrb	r3, [r7, #3]
 800c35a:	2b00      	cmp	r3, #0
 800c35c:	d002      	beq.n	800c364 <HAL_PCDEx_LPM_Callback+0x18>
 800c35e:	2b01      	cmp	r3, #1
 800c360:	d013      	beq.n	800c38a <HAL_PCDEx_LPM_Callback+0x3e>
 800c362:	e023      	b.n	800c3ac <HAL_PCDEx_LPM_Callback+0x60>
 800c364:	687b      	ldr	r3, [r7, #4]
 800c366:	7a5b      	ldrb	r3, [r3, #9]
 800c368:	2b00      	cmp	r3, #0
 800c36a:	d007      	beq.n	800c37c <HAL_PCDEx_LPM_Callback+0x30>
 800c36c:	f000 f83c 	bl	800c3e8 <SystemClockConfig_Resume>
 800c370:	4b10      	ldr	r3, [pc, #64]	@ (800c3b4 <HAL_PCDEx_LPM_Callback+0x68>)
 800c372:	691b      	ldr	r3, [r3, #16]
 800c374:	4a0f      	ldr	r2, [pc, #60]	@ (800c3b4 <HAL_PCDEx_LPM_Callback+0x68>)
 800c376:	f023 0306 	bic.w	r3, r3, #6
 800c37a:	6113      	str	r3, [r2, #16]
 800c37c:	687b      	ldr	r3, [r7, #4]
 800c37e:	f8d3 32d8 	ldr.w	r3, [r3, #728]	@ 0x2d8
 800c382:	4618      	mov	r0, r3
 800c384:	f7fe fcaa 	bl	800acdc <USBD_LL_Resume>
 800c388:	e010      	b.n	800c3ac <HAL_PCDEx_LPM_Callback+0x60>
 800c38a:	687b      	ldr	r3, [r7, #4]
 800c38c:	f8d3 32d8 	ldr.w	r3, [r3, #728]	@ 0x2d8
 800c390:	4618      	mov	r0, r3
 800c392:	f7fe fc8d 	bl	800acb0 <USBD_LL_Suspend>
 800c396:	687b      	ldr	r3, [r7, #4]
 800c398:	7a5b      	ldrb	r3, [r3, #9]
 800c39a:	2b00      	cmp	r3, #0
 800c39c:	d005      	beq.n	800c3aa <HAL_PCDEx_LPM_Callback+0x5e>
 800c39e:	4b05      	ldr	r3, [pc, #20]	@ (800c3b4 <HAL_PCDEx_LPM_Callback+0x68>)
 800c3a0:	691b      	ldr	r3, [r3, #16]
 800c3a2:	4a04      	ldr	r2, [pc, #16]	@ (800c3b4 <HAL_PCDEx_LPM_Callback+0x68>)
 800c3a4:	f043 0306 	orr.w	r3, r3, #6
 800c3a8:	6113      	str	r3, [r2, #16]
 800c3aa:	bf00      	nop
 800c3ac:	bf00      	nop
 800c3ae:	3708      	adds	r7, #8
 800c3b0:	46bd      	mov	sp, r7
 800c3b2:	bd80      	pop	{r7, pc}
 800c3b4:	e000ed00 	.word	0xe000ed00

0800c3b8 <USBD_static_malloc>:
 800c3b8:	b480      	push	{r7}
 800c3ba:	b083      	sub	sp, #12
 800c3bc:	af00      	add	r7, sp, #0
 800c3be:	6078      	str	r0, [r7, #4]
 800c3c0:	4b03      	ldr	r3, [pc, #12]	@ (800c3d0 <USBD_static_malloc+0x18>)
 800c3c2:	4618      	mov	r0, r3
 800c3c4:	370c      	adds	r7, #12
 800c3c6:	46bd      	mov	sp, r7
 800c3c8:	f85d 7b04 	ldr.w	r7, [sp], #4
 800c3cc:	4770      	bx	lr
 800c3ce:	bf00      	nop
 800c3d0:	20001cfc 	.word	0x20001cfc

0800c3d4 <USBD_static_free>:
 800c3d4:	b480      	push	{r7}
 800c3d6:	b083      	sub	sp, #12
 800c3d8:	af00      	add	r7, sp, #0
 800c3da:	6078      	str	r0, [r7, #4]
 800c3dc:	bf00      	nop
 800c3de:	370c      	adds	r7, #12
 800c3e0:	46bd      	mov	sp, r7
 800c3e2:	f85d 7b04 	ldr.w	r7, [sp], #4
 800c3e6:	4770      	bx	lr

0800c3e8 <SystemClockConfig_Resume>:
 800c3e8:	b580      	push	{r7, lr}
 800c3ea:	af00      	add	r7, sp, #0
 800c3ec:	f7f5 fa36 	bl	800185c <SystemClock_Config>
 800c3f0:	bf00      	nop
 800c3f2:	bd80      	pop	{r7, pc}

0800c3f4 <USBD_Get_USB_Status>:
 800c3f4:	b480      	push	{r7}
 800c3f6:	b085      	sub	sp, #20
 800c3f8:	af00      	add	r7, sp, #0
 800c3fa:	4603      	mov	r3, r0
 800c3fc:	71fb      	strb	r3, [r7, #7]
 800c3fe:	2300      	movs	r3, #0
 800c400:	73fb      	strb	r3, [r7, #15]
 800c402:	79fb      	ldrb	r3, [r7, #7]
 800c404:	2b03      	cmp	r3, #3
 800c406:	d817      	bhi.n	800c438 <USBD_Get_USB_Status+0x44>
 800c408:	a201      	add	r2, pc, #4	@ (adr r2, 800c410 <USBD_Get_USB_Status+0x1c>)
 800c40a:	f852 f023 	ldr.w	pc, [r2, r3, lsl #2]
 800c40e:	bf00      	nop
 800c410:	0800c421 	.word	0x0800c421
 800c414:	0800c427 	.word	0x0800c427
 800c418:	0800c42d 	.word	0x0800c42d
 800c41c:	0800c433 	.word	0x0800c433
 800c420:	2300      	movs	r3, #0
 800c422:	73fb      	strb	r3, [r7, #15]
 800c424:	e00b      	b.n	800c43e <USBD_Get_USB_Status+0x4a>
 800c426:	2303      	movs	r3, #3
 800c428:	73fb      	strb	r3, [r7, #15]
 800c42a:	e008      	b.n	800c43e <USBD_Get_USB_Status+0x4a>
 800c42c:	2301      	movs	r3, #1
 800c42e:	73fb      	strb	r3, [r7, #15]
 800c430:	e005      	b.n	800c43e <USBD_Get_USB_Status+0x4a>
 800c432:	2303      	movs	r3, #3
 800c434:	73fb      	strb	r3, [r7, #15]
 800c436:	e002      	b.n	800c43e <USBD_Get_USB_Status+0x4a>
 800c438:	2303      	movs	r3, #3
 800c43a:	73fb      	strb	r3, [r7, #15]
 800c43c:	bf00      	nop
 800c43e:	7bfb      	ldrb	r3, [r7, #15]
 800c440:	4618      	mov	r0, r3
 800c442:	3714      	adds	r7, #20
 800c444:	46bd      	mov	sp, r7
 800c446:	f85d 7b04 	ldr.w	r7, [sp], #4
 800c44a:	4770      	bx	lr

0800c44c <memset>:
 800c44c:	4402      	add	r2, r0
 800c44e:	4603      	mov	r3, r0
 800c450:	4293      	cmp	r3, r2
 800c452:	d100      	bne.n	800c456 <memset+0xa>
 800c454:	4770      	bx	lr
 800c456:	f803 1b01 	strb.w	r1, [r3], #1
 800c45a:	e7f9      	b.n	800c450 <memset+0x4>

0800c45c <__libc_init_array>:
 800c45c:	b570      	push	{r4, r5, r6, lr}
 800c45e:	4d0d      	ldr	r5, [pc, #52]	@ (800c494 <__libc_init_array+0x38>)
 800c460:	4c0d      	ldr	r4, [pc, #52]	@ (800c498 <__libc_init_array+0x3c>)
 800c462:	1b64      	subs	r4, r4, r5
 800c464:	10a4      	asrs	r4, r4, #2
 800c466:	2600      	movs	r6, #0
 800c468:	42a6      	cmp	r6, r4
 800c46a:	d109      	bne.n	800c480 <__libc_init_array+0x24>
 800c46c:	4d0b      	ldr	r5, [pc, #44]	@ (800c49c <__libc_init_array+0x40>)
 800c46e:	4c0c      	ldr	r4, [pc, #48]	@ (800c4a0 <__libc_init_array+0x44>)
 800c470:	f001 f89e 	bl	800d5b0 <_init>
 800c474:	1b64      	subs	r4, r4, r5
 800c476:	10a4      	asrs	r4, r4, #2
 800c478:	2600      	movs	r6, #0
 800c47a:	42a6      	cmp	r6, r4
 800c47c:	d105      	bne.n	800c48a <__libc_init_array+0x2e>
 800c47e:	bd70      	pop	{r4, r5, r6, pc}
 800c480:	f855 3b04 	ldr.w	r3, [r5], #4
 800c484:	4798      	blx	r3
 800c486:	3601      	adds	r6, #1
 800c488:	e7ee      	b.n	800c468 <__libc_init_array+0xc>
 800c48a:	f855 3b04 	ldr.w	r3, [r5], #4
 800c48e:	4798      	blx	r3
 800c490:	3601      	adds	r6, #1
 800c492:	e7f2      	b.n	800c47a <__libc_init_array+0x1e>
 800c494:	0800d848 	.word	0x0800d848
 800c498:	0800d848 	.word	0x0800d848
 800c49c:	0800d848 	.word	0x0800d848
 800c4a0:	0800d84c 	.word	0x0800d84c

0800c4a4 <memcpy>:
 800c4a4:	440a      	add	r2, r1
 800c4a6:	4291      	cmp	r1, r2
 800c4a8:	f100 33ff 	add.w	r3, r0, #4294967295	@ 0xffffffff
 800c4ac:	d100      	bne.n	800c4b0 <memcpy+0xc>
 800c4ae:	4770      	bx	lr
 800c4b0:	b510      	push	{r4, lr}
 800c4b2:	f811 4b01 	ldrb.w	r4, [r1], #1
 800c4b6:	f803 4f01 	strb.w	r4, [r3, #1]!
 800c4ba:	4291      	cmp	r1, r2
 800c4bc:	d1f9      	bne.n	800c4b2 <memcpy+0xe>
 800c4be:	bd10      	pop	{r4, pc}

0800c4c0 <cos>:
 800c4c0:	b51f      	push	{r0, r1, r2, r3, r4, lr}
 800c4c2:	ec53 2b10 	vmov	r2, r3, d0
 800c4c6:	4826      	ldr	r0, [pc, #152]	@ (800c560 <cos+0xa0>)
 800c4c8:	f023 4100 	bic.w	r1, r3, #2147483648	@ 0x80000000
 800c4cc:	4281      	cmp	r1, r0
 800c4ce:	d806      	bhi.n	800c4de <cos+0x1e>
 800c4d0:	ed9f 1b21 	vldr	d1, [pc, #132]	@ 800c558 <cos+0x98>
 800c4d4:	b005      	add	sp, #20
 800c4d6:	f85d eb04 	ldr.w	lr, [sp], #4
 800c4da:	f000 b8a1 	b.w	800c620 <__kernel_cos>
 800c4de:	4821      	ldr	r0, [pc, #132]	@ (800c564 <cos+0xa4>)
 800c4e0:	4281      	cmp	r1, r0
 800c4e2:	d908      	bls.n	800c4f6 <cos+0x36>
 800c4e4:	4610      	mov	r0, r2
 800c4e6:	4619      	mov	r1, r3
 800c4e8:	f7f3 fe9a 	bl	8000220 <__aeabi_dsub>
 800c4ec:	ec41 0b10 	vmov	d0, r0, r1
 800c4f0:	b005      	add	sp, #20
 800c4f2:	f85d fb04 	ldr.w	pc, [sp], #4
 800c4f6:	4668      	mov	r0, sp
 800c4f8:	f000 fa16 	bl	800c928 <__ieee754_rem_pio2>
 800c4fc:	f000 0003 	and.w	r0, r0, #3
 800c500:	2801      	cmp	r0, #1
 800c502:	d00b      	beq.n	800c51c <cos+0x5c>
 800c504:	2802      	cmp	r0, #2
 800c506:	d015      	beq.n	800c534 <cos+0x74>
 800c508:	b9d8      	cbnz	r0, 800c542 <cos+0x82>
 800c50a:	ed9d 1b02 	vldr	d1, [sp, #8]
 800c50e:	ed9d 0b00 	vldr	d0, [sp]
 800c512:	f000 f885 	bl	800c620 <__kernel_cos>
 800c516:	ec51 0b10 	vmov	r0, r1, d0
 800c51a:	e7e7      	b.n	800c4ec <cos+0x2c>
 800c51c:	ed9d 1b02 	vldr	d1, [sp, #8]
 800c520:	ed9d 0b00 	vldr	d0, [sp]
 800c524:	f000 f944 	bl	800c7b0 <__kernel_sin>
 800c528:	ec53 2b10 	vmov	r2, r3, d0
 800c52c:	4610      	mov	r0, r2
 800c52e:	f103 4100 	add.w	r1, r3, #2147483648	@ 0x80000000
 800c532:	e7db      	b.n	800c4ec <cos+0x2c>
 800c534:	ed9d 1b02 	vldr	d1, [sp, #8]
 800c538:	ed9d 0b00 	vldr	d0, [sp]
 800c53c:	f000 f870 	bl	800c620 <__kernel_cos>
 800c540:	e7f2      	b.n	800c528 <cos+0x68>
 800c542:	ed9d 1b02 	vldr	d1, [sp, #8]
 800c546:	ed9d 0b00 	vldr	d0, [sp]
 800c54a:	2001      	movs	r0, #1
 800c54c:	f000 f930 	bl	800c7b0 <__kernel_sin>
 800c550:	e7e1      	b.n	800c516 <cos+0x56>
 800c552:	bf00      	nop
 800c554:	f3af 8000 	nop.w
	...
 800c560:	3fe921fb 	.word	0x3fe921fb
 800c564:	7fefffff 	.word	0x7fefffff

0800c568 <fabs>:
 800c568:	ec51 0b10 	vmov	r0, r1, d0
 800c56c:	4602      	mov	r2, r0
 800c56e:	f021 4300 	bic.w	r3, r1, #2147483648	@ 0x80000000
 800c572:	ec43 2b10 	vmov	d0, r2, r3
 800c576:	4770      	bx	lr

0800c578 <sin>:
 800c578:	b51f      	push	{r0, r1, r2, r3, r4, lr}
 800c57a:	ec53 2b10 	vmov	r2, r3, d0
 800c57e:	4826      	ldr	r0, [pc, #152]	@ (800c618 <sin+0xa0>)
 800c580:	f023 4100 	bic.w	r1, r3, #2147483648	@ 0x80000000
 800c584:	4281      	cmp	r1, r0
 800c586:	d807      	bhi.n	800c598 <sin+0x20>
 800c588:	ed9f 1b21 	vldr	d1, [pc, #132]	@ 800c610 <sin+0x98>
 800c58c:	2000      	movs	r0, #0
 800c58e:	b005      	add	sp, #20
 800c590:	f85d eb04 	ldr.w	lr, [sp], #4
 800c594:	f000 b90c 	b.w	800c7b0 <__kernel_sin>
 800c598:	4820      	ldr	r0, [pc, #128]	@ (800c61c <sin+0xa4>)
 800c59a:	4281      	cmp	r1, r0
 800c59c:	d908      	bls.n	800c5b0 <sin+0x38>
 800c59e:	4610      	mov	r0, r2
 800c5a0:	4619      	mov	r1, r3
 800c5a2:	f7f3 fe3d 	bl	8000220 <__aeabi_dsub>
 800c5a6:	ec41 0b10 	vmov	d0, r0, r1
 800c5aa:	b005      	add	sp, #20
 800c5ac:	f85d fb04 	ldr.w	pc, [sp], #4
 800c5b0:	4668      	mov	r0, sp
 800c5b2:	f000 f9b9 	bl	800c928 <__ieee754_rem_pio2>
 800c5b6:	f000 0003 	and.w	r0, r0, #3
 800c5ba:	2801      	cmp	r0, #1
 800c5bc:	d00c      	beq.n	800c5d8 <sin+0x60>
 800c5be:	2802      	cmp	r0, #2
 800c5c0:	d011      	beq.n	800c5e6 <sin+0x6e>
 800c5c2:	b9e8      	cbnz	r0, 800c600 <sin+0x88>
 800c5c4:	ed9d 1b02 	vldr	d1, [sp, #8]
 800c5c8:	ed9d 0b00 	vldr	d0, [sp]
 800c5cc:	2001      	movs	r0, #1
 800c5ce:	f000 f8ef 	bl	800c7b0 <__kernel_sin>
 800c5d2:	ec51 0b10 	vmov	r0, r1, d0
 800c5d6:	e7e6      	b.n	800c5a6 <sin+0x2e>
 800c5d8:	ed9d 1b02 	vldr	d1, [sp, #8]
 800c5dc:	ed9d 0b00 	vldr	d0, [sp]
 800c5e0:	f000 f81e 	bl	800c620 <__kernel_cos>
 800c5e4:	e7f5      	b.n	800c5d2 <sin+0x5a>
 800c5e6:	ed9d 1b02 	vldr	d1, [sp, #8]
 800c5ea:	ed9d 0b00 	vldr	d0, [sp]
 800c5ee:	2001      	movs	r0, #1
 800c5f0:	f000 f8de 	bl	800c7b0 <__kernel_sin>
 800c5f4:	ec53 2b10 	vmov	r2, r3, d0
 800c5f8:	4610      	mov	r0, r2
 800c5fa:	f103 4100 	add.w	r1, r3, #2147483648	@ 0x80000000
 800c5fe:	e7d2      	b.n	800c5a6 <sin+0x2e>
 800c600:	ed9d 1b02 	vldr	d1, [sp, #8]
 800c604:	ed9d 0b00 	vldr	d0, [sp]
 800c608:	f000 f80a 	bl	800c620 <__kernel_cos>
 800c60c:	e7f2      	b.n	800c5f4 <sin+0x7c>
 800c60e:	bf00      	nop
	...
 800c618:	3fe921fb 	.word	0x3fe921fb
 800c61c:	7fefffff 	.word	0x7fefffff

0800c620 <__kernel_cos>:
 800c620:	e92d 4ff7 	stmdb	sp!, {r0, r1, r2, r4, r5, r6, r7, r8, r9, sl, fp, lr}
 800c624:	ec57 6b10 	vmov	r6, r7, d0
 800c628:	f027 4800 	bic.w	r8, r7, #2147483648	@ 0x80000000
 800c62c:	f1b8 5f79 	cmp.w	r8, #1044381696	@ 0x3e400000
 800c630:	ed8d 1b00 	vstr	d1, [sp]
 800c634:	d206      	bcs.n	800c644 <__kernel_cos+0x24>
 800c636:	4630      	mov	r0, r6
 800c638:	4639      	mov	r1, r7
 800c63a:	f7f4 fa43 	bl	8000ac4 <__aeabi_d2iz>
 800c63e:	2800      	cmp	r0, #0
 800c640:	f000 8088 	beq.w	800c754 <__kernel_cos+0x134>
 800c644:	4632      	mov	r2, r6
 800c646:	463b      	mov	r3, r7
 800c648:	4630      	mov	r0, r6
 800c64a:	4639      	mov	r1, r7
 800c64c:	f7f3 ffa0 	bl	8000590 <__aeabi_dmul>
 800c650:	4b51      	ldr	r3, [pc, #324]	@ (800c798 <__kernel_cos+0x178>)
 800c652:	2200      	movs	r2, #0
 800c654:	4604      	mov	r4, r0
 800c656:	460d      	mov	r5, r1
 800c658:	f7f3 ff9a 	bl	8000590 <__aeabi_dmul>
 800c65c:	a340      	add	r3, pc, #256	@ (adr r3, 800c760 <__kernel_cos+0x140>)
 800c65e:	e9d3 2300 	ldrd	r2, r3, [r3]
 800c662:	4682      	mov	sl, r0
 800c664:	468b      	mov	fp, r1
 800c666:	4620      	mov	r0, r4
 800c668:	4629      	mov	r1, r5
 800c66a:	f7f3 ff91 	bl	8000590 <__aeabi_dmul>
 800c66e:	a33e      	add	r3, pc, #248	@ (adr r3, 800c768 <__kernel_cos+0x148>)
 800c670:	e9d3 2300 	ldrd	r2, r3, [r3]
 800c674:	f7f3 fdd6 	bl	8000224 <__adddf3>
 800c678:	4622      	mov	r2, r4
 800c67a:	462b      	mov	r3, r5
 800c67c:	f7f3 ff88 	bl	8000590 <__aeabi_dmul>
 800c680:	a33b      	add	r3, pc, #236	@ (adr r3, 800c770 <__kernel_cos+0x150>)
 800c682:	e9d3 2300 	ldrd	r2, r3, [r3]
 800c686:	f7f3 fdcb 	bl	8000220 <__aeabi_dsub>
 800c68a:	4622      	mov	r2, r4
 800c68c:	462b      	mov	r3, r5
 800c68e:	f7f3 ff7f 	bl	8000590 <__aeabi_dmul>
 800c692:	a339      	add	r3, pc, #228	@ (adr r3, 800c778 <__kernel_cos+0x158>)
 800c694:	e9d3 2300 	ldrd	r2, r3, [r3]
 800c698:	f7f3 fdc4 	bl	8000224 <__adddf3>
 800c69c:	4622      	mov	r2, r4
 800c69e:	462b      	mov	r3, r5
 800c6a0:	f7f3 ff76 	bl	8000590 <__aeabi_dmul>
 800c6a4:	a336      	add	r3, pc, #216	@ (adr r3, 800c780 <__kernel_cos+0x160>)
 800c6a6:	e9d3 2300 	ldrd	r2, r3, [r3]
 800c6aa:	f7f3 fdb9 	bl	8000220 <__aeabi_dsub>
 800c6ae:	4622      	mov	r2, r4
 800c6b0:	462b      	mov	r3, r5
 800c6b2:	f7f3 ff6d 	bl	8000590 <__aeabi_dmul>
 800c6b6:	a334      	add	r3, pc, #208	@ (adr r3, 800c788 <__kernel_cos+0x168>)
 800c6b8:	e9d3 2300 	ldrd	r2, r3, [r3]
 800c6bc:	f7f3 fdb2 	bl	8000224 <__adddf3>
 800c6c0:	4622      	mov	r2, r4
 800c6c2:	462b      	mov	r3, r5
 800c6c4:	f7f3 ff64 	bl	8000590 <__aeabi_dmul>
 800c6c8:	4622      	mov	r2, r4
 800c6ca:	462b      	mov	r3, r5
 800c6cc:	f7f3 ff60 	bl	8000590 <__aeabi_dmul>
 800c6d0:	e9dd 2300 	ldrd	r2, r3, [sp]
 800c6d4:	4604      	mov	r4, r0
 800c6d6:	460d      	mov	r5, r1
 800c6d8:	4630      	mov	r0, r6
 800c6da:	4639      	mov	r1, r7
 800c6dc:	f7f3 ff58 	bl	8000590 <__aeabi_dmul>
 800c6e0:	460b      	mov	r3, r1
 800c6e2:	4602      	mov	r2, r0
 800c6e4:	4629      	mov	r1, r5
 800c6e6:	4620      	mov	r0, r4
 800c6e8:	f7f3 fd9a 	bl	8000220 <__aeabi_dsub>
 800c6ec:	4b2b      	ldr	r3, [pc, #172]	@ (800c79c <__kernel_cos+0x17c>)
 800c6ee:	4598      	cmp	r8, r3
 800c6f0:	4606      	mov	r6, r0
 800c6f2:	460f      	mov	r7, r1
 800c6f4:	d810      	bhi.n	800c718 <__kernel_cos+0xf8>
 800c6f6:	4602      	mov	r2, r0
 800c6f8:	460b      	mov	r3, r1
 800c6fa:	4650      	mov	r0, sl
 800c6fc:	4659      	mov	r1, fp
 800c6fe:	f7f3 fd8f 	bl	8000220 <__aeabi_dsub>
 800c702:	460b      	mov	r3, r1
 800c704:	4926      	ldr	r1, [pc, #152]	@ (800c7a0 <__kernel_cos+0x180>)
 800c706:	4602      	mov	r2, r0
 800c708:	2000      	movs	r0, #0
 800c70a:	f7f3 fd89 	bl	8000220 <__aeabi_dsub>
 800c70e:	ec41 0b10 	vmov	d0, r0, r1
 800c712:	b003      	add	sp, #12
 800c714:	e8bd 8ff0 	ldmia.w	sp!, {r4, r5, r6, r7, r8, r9, sl, fp, pc}
 800c718:	4b22      	ldr	r3, [pc, #136]	@ (800c7a4 <__kernel_cos+0x184>)
 800c71a:	4921      	ldr	r1, [pc, #132]	@ (800c7a0 <__kernel_cos+0x180>)
 800c71c:	4598      	cmp	r8, r3
 800c71e:	bf8c      	ite	hi
 800c720:	4d21      	ldrhi	r5, [pc, #132]	@ (800c7a8 <__kernel_cos+0x188>)
 800c722:	f5a8 1500 	subls.w	r5, r8, #2097152	@ 0x200000
 800c726:	2400      	movs	r4, #0
 800c728:	4622      	mov	r2, r4
 800c72a:	462b      	mov	r3, r5
 800c72c:	2000      	movs	r0, #0
 800c72e:	f7f3 fd77 	bl	8000220 <__aeabi_dsub>
 800c732:	4622      	mov	r2, r4
 800c734:	4680      	mov	r8, r0
 800c736:	4689      	mov	r9, r1
 800c738:	462b      	mov	r3, r5
 800c73a:	4650      	mov	r0, sl
 800c73c:	4659      	mov	r1, fp
 800c73e:	f7f3 fd6f 	bl	8000220 <__aeabi_dsub>
 800c742:	4632      	mov	r2, r6
 800c744:	463b      	mov	r3, r7
 800c746:	f7f3 fd6b 	bl	8000220 <__aeabi_dsub>
 800c74a:	4602      	mov	r2, r0
 800c74c:	460b      	mov	r3, r1
 800c74e:	4640      	mov	r0, r8
 800c750:	4649      	mov	r1, r9
 800c752:	e7da      	b.n	800c70a <__kernel_cos+0xea>
 800c754:	ed9f 0b0e 	vldr	d0, [pc, #56]	@ 800c790 <__kernel_cos+0x170>
 800c758:	e7db      	b.n	800c712 <__kernel_cos+0xf2>
 800c75a:	bf00      	nop
 800c75c:	f3af 8000 	nop.w
 800c760:	be8838d4 	.word	0xbe8838d4
 800c764:	bda8fae9 	.word	0xbda8fae9
 800c768:	bdb4b1c4 	.word	0xbdb4b1c4
 800c76c:	3e21ee9e 	.word	0x3e21ee9e
 800c770:	809c52ad 	.word	0x809c52ad
 800c774:	3e927e4f 	.word	0x3e927e4f
 800c778:	19cb1590 	.word	0x19cb1590
 800c77c:	3efa01a0 	.word	0x3efa01a0
 800c780:	16c15177 	.word	0x16c15177
 800c784:	3f56c16c 	.word	0x3f56c16c
 800c788:	5555554c 	.word	0x5555554c
 800c78c:	3fa55555 	.word	0x3fa55555
 800c790:	00000000 	.word	0x00000000
 800c794:	3ff00000 	.word	0x3ff00000
 800c798:	3fe00000 	.word	0x3fe00000
 800c79c:	3fd33332 	.word	0x3fd33332
 800c7a0:	3ff00000 	.word	0x3ff00000
 800c7a4:	3fe90000 	.word	0x3fe90000
 800c7a8:	3fd20000 	.word	0x3fd20000
 800c7ac:	00000000 	.word	0x00000000

0800c7b0 <__kernel_sin>:
 800c7b0:	e92d 4ff0 	stmdb	sp!, {r4, r5, r6, r7, r8, r9, sl, fp, lr}
 800c7b4:	ec55 4b10 	vmov	r4, r5, d0
 800c7b8:	f025 4300 	bic.w	r3, r5, #2147483648	@ 0x80000000
 800c7bc:	b085      	sub	sp, #20
 800c7be:	f1b3 5f79 	cmp.w	r3, #1044381696	@ 0x3e400000
 800c7c2:	ed8d 1b02 	vstr	d1, [sp, #8]
 800c7c6:	4680      	mov	r8, r0
 800c7c8:	d205      	bcs.n	800c7d6 <__kernel_sin+0x26>
 800c7ca:	4620      	mov	r0, r4
 800c7cc:	4629      	mov	r1, r5
 800c7ce:	f7f4 f979 	bl	8000ac4 <__aeabi_d2iz>
 800c7d2:	2800      	cmp	r0, #0
 800c7d4:	d052      	beq.n	800c87c <__kernel_sin+0xcc>
 800c7d6:	4622      	mov	r2, r4
 800c7d8:	462b      	mov	r3, r5
 800c7da:	4620      	mov	r0, r4
 800c7dc:	4629      	mov	r1, r5
 800c7de:	f7f3 fed7 	bl	8000590 <__aeabi_dmul>
 800c7e2:	4682      	mov	sl, r0
 800c7e4:	468b      	mov	fp, r1
 800c7e6:	4602      	mov	r2, r0
 800c7e8:	460b      	mov	r3, r1
 800c7ea:	4620      	mov	r0, r4
 800c7ec:	4629      	mov	r1, r5
 800c7ee:	f7f3 fecf 	bl	8000590 <__aeabi_dmul>
 800c7f2:	a342      	add	r3, pc, #264	@ (adr r3, 800c8fc <__kernel_sin+0x14c>)
 800c7f4:	e9d3 2300 	ldrd	r2, r3, [r3]
 800c7f8:	e9cd 0100 	strd	r0, r1, [sp]
 800c7fc:	4650      	mov	r0, sl
 800c7fe:	4659      	mov	r1, fp
 800c800:	f7f3 fec6 	bl	8000590 <__aeabi_dmul>
 800c804:	a33f      	add	r3, pc, #252	@ (adr r3, 800c904 <__kernel_sin+0x154>)
 800c806:	e9d3 2300 	ldrd	r2, r3, [r3]
 800c80a:	f7f3 fd09 	bl	8000220 <__aeabi_dsub>
 800c80e:	4652      	mov	r2, sl
 800c810:	465b      	mov	r3, fp
 800c812:	f7f3 febd 	bl	8000590 <__aeabi_dmul>
 800c816:	a33d      	add	r3, pc, #244	@ (adr r3, 800c90c <__kernel_sin+0x15c>)
 800c818:	e9d3 2300 	ldrd	r2, r3, [r3]
 800c81c:	f7f3 fd02 	bl	8000224 <__adddf3>
 800c820:	4652      	mov	r2, sl
 800c822:	465b      	mov	r3, fp
 800c824:	f7f3 feb4 	bl	8000590 <__aeabi_dmul>
 800c828:	a33a      	add	r3, pc, #232	@ (adr r3, 800c914 <__kernel_sin+0x164>)
 800c82a:	e9d3 2300 	ldrd	r2, r3, [r3]
 800c82e:	f7f3 fcf7 	bl	8000220 <__aeabi_dsub>
 800c832:	4652      	mov	r2, sl
 800c834:	465b      	mov	r3, fp
 800c836:	f7f3 feab 	bl	8000590 <__aeabi_dmul>
 800c83a:	a338      	add	r3, pc, #224	@ (adr r3, 800c91c <__kernel_sin+0x16c>)
 800c83c:	e9d3 2300 	ldrd	r2, r3, [r3]
 800c840:	f7f3 fcf0 	bl	8000224 <__adddf3>
 800c844:	4606      	mov	r6, r0
 800c846:	460f      	mov	r7, r1
 800c848:	f1b8 0f00 	cmp.w	r8, #0
 800c84c:	d11b      	bne.n	800c886 <__kernel_sin+0xd6>
 800c84e:	4602      	mov	r2, r0
 800c850:	460b      	mov	r3, r1
 800c852:	4650      	mov	r0, sl
 800c854:	4659      	mov	r1, fp
 800c856:	f7f3 fe9b 	bl	8000590 <__aeabi_dmul>
 800c85a:	a325      	add	r3, pc, #148	@ (adr r3, 800c8f0 <__kernel_sin+0x140>)
 800c85c:	e9d3 2300 	ldrd	r2, r3, [r3]
 800c860:	f7f3 fcde 	bl	8000220 <__aeabi_dsub>
 800c864:	e9dd 2300 	ldrd	r2, r3, [sp]
 800c868:	f7f3 fe92 	bl	8000590 <__aeabi_dmul>
 800c86c:	4602      	mov	r2, r0
 800c86e:	460b      	mov	r3, r1
 800c870:	4620      	mov	r0, r4
 800c872:	4629      	mov	r1, r5
 800c874:	f7f3 fcd6 	bl	8000224 <__adddf3>
 800c878:	4604      	mov	r4, r0
 800c87a:	460d      	mov	r5, r1
 800c87c:	ec45 4b10 	vmov	d0, r4, r5
 800c880:	b005      	add	sp, #20
 800c882:	e8bd 8ff0 	ldmia.w	sp!, {r4, r5, r6, r7, r8, r9, sl, fp, pc}
 800c886:	e9dd 0102 	ldrd	r0, r1, [sp, #8]
 800c88a:	4b1b      	ldr	r3, [pc, #108]	@ (800c8f8 <__kernel_sin+0x148>)
 800c88c:	2200      	movs	r2, #0
 800c88e:	f7f3 fe7f 	bl	8000590 <__aeabi_dmul>
 800c892:	4632      	mov	r2, r6
 800c894:	4680      	mov	r8, r0
 800c896:	4689      	mov	r9, r1
 800c898:	463b      	mov	r3, r7
 800c89a:	e9dd 0100 	ldrd	r0, r1, [sp]
 800c89e:	f7f3 fe77 	bl	8000590 <__aeabi_dmul>
 800c8a2:	4602      	mov	r2, r0
 800c8a4:	460b      	mov	r3, r1
 800c8a6:	4640      	mov	r0, r8
 800c8a8:	4649      	mov	r1, r9
 800c8aa:	f7f3 fcb9 	bl	8000220 <__aeabi_dsub>
 800c8ae:	4652      	mov	r2, sl
 800c8b0:	465b      	mov	r3, fp
 800c8b2:	f7f3 fe6d 	bl	8000590 <__aeabi_dmul>
 800c8b6:	e9dd 2302 	ldrd	r2, r3, [sp, #8]
 800c8ba:	f7f3 fcb1 	bl	8000220 <__aeabi_dsub>
 800c8be:	a30c      	add	r3, pc, #48	@ (adr r3, 800c8f0 <__kernel_sin+0x140>)
 800c8c0:	e9d3 2300 	ldrd	r2, r3, [r3]
 800c8c4:	4606      	mov	r6, r0
 800c8c6:	460f      	mov	r7, r1
 800c8c8:	e9dd 0100 	ldrd	r0, r1, [sp]
 800c8cc:	f7f3 fe60 	bl	8000590 <__aeabi_dmul>
 800c8d0:	4602      	mov	r2, r0
 800c8d2:	460b      	mov	r3, r1
 800c8d4:	4630      	mov	r0, r6
 800c8d6:	4639      	mov	r1, r7
 800c8d8:	f7f3 fca4 	bl	8000224 <__adddf3>
 800c8dc:	4602      	mov	r2, r0
 800c8de:	460b      	mov	r3, r1
 800c8e0:	4620      	mov	r0, r4
 800c8e2:	4629      	mov	r1, r5
 800c8e4:	f7f3 fc9c 	bl	8000220 <__aeabi_dsub>
 800c8e8:	e7c6      	b.n	800c878 <__kernel_sin+0xc8>
 800c8ea:	bf00      	nop
 800c8ec:	f3af 8000 	nop.w
 800c8f0:	55555549 	.word	0x55555549
 800c8f4:	3fc55555 	.word	0x3fc55555
 800c8f8:	3fe00000 	.word	0x3fe00000
 800c8fc:	5acfd57c 	.word	0x5acfd57c
 800c900:	3de5d93a 	.word	0x3de5d93a
 800c904:	8a2b9ceb 	.word	0x8a2b9ceb
 800c908:	3e5ae5e6 	.word	0x3e5ae5e6
 800c90c:	57b1fe7d 	.word	0x57b1fe7d
 800c910:	3ec71de3 	.word	0x3ec71de3
 800c914:	19c161d5 	.word	0x19c161d5
 800c918:	3f2a01a0 	.word	0x3f2a01a0
 800c91c:	1110f8a6 	.word	0x1110f8a6
 800c920:	3f811111 	.word	0x3f811111
 800c924:	00000000 	.word	0x00000000

0800c928 <__ieee754_rem_pio2>:
 800c928:	e92d 4ff0 	stmdb	sp!, {r4, r5, r6, r7, r8, r9, sl, fp, lr}
 800c92c:	ec57 6b10 	vmov	r6, r7, d0
 800c930:	4bc5      	ldr	r3, [pc, #788]	@ (800cc48 <__ieee754_rem_pio2+0x320>)
 800c932:	b08d      	sub	sp, #52	@ 0x34
 800c934:	f027 4800 	bic.w	r8, r7, #2147483648	@ 0x80000000
 800c938:	4598      	cmp	r8, r3
 800c93a:	4604      	mov	r4, r0
 800c93c:	9704      	str	r7, [sp, #16]
 800c93e:	d807      	bhi.n	800c950 <__ieee754_rem_pio2+0x28>
 800c940:	2200      	movs	r2, #0
 800c942:	2300      	movs	r3, #0
 800c944:	ed80 0b00 	vstr	d0, [r0]
 800c948:	e9c0 2302 	strd	r2, r3, [r0, #8]
 800c94c:	2500      	movs	r5, #0
 800c94e:	e028      	b.n	800c9a2 <__ieee754_rem_pio2+0x7a>
 800c950:	4bbe      	ldr	r3, [pc, #760]	@ (800cc4c <__ieee754_rem_pio2+0x324>)
 800c952:	4598      	cmp	r8, r3
 800c954:	d878      	bhi.n	800ca48 <__ieee754_rem_pio2+0x120>
 800c956:	9b04      	ldr	r3, [sp, #16]
 800c958:	4dbd      	ldr	r5, [pc, #756]	@ (800cc50 <__ieee754_rem_pio2+0x328>)
 800c95a:	2b00      	cmp	r3, #0
 800c95c:	4630      	mov	r0, r6
 800c95e:	a3ac      	add	r3, pc, #688	@ (adr r3, 800cc10 <__ieee754_rem_pio2+0x2e8>)
 800c960:	e9d3 2300 	ldrd	r2, r3, [r3]
 800c964:	4639      	mov	r1, r7
 800c966:	dd38      	ble.n	800c9da <__ieee754_rem_pio2+0xb2>
 800c968:	f7f3 fc5a 	bl	8000220 <__aeabi_dsub>
 800c96c:	45a8      	cmp	r8, r5
 800c96e:	4606      	mov	r6, r0
 800c970:	460f      	mov	r7, r1
 800c972:	d01a      	beq.n	800c9aa <__ieee754_rem_pio2+0x82>
 800c974:	a3a8      	add	r3, pc, #672	@ (adr r3, 800cc18 <__ieee754_rem_pio2+0x2f0>)
 800c976:	e9d3 2300 	ldrd	r2, r3, [r3]
 800c97a:	f7f3 fc51 	bl	8000220 <__aeabi_dsub>
 800c97e:	4602      	mov	r2, r0
 800c980:	460b      	mov	r3, r1
 800c982:	4680      	mov	r8, r0
 800c984:	4689      	mov	r9, r1
 800c986:	4630      	mov	r0, r6
 800c988:	4639      	mov	r1, r7
 800c98a:	f7f3 fc49 	bl	8000220 <__aeabi_dsub>
 800c98e:	a3a2      	add	r3, pc, #648	@ (adr r3, 800cc18 <__ieee754_rem_pio2+0x2f0>)
 800c990:	e9d3 2300 	ldrd	r2, r3, [r3]
 800c994:	f7f3 fc44 	bl	8000220 <__aeabi_dsub>
 800c998:	e9c4 8900 	strd	r8, r9, [r4]
 800c99c:	e9c4 0102 	strd	r0, r1, [r4, #8]
 800c9a0:	2501      	movs	r5, #1
 800c9a2:	4628      	mov	r0, r5
 800c9a4:	b00d      	add	sp, #52	@ 0x34
 800c9a6:	e8bd 8ff0 	ldmia.w	sp!, {r4, r5, r6, r7, r8, r9, sl, fp, pc}
 800c9aa:	a39d      	add	r3, pc, #628	@ (adr r3, 800cc20 <__ieee754_rem_pio2+0x2f8>)
 800c9ac:	e9d3 2300 	ldrd	r2, r3, [r3]
 800c9b0:	f7f3 fc36 	bl	8000220 <__aeabi_dsub>
 800c9b4:	a39c      	add	r3, pc, #624	@ (adr r3, 800cc28 <__ieee754_rem_pio2+0x300>)
 800c9b6:	e9d3 2300 	ldrd	r2, r3, [r3]
 800c9ba:	4606      	mov	r6, r0
 800c9bc:	460f      	mov	r7, r1
 800c9be:	f7f3 fc2f 	bl	8000220 <__aeabi_dsub>
 800c9c2:	4602      	mov	r2, r0
 800c9c4:	460b      	mov	r3, r1
 800c9c6:	4680      	mov	r8, r0
 800c9c8:	4689      	mov	r9, r1
 800c9ca:	4630      	mov	r0, r6
 800c9cc:	4639      	mov	r1, r7
 800c9ce:	f7f3 fc27 	bl	8000220 <__aeabi_dsub>
 800c9d2:	a395      	add	r3, pc, #596	@ (adr r3, 800cc28 <__ieee754_rem_pio2+0x300>)
 800c9d4:	e9d3 2300 	ldrd	r2, r3, [r3]
 800c9d8:	e7dc      	b.n	800c994 <__ieee754_rem_pio2+0x6c>
 800c9da:	f7f3 fc23 	bl	8000224 <__adddf3>
 800c9de:	45a8      	cmp	r8, r5
 800c9e0:	4606      	mov	r6, r0
 800c9e2:	460f      	mov	r7, r1
 800c9e4:	d018      	beq.n	800ca18 <__ieee754_rem_pio2+0xf0>
 800c9e6:	a38c      	add	r3, pc, #560	@ (adr r3, 800cc18 <__ieee754_rem_pio2+0x2f0>)
 800c9e8:	e9d3 2300 	ldrd	r2, r3, [r3]
 800c9ec:	f7f3 fc1a 	bl	8000224 <__adddf3>
 800c9f0:	4602      	mov	r2, r0
 800c9f2:	460b      	mov	r3, r1
 800c9f4:	4680      	mov	r8, r0
 800c9f6:	4689      	mov	r9, r1
 800c9f8:	4630      	mov	r0, r6
 800c9fa:	4639      	mov	r1, r7
 800c9fc:	f7f3 fc10 	bl	8000220 <__aeabi_dsub>
 800ca00:	a385      	add	r3, pc, #532	@ (adr r3, 800cc18 <__ieee754_rem_pio2+0x2f0>)
 800ca02:	e9d3 2300 	ldrd	r2, r3, [r3]
 800ca06:	f7f3 fc0d 	bl	8000224 <__adddf3>
 800ca0a:	f04f 35ff 	mov.w	r5, #4294967295	@ 0xffffffff
 800ca0e:	e9c4 8900 	strd	r8, r9, [r4]
 800ca12:	e9c4 0102 	strd	r0, r1, [r4, #8]
 800ca16:	e7c4      	b.n	800c9a2 <__ieee754_rem_pio2+0x7a>
 800ca18:	a381      	add	r3, pc, #516	@ (adr r3, 800cc20 <__ieee754_rem_pio2+0x2f8>)
 800ca1a:	e9d3 2300 	ldrd	r2, r3, [r3]
 800ca1e:	f7f3 fc01 	bl	8000224 <__adddf3>
 800ca22:	a381      	add	r3, pc, #516	@ (adr r3, 800cc28 <__ieee754_rem_pio2+0x300>)
 800ca24:	e9d3 2300 	ldrd	r2, r3, [r3]
 800ca28:	4606      	mov	r6, r0
 800ca2a:	460f      	mov	r7, r1
 800ca2c:	f7f3 fbfa 	bl	8000224 <__adddf3>
 800ca30:	4602      	mov	r2, r0
 800ca32:	460b      	mov	r3, r1
 800ca34:	4680      	mov	r8, r0
 800ca36:	4689      	mov	r9, r1
 800ca38:	4630      	mov	r0, r6
 800ca3a:	4639      	mov	r1, r7
 800ca3c:	f7f3 fbf0 	bl	8000220 <__aeabi_dsub>
 800ca40:	a379      	add	r3, pc, #484	@ (adr r3, 800cc28 <__ieee754_rem_pio2+0x300>)
 800ca42:	e9d3 2300 	ldrd	r2, r3, [r3]
 800ca46:	e7de      	b.n	800ca06 <__ieee754_rem_pio2+0xde>
 800ca48:	4b82      	ldr	r3, [pc, #520]	@ (800cc54 <__ieee754_rem_pio2+0x32c>)
 800ca4a:	4598      	cmp	r8, r3
 800ca4c:	f200 80d1 	bhi.w	800cbf2 <__ieee754_rem_pio2+0x2ca>
 800ca50:	f7ff fd8a 	bl	800c568 <fabs>
 800ca54:	ec57 6b10 	vmov	r6, r7, d0
 800ca58:	a375      	add	r3, pc, #468	@ (adr r3, 800cc30 <__ieee754_rem_pio2+0x308>)
 800ca5a:	e9d3 2300 	ldrd	r2, r3, [r3]
 800ca5e:	4630      	mov	r0, r6
 800ca60:	4639      	mov	r1, r7
 800ca62:	f7f3 fd95 	bl	8000590 <__aeabi_dmul>
 800ca66:	4b7c      	ldr	r3, [pc, #496]	@ (800cc58 <__ieee754_rem_pio2+0x330>)
 800ca68:	2200      	movs	r2, #0
 800ca6a:	f7f3 fbdb 	bl	8000224 <__adddf3>
 800ca6e:	f7f4 f829 	bl	8000ac4 <__aeabi_d2iz>
 800ca72:	4605      	mov	r5, r0
 800ca74:	f7f3 fd22 	bl	80004bc <__aeabi_i2d>
 800ca78:	4602      	mov	r2, r0
 800ca7a:	460b      	mov	r3, r1
 800ca7c:	e9cd 2302 	strd	r2, r3, [sp, #8]
 800ca80:	a363      	add	r3, pc, #396	@ (adr r3, 800cc10 <__ieee754_rem_pio2+0x2e8>)
 800ca82:	e9d3 2300 	ldrd	r2, r3, [r3]
 800ca86:	f7f3 fd83 	bl	8000590 <__aeabi_dmul>
 800ca8a:	4602      	mov	r2, r0
 800ca8c:	460b      	mov	r3, r1
 800ca8e:	4630      	mov	r0, r6
 800ca90:	4639      	mov	r1, r7
 800ca92:	f7f3 fbc5 	bl	8000220 <__aeabi_dsub>
 800ca96:	a360      	add	r3, pc, #384	@ (adr r3, 800cc18 <__ieee754_rem_pio2+0x2f0>)
 800ca98:	e9d3 2300 	ldrd	r2, r3, [r3]
 800ca9c:	4682      	mov	sl, r0
 800ca9e:	468b      	mov	fp, r1
 800caa0:	e9dd 0102 	ldrd	r0, r1, [sp, #8]
 800caa4:	f7f3 fd74 	bl	8000590 <__aeabi_dmul>
 800caa8:	2d1f      	cmp	r5, #31
 800caaa:	4606      	mov	r6, r0
 800caac:	460f      	mov	r7, r1
 800caae:	dc0c      	bgt.n	800caca <__ieee754_rem_pio2+0x1a2>
 800cab0:	4b6a      	ldr	r3, [pc, #424]	@ (800cc5c <__ieee754_rem_pio2+0x334>)
 800cab2:	1e6a      	subs	r2, r5, #1
 800cab4:	f853 3022 	ldr.w	r3, [r3, r2, lsl #2]
 800cab8:	4543      	cmp	r3, r8
 800caba:	d006      	beq.n	800caca <__ieee754_rem_pio2+0x1a2>
 800cabc:	4632      	mov	r2, r6
 800cabe:	463b      	mov	r3, r7
 800cac0:	4650      	mov	r0, sl
 800cac2:	4659      	mov	r1, fp
 800cac4:	f7f3 fbac 	bl	8000220 <__aeabi_dsub>
 800cac8:	e00e      	b.n	800cae8 <__ieee754_rem_pio2+0x1c0>
 800caca:	463b      	mov	r3, r7
 800cacc:	4632      	mov	r2, r6
 800cace:	4650      	mov	r0, sl
 800cad0:	4659      	mov	r1, fp
 800cad2:	f7f3 fba5 	bl	8000220 <__aeabi_dsub>
 800cad6:	ea4f 5328 	mov.w	r3, r8, asr #20
 800cada:	9305      	str	r3, [sp, #20]
 800cadc:	f3c1 530a 	ubfx	r3, r1, #20, #11
 800cae0:	ebc3 5318 	rsb	r3, r3, r8, lsr #20
 800cae4:	2b10      	cmp	r3, #16
 800cae6:	dc02      	bgt.n	800caee <__ieee754_rem_pio2+0x1c6>
 800cae8:	e9c4 0100 	strd	r0, r1, [r4]
 800caec:	e039      	b.n	800cb62 <__ieee754_rem_pio2+0x23a>
 800caee:	a34c      	add	r3, pc, #304	@ (adr r3, 800cc20 <__ieee754_rem_pio2+0x2f8>)
 800caf0:	e9d3 2300 	ldrd	r2, r3, [r3]
 800caf4:	e9dd 0102 	ldrd	r0, r1, [sp, #8]
 800caf8:	f7f3 fd4a 	bl	8000590 <__aeabi_dmul>
 800cafc:	4606      	mov	r6, r0
 800cafe:	460f      	mov	r7, r1
 800cb00:	4602      	mov	r2, r0
 800cb02:	460b      	mov	r3, r1
 800cb04:	4650      	mov	r0, sl
 800cb06:	4659      	mov	r1, fp
 800cb08:	f7f3 fb8a 	bl	8000220 <__aeabi_dsub>
 800cb0c:	4602      	mov	r2, r0
 800cb0e:	460b      	mov	r3, r1
 800cb10:	4680      	mov	r8, r0
 800cb12:	4689      	mov	r9, r1
 800cb14:	4650      	mov	r0, sl
 800cb16:	4659      	mov	r1, fp
 800cb18:	f7f3 fb82 	bl	8000220 <__aeabi_dsub>
 800cb1c:	4632      	mov	r2, r6
 800cb1e:	463b      	mov	r3, r7
 800cb20:	f7f3 fb7e 	bl	8000220 <__aeabi_dsub>
 800cb24:	a340      	add	r3, pc, #256	@ (adr r3, 800cc28 <__ieee754_rem_pio2+0x300>)
 800cb26:	e9d3 2300 	ldrd	r2, r3, [r3]
 800cb2a:	4606      	mov	r6, r0
 800cb2c:	460f      	mov	r7, r1
 800cb2e:	e9dd 0102 	ldrd	r0, r1, [sp, #8]
 800cb32:	f7f3 fd2d 	bl	8000590 <__aeabi_dmul>
 800cb36:	4632      	mov	r2, r6
 800cb38:	463b      	mov	r3, r7
 800cb3a:	f7f3 fb71 	bl	8000220 <__aeabi_dsub>
 800cb3e:	4602      	mov	r2, r0
 800cb40:	460b      	mov	r3, r1
 800cb42:	4606      	mov	r6, r0
 800cb44:	460f      	mov	r7, r1
 800cb46:	4640      	mov	r0, r8
 800cb48:	4649      	mov	r1, r9
 800cb4a:	f7f3 fb69 	bl	8000220 <__aeabi_dsub>
 800cb4e:	9a05      	ldr	r2, [sp, #20]
 800cb50:	f3c1 530a 	ubfx	r3, r1, #20, #11
 800cb54:	1ad3      	subs	r3, r2, r3
 800cb56:	2b31      	cmp	r3, #49	@ 0x31
 800cb58:	dc20      	bgt.n	800cb9c <__ieee754_rem_pio2+0x274>
 800cb5a:	e9c4 0100 	strd	r0, r1, [r4]
 800cb5e:	46c2      	mov	sl, r8
 800cb60:	46cb      	mov	fp, r9
 800cb62:	e9d4 8900 	ldrd	r8, r9, [r4]
 800cb66:	4650      	mov	r0, sl
 800cb68:	4642      	mov	r2, r8
 800cb6a:	464b      	mov	r3, r9
 800cb6c:	4659      	mov	r1, fp
 800cb6e:	f7f3 fb57 	bl	8000220 <__aeabi_dsub>
 800cb72:	463b      	mov	r3, r7
 800cb74:	4632      	mov	r2, r6
 800cb76:	f7f3 fb53 	bl	8000220 <__aeabi_dsub>
 800cb7a:	9b04      	ldr	r3, [sp, #16]
 800cb7c:	2b00      	cmp	r3, #0
 800cb7e:	e9c4 0102 	strd	r0, r1, [r4, #8]
 800cb82:	f6bf af0e 	bge.w	800c9a2 <__ieee754_rem_pio2+0x7a>
 800cb86:	f109 4300 	add.w	r3, r9, #2147483648	@ 0x80000000
 800cb8a:	6063      	str	r3, [r4, #4]
 800cb8c:	f101 4300 	add.w	r3, r1, #2147483648	@ 0x80000000
 800cb90:	f8c4 8000 	str.w	r8, [r4]
 800cb94:	60a0      	str	r0, [r4, #8]
 800cb96:	60e3      	str	r3, [r4, #12]
 800cb98:	426d      	negs	r5, r5
 800cb9a:	e702      	b.n	800c9a2 <__ieee754_rem_pio2+0x7a>
 800cb9c:	a326      	add	r3, pc, #152	@ (adr r3, 800cc38 <__ieee754_rem_pio2+0x310>)
 800cb9e:	e9d3 2300 	ldrd	r2, r3, [r3]
 800cba2:	e9dd 0102 	ldrd	r0, r1, [sp, #8]
 800cba6:	f7f3 fcf3 	bl	8000590 <__aeabi_dmul>
 800cbaa:	4606      	mov	r6, r0
 800cbac:	460f      	mov	r7, r1
 800cbae:	4602      	mov	r2, r0
 800cbb0:	460b      	mov	r3, r1
 800cbb2:	4640      	mov	r0, r8
 800cbb4:	4649      	mov	r1, r9
 800cbb6:	f7f3 fb33 	bl	8000220 <__aeabi_dsub>
 800cbba:	4602      	mov	r2, r0
 800cbbc:	460b      	mov	r3, r1
 800cbbe:	4682      	mov	sl, r0
 800cbc0:	468b      	mov	fp, r1
 800cbc2:	4640      	mov	r0, r8
 800cbc4:	4649      	mov	r1, r9
 800cbc6:	f7f3 fb2b 	bl	8000220 <__aeabi_dsub>
 800cbca:	4632      	mov	r2, r6
 800cbcc:	463b      	mov	r3, r7
 800cbce:	f7f3 fb27 	bl	8000220 <__aeabi_dsub>
 800cbd2:	a31b      	add	r3, pc, #108	@ (adr r3, 800cc40 <__ieee754_rem_pio2+0x318>)
 800cbd4:	e9d3 2300 	ldrd	r2, r3, [r3]
 800cbd8:	4606      	mov	r6, r0
 800cbda:	460f      	mov	r7, r1
 800cbdc:	e9dd 0102 	ldrd	r0, r1, [sp, #8]
 800cbe0:	f7f3 fcd6 	bl	8000590 <__aeabi_dmul>
 800cbe4:	4632      	mov	r2, r6
 800cbe6:	463b      	mov	r3, r7
 800cbe8:	f7f3 fb1a 	bl	8000220 <__aeabi_dsub>
 800cbec:	4606      	mov	r6, r0
 800cbee:	460f      	mov	r7, r1
 800cbf0:	e764      	b.n	800cabc <__ieee754_rem_pio2+0x194>
 800cbf2:	4b1b      	ldr	r3, [pc, #108]	@ (800cc60 <__ieee754_rem_pio2+0x338>)
 800cbf4:	4598      	cmp	r8, r3
 800cbf6:	d935      	bls.n	800cc64 <__ieee754_rem_pio2+0x33c>
 800cbf8:	4632      	mov	r2, r6
 800cbfa:	463b      	mov	r3, r7
 800cbfc:	4630      	mov	r0, r6
 800cbfe:	4639      	mov	r1, r7
 800cc00:	f7f3 fb0e 	bl	8000220 <__aeabi_dsub>
 800cc04:	e9c4 0102 	strd	r0, r1, [r4, #8]
 800cc08:	e9c4 0100 	strd	r0, r1, [r4]
 800cc0c:	e69e      	b.n	800c94c <__ieee754_rem_pio2+0x24>
 800cc0e:	bf00      	nop
 800cc10:	54400000 	.word	0x54400000
 800cc14:	3ff921fb 	.word	0x3ff921fb
 800cc18:	1a626331 	.word	0x1a626331
 800cc1c:	3dd0b461 	.word	0x3dd0b461
 800cc20:	1a600000 	.word	0x1a600000
 800cc24:	3dd0b461 	.word	0x3dd0b461
 800cc28:	2e037073 	.word	0x2e037073
 800cc2c:	3ba3198a 	.word	0x3ba3198a
 800cc30:	6dc9c883 	.word	0x6dc9c883
 800cc34:	3fe45f30 	.word	0x3fe45f30
 800cc38:	2e000000 	.word	0x2e000000
 800cc3c:	3ba3198a 	.word	0x3ba3198a
 800cc40:	252049c1 	.word	0x252049c1
 800cc44:	397b839a 	.word	0x397b839a
 800cc48:	3fe921fb 	.word	0x3fe921fb
 800cc4c:	4002d97b 	.word	0x4002d97b
 800cc50:	3ff921fb 	.word	0x3ff921fb
 800cc54:	413921fb 	.word	0x413921fb
 800cc58:	3fe00000 	.word	0x3fe00000
 800cc5c:	0800d668 	.word	0x0800d668
 800cc60:	7fefffff 	.word	0x7fefffff
 800cc64:	ea4f 5528 	mov.w	r5, r8, asr #20
 800cc68:	f2a5 4516 	subw	r5, r5, #1046	@ 0x416
 800cc6c:	eba8 5105 	sub.w	r1, r8, r5, lsl #20
 800cc70:	4630      	mov	r0, r6
 800cc72:	460f      	mov	r7, r1
 800cc74:	f7f3 ff26 	bl	8000ac4 <__aeabi_d2iz>
 800cc78:	f7f3 fc20 	bl	80004bc <__aeabi_i2d>
 800cc7c:	4602      	mov	r2, r0
 800cc7e:	460b      	mov	r3, r1
 800cc80:	4630      	mov	r0, r6
 800cc82:	4639      	mov	r1, r7
 800cc84:	e9cd 2306 	strd	r2, r3, [sp, #24]
 800cc88:	f7f3 faca 	bl	8000220 <__aeabi_dsub>
 800cc8c:	4b22      	ldr	r3, [pc, #136]	@ (800cd18 <__ieee754_rem_pio2+0x3f0>)
 800cc8e:	2200      	movs	r2, #0
 800cc90:	f7f3 fc7e 	bl	8000590 <__aeabi_dmul>
 800cc94:	460f      	mov	r7, r1
 800cc96:	4606      	mov	r6, r0
 800cc98:	f7f3 ff14 	bl	8000ac4 <__aeabi_d2iz>
 800cc9c:	f7f3 fc0e 	bl	80004bc <__aeabi_i2d>
 800cca0:	4602      	mov	r2, r0
 800cca2:	460b      	mov	r3, r1
 800cca4:	4630      	mov	r0, r6
 800cca6:	4639      	mov	r1, r7
 800cca8:	e9cd 2308 	strd	r2, r3, [sp, #32]
 800ccac:	f7f3 fab8 	bl	8000220 <__aeabi_dsub>
 800ccb0:	4b19      	ldr	r3, [pc, #100]	@ (800cd18 <__ieee754_rem_pio2+0x3f0>)
 800ccb2:	2200      	movs	r2, #0
 800ccb4:	f7f3 fc6c 	bl	8000590 <__aeabi_dmul>
 800ccb8:	e9cd 010a 	strd	r0, r1, [sp, #40]	@ 0x28
 800ccbc:	f10d 0930 	add.w	r9, sp, #48	@ 0x30
 800ccc0:	f04f 0803 	mov.w	r8, #3
 800ccc4:	2600      	movs	r6, #0
 800ccc6:	2700      	movs	r7, #0
 800ccc8:	e979 0102 	ldrd	r0, r1, [r9, #-8]!
 800cccc:	4632      	mov	r2, r6
 800ccce:	463b      	mov	r3, r7
 800ccd0:	46c2      	mov	sl, r8
 800ccd2:	f108 38ff 	add.w	r8, r8, #4294967295	@ 0xffffffff
 800ccd6:	f7f3 fec3 	bl	8000a60 <__aeabi_dcmpeq>
 800ccda:	2800      	cmp	r0, #0
 800ccdc:	d1f4      	bne.n	800ccc8 <__ieee754_rem_pio2+0x3a0>
 800ccde:	4b0f      	ldr	r3, [pc, #60]	@ (800cd1c <__ieee754_rem_pio2+0x3f4>)
 800cce0:	9301      	str	r3, [sp, #4]
 800cce2:	2302      	movs	r3, #2
 800cce4:	9300      	str	r3, [sp, #0]
 800cce6:	462a      	mov	r2, r5
 800cce8:	4653      	mov	r3, sl
 800ccea:	4621      	mov	r1, r4
 800ccec:	a806      	add	r0, sp, #24
 800ccee:	f000 f817 	bl	800cd20 <__kernel_rem_pio2>
 800ccf2:	9b04      	ldr	r3, [sp, #16]
 800ccf4:	2b00      	cmp	r3, #0
 800ccf6:	4605      	mov	r5, r0
 800ccf8:	f6bf ae53 	bge.w	800c9a2 <__ieee754_rem_pio2+0x7a>
 800ccfc:	e9d4 2100 	ldrd	r2, r1, [r4]
 800cd00:	f101 4300 	add.w	r3, r1, #2147483648	@ 0x80000000
 800cd04:	e9c4 2300 	strd	r2, r3, [r4]
 800cd08:	e9d4 2102 	ldrd	r2, r1, [r4, #8]
 800cd0c:	f101 4300 	add.w	r3, r1, #2147483648	@ 0x80000000
 800cd10:	e9c4 2302 	strd	r2, r3, [r4, #8]
 800cd14:	e740      	b.n	800cb98 <__ieee754_rem_pio2+0x270>
 800cd16:	bf00      	nop
 800cd18:	41700000 	.word	0x41700000
 800cd1c:	0800d6e8 	.word	0x0800d6e8

0800cd20 <__kernel_rem_pio2>:
 800cd20:	e92d 4ff0 	stmdb	sp!, {r4, r5, r6, r7, r8, r9, sl, fp, lr}
 800cd24:	ed2d 8b02 	vpush	{d8}
 800cd28:	f5ad 7d19 	sub.w	sp, sp, #612	@ 0x264
 800cd2c:	f112 0f14 	cmn.w	r2, #20
 800cd30:	9306      	str	r3, [sp, #24]
 800cd32:	9104      	str	r1, [sp, #16]
 800cd34:	4bc2      	ldr	r3, [pc, #776]	@ (800d040 <__kernel_rem_pio2+0x320>)
 800cd36:	99a4      	ldr	r1, [sp, #656]	@ 0x290
 800cd38:	9008      	str	r0, [sp, #32]
 800cd3a:	f853 3021 	ldr.w	r3, [r3, r1, lsl #2]
 800cd3e:	9300      	str	r3, [sp, #0]
 800cd40:	9b06      	ldr	r3, [sp, #24]
 800cd42:	f103 33ff 	add.w	r3, r3, #4294967295	@ 0xffffffff
 800cd46:	bfa8      	it	ge
 800cd48:	1ed4      	subge	r4, r2, #3
 800cd4a:	9305      	str	r3, [sp, #20]
 800cd4c:	bfb2      	itee	lt
 800cd4e:	2400      	movlt	r4, #0
 800cd50:	2318      	movge	r3, #24
 800cd52:	fb94 f4f3 	sdivge	r4, r4, r3
 800cd56:	f06f 0317 	mvn.w	r3, #23
 800cd5a:	fb04 3303 	mla	r3, r4, r3, r3
 800cd5e:	eb03 0b02 	add.w	fp, r3, r2
 800cd62:	9b00      	ldr	r3, [sp, #0]
 800cd64:	9a05      	ldr	r2, [sp, #20]
 800cd66:	ed9f 8bb2 	vldr	d8, [pc, #712]	@ 800d030 <__kernel_rem_pio2+0x310>
 800cd6a:	eb03 0802 	add.w	r8, r3, r2
 800cd6e:	9ba5      	ldr	r3, [sp, #660]	@ 0x294
 800cd70:	1aa7      	subs	r7, r4, r2
 800cd72:	ae20      	add	r6, sp, #128	@ 0x80
 800cd74:	eb03 0987 	add.w	r9, r3, r7, lsl #2
 800cd78:	2500      	movs	r5, #0
 800cd7a:	4545      	cmp	r5, r8
 800cd7c:	dd12      	ble.n	800cda4 <__kernel_rem_pio2+0x84>
 800cd7e:	9b06      	ldr	r3, [sp, #24]
 800cd80:	aa20      	add	r2, sp, #128	@ 0x80
 800cd82:	eb02 05c3 	add.w	r5, r2, r3, lsl #3
 800cd86:	f50d 7ae0 	add.w	sl, sp, #448	@ 0x1c0
 800cd8a:	2700      	movs	r7, #0
 800cd8c:	9b00      	ldr	r3, [sp, #0]
 800cd8e:	429f      	cmp	r7, r3
 800cd90:	dc2e      	bgt.n	800cdf0 <__kernel_rem_pio2+0xd0>
 800cd92:	ed9f 7ba7 	vldr	d7, [pc, #668]	@ 800d030 <__kernel_rem_pio2+0x310>
 800cd96:	f8dd 9020 	ldr.w	r9, [sp, #32]
 800cd9a:	ed8d 7b02 	vstr	d7, [sp, #8]
 800cd9e:	46a8      	mov	r8, r5
 800cda0:	2600      	movs	r6, #0
 800cda2:	e01b      	b.n	800cddc <__kernel_rem_pio2+0xbc>
 800cda4:	42ef      	cmn	r7, r5
 800cda6:	d407      	bmi.n	800cdb8 <__kernel_rem_pio2+0x98>
 800cda8:	f859 0025 	ldr.w	r0, [r9, r5, lsl #2]
 800cdac:	f7f3 fb86 	bl	80004bc <__aeabi_i2d>
 800cdb0:	e8e6 0102 	strd	r0, r1, [r6], #8
 800cdb4:	3501      	adds	r5, #1
 800cdb6:	e7e0      	b.n	800cd7a <__kernel_rem_pio2+0x5a>
 800cdb8:	ec51 0b18 	vmov	r0, r1, d8
 800cdbc:	e7f8      	b.n	800cdb0 <__kernel_rem_pio2+0x90>
 800cdbe:	e978 2302 	ldrd	r2, r3, [r8, #-8]!
 800cdc2:	e8f9 0102 	ldrd	r0, r1, [r9], #8
 800cdc6:	f7f3 fbe3 	bl	8000590 <__aeabi_dmul>
 800cdca:	4602      	mov	r2, r0
 800cdcc:	460b      	mov	r3, r1
 800cdce:	e9dd 0102 	ldrd	r0, r1, [sp, #8]
 800cdd2:	f7f3 fa27 	bl	8000224 <__adddf3>
 800cdd6:	e9cd 0102 	strd	r0, r1, [sp, #8]
 800cdda:	3601      	adds	r6, #1
 800cddc:	9b05      	ldr	r3, [sp, #20]
 800cdde:	429e      	cmp	r6, r3
 800cde0:	dded      	ble.n	800cdbe <__kernel_rem_pio2+0x9e>
 800cde2:	ed9d 7b02 	vldr	d7, [sp, #8]
 800cde6:	3701      	adds	r7, #1
 800cde8:	ecaa 7b02 	vstmia	sl!, {d7}
 800cdec:	3508      	adds	r5, #8
 800cdee:	e7cd      	b.n	800cd8c <__kernel_rem_pio2+0x6c>
 800cdf0:	9b00      	ldr	r3, [sp, #0]
 800cdf2:	f8dd 8000 	ldr.w	r8, [sp]
 800cdf6:	aa0c      	add	r2, sp, #48	@ 0x30
 800cdf8:	eb02 0383 	add.w	r3, r2, r3, lsl #2
 800cdfc:	930a      	str	r3, [sp, #40]	@ 0x28
 800cdfe:	9ba5      	ldr	r3, [sp, #660]	@ 0x294
 800ce00:	eb03 0384 	add.w	r3, r3, r4, lsl #2
 800ce04:	9309      	str	r3, [sp, #36]	@ 0x24
 800ce06:	ea4f 03c8 	mov.w	r3, r8, lsl #3
 800ce0a:	930b      	str	r3, [sp, #44]	@ 0x2c
 800ce0c:	ab98      	add	r3, sp, #608	@ 0x260
 800ce0e:	eb03 03c8 	add.w	r3, r3, r8, lsl #3
 800ce12:	ed13 7b28 	vldr	d7, [r3, #-160]	@ 0xffffff60
 800ce16:	ed8d 7b02 	vstr	d7, [sp, #8]
 800ce1a:	ac0c      	add	r4, sp, #48	@ 0x30
 800ce1c:	ab70      	add	r3, sp, #448	@ 0x1c0
 800ce1e:	eb03 05c8 	add.w	r5, r3, r8, lsl #3
 800ce22:	46a1      	mov	r9, r4
 800ce24:	46c2      	mov	sl, r8
 800ce26:	f1ba 0f00 	cmp.w	sl, #0
 800ce2a:	dc77      	bgt.n	800cf1c <__kernel_rem_pio2+0x1fc>
 800ce2c:	4658      	mov	r0, fp
 800ce2e:	ed9d 0b02 	vldr	d0, [sp, #8]
 800ce32:	f000 fac5 	bl	800d3c0 <scalbn>
 800ce36:	ec57 6b10 	vmov	r6, r7, d0
 800ce3a:	2200      	movs	r2, #0
 800ce3c:	f04f 537f 	mov.w	r3, #1069547520	@ 0x3fc00000
 800ce40:	4630      	mov	r0, r6
 800ce42:	4639      	mov	r1, r7
 800ce44:	f7f3 fba4 	bl	8000590 <__aeabi_dmul>
 800ce48:	ec41 0b10 	vmov	d0, r0, r1
 800ce4c:	f000 fb34 	bl	800d4b8 <floor>
 800ce50:	4b7c      	ldr	r3, [pc, #496]	@ (800d044 <__kernel_rem_pio2+0x324>)
 800ce52:	ec51 0b10 	vmov	r0, r1, d0
 800ce56:	2200      	movs	r2, #0
 800ce58:	f7f3 fb9a 	bl	8000590 <__aeabi_dmul>
 800ce5c:	4602      	mov	r2, r0
 800ce5e:	460b      	mov	r3, r1
 800ce60:	4630      	mov	r0, r6
 800ce62:	4639      	mov	r1, r7
 800ce64:	f7f3 f9dc 	bl	8000220 <__aeabi_dsub>
 800ce68:	460f      	mov	r7, r1
 800ce6a:	4606      	mov	r6, r0
 800ce6c:	f7f3 fe2a 	bl	8000ac4 <__aeabi_d2iz>
 800ce70:	9002      	str	r0, [sp, #8]
 800ce72:	f7f3 fb23 	bl	80004bc <__aeabi_i2d>
 800ce76:	4602      	mov	r2, r0
 800ce78:	460b      	mov	r3, r1
 800ce7a:	4630      	mov	r0, r6
 800ce7c:	4639      	mov	r1, r7
 800ce7e:	f7f3 f9cf 	bl	8000220 <__aeabi_dsub>
 800ce82:	f1bb 0f00 	cmp.w	fp, #0
 800ce86:	4606      	mov	r6, r0
 800ce88:	460f      	mov	r7, r1
 800ce8a:	dd6c      	ble.n	800cf66 <__kernel_rem_pio2+0x246>
 800ce8c:	f108 31ff 	add.w	r1, r8, #4294967295	@ 0xffffffff
 800ce90:	ab0c      	add	r3, sp, #48	@ 0x30
 800ce92:	9d02      	ldr	r5, [sp, #8]
 800ce94:	f853 3021 	ldr.w	r3, [r3, r1, lsl #2]
 800ce98:	f1cb 0018 	rsb	r0, fp, #24
 800ce9c:	fa43 f200 	asr.w	r2, r3, r0
 800cea0:	4415      	add	r5, r2
 800cea2:	4082      	lsls	r2, r0
 800cea4:	1a9b      	subs	r3, r3, r2
 800cea6:	aa0c      	add	r2, sp, #48	@ 0x30
 800cea8:	9502      	str	r5, [sp, #8]
 800ceaa:	f842 3021 	str.w	r3, [r2, r1, lsl #2]
 800ceae:	f1cb 0217 	rsb	r2, fp, #23
 800ceb2:	fa43 f902 	asr.w	r9, r3, r2
 800ceb6:	f1b9 0f00 	cmp.w	r9, #0
 800ceba:	dd64      	ble.n	800cf86 <__kernel_rem_pio2+0x266>
 800cebc:	9b02      	ldr	r3, [sp, #8]
 800cebe:	2200      	movs	r2, #0
 800cec0:	3301      	adds	r3, #1
 800cec2:	9302      	str	r3, [sp, #8]
 800cec4:	4615      	mov	r5, r2
 800cec6:	f06f 417f 	mvn.w	r1, #4278190080	@ 0xff000000
 800ceca:	4590      	cmp	r8, r2
 800cecc:	f300 80a1 	bgt.w	800d012 <__kernel_rem_pio2+0x2f2>
 800ced0:	f1bb 0f00 	cmp.w	fp, #0
 800ced4:	dd07      	ble.n	800cee6 <__kernel_rem_pio2+0x1c6>
 800ced6:	f1bb 0f01 	cmp.w	fp, #1
 800ceda:	f000 80c1 	beq.w	800d060 <__kernel_rem_pio2+0x340>
 800cede:	f1bb 0f02 	cmp.w	fp, #2
 800cee2:	f000 80c8 	beq.w	800d076 <__kernel_rem_pio2+0x356>
 800cee6:	f1b9 0f02 	cmp.w	r9, #2
 800ceea:	d14c      	bne.n	800cf86 <__kernel_rem_pio2+0x266>
 800ceec:	4632      	mov	r2, r6
 800ceee:	463b      	mov	r3, r7
 800cef0:	4955      	ldr	r1, [pc, #340]	@ (800d048 <__kernel_rem_pio2+0x328>)
 800cef2:	2000      	movs	r0, #0
 800cef4:	f7f3 f994 	bl	8000220 <__aeabi_dsub>
 800cef8:	4606      	mov	r6, r0
 800cefa:	460f      	mov	r7, r1
 800cefc:	2d00      	cmp	r5, #0
 800cefe:	d042      	beq.n	800cf86 <__kernel_rem_pio2+0x266>
 800cf00:	4658      	mov	r0, fp
 800cf02:	ed9f 0b4d 	vldr	d0, [pc, #308]	@ 800d038 <__kernel_rem_pio2+0x318>
 800cf06:	f000 fa5b 	bl	800d3c0 <scalbn>
 800cf0a:	4630      	mov	r0, r6
 800cf0c:	4639      	mov	r1, r7
 800cf0e:	ec53 2b10 	vmov	r2, r3, d0
 800cf12:	f7f3 f985 	bl	8000220 <__aeabi_dsub>
 800cf16:	4606      	mov	r6, r0
 800cf18:	460f      	mov	r7, r1
 800cf1a:	e034      	b.n	800cf86 <__kernel_rem_pio2+0x266>
 800cf1c:	4b4b      	ldr	r3, [pc, #300]	@ (800d04c <__kernel_rem_pio2+0x32c>)
 800cf1e:	2200      	movs	r2, #0
 800cf20:	e9dd 0102 	ldrd	r0, r1, [sp, #8]
 800cf24:	f7f3 fb34 	bl	8000590 <__aeabi_dmul>
 800cf28:	f7f3 fdcc 	bl	8000ac4 <__aeabi_d2iz>
 800cf2c:	f7f3 fac6 	bl	80004bc <__aeabi_i2d>
 800cf30:	4b47      	ldr	r3, [pc, #284]	@ (800d050 <__kernel_rem_pio2+0x330>)
 800cf32:	2200      	movs	r2, #0
 800cf34:	4606      	mov	r6, r0
 800cf36:	460f      	mov	r7, r1
 800cf38:	f7f3 fb2a 	bl	8000590 <__aeabi_dmul>
 800cf3c:	4602      	mov	r2, r0
 800cf3e:	460b      	mov	r3, r1
 800cf40:	e9dd 0102 	ldrd	r0, r1, [sp, #8]
 800cf44:	f7f3 f96c 	bl	8000220 <__aeabi_dsub>
 800cf48:	f7f3 fdbc 	bl	8000ac4 <__aeabi_d2iz>
 800cf4c:	e975 2302 	ldrd	r2, r3, [r5, #-8]!
 800cf50:	f849 0b04 	str.w	r0, [r9], #4
 800cf54:	4639      	mov	r1, r7
 800cf56:	4630      	mov	r0, r6
 800cf58:	f7f3 f964 	bl	8000224 <__adddf3>
 800cf5c:	f10a 3aff 	add.w	sl, sl, #4294967295	@ 0xffffffff
 800cf60:	e9cd 0102 	strd	r0, r1, [sp, #8]
 800cf64:	e75f      	b.n	800ce26 <__kernel_rem_pio2+0x106>
 800cf66:	d107      	bne.n	800cf78 <__kernel_rem_pio2+0x258>
 800cf68:	f108 33ff 	add.w	r3, r8, #4294967295	@ 0xffffffff
 800cf6c:	aa0c      	add	r2, sp, #48	@ 0x30
 800cf6e:	f852 3023 	ldr.w	r3, [r2, r3, lsl #2]
 800cf72:	ea4f 59e3 	mov.w	r9, r3, asr #23
 800cf76:	e79e      	b.n	800ceb6 <__kernel_rem_pio2+0x196>
 800cf78:	4b36      	ldr	r3, [pc, #216]	@ (800d054 <__kernel_rem_pio2+0x334>)
 800cf7a:	2200      	movs	r2, #0
 800cf7c:	f7f3 fd8e 	bl	8000a9c <__aeabi_dcmpge>
 800cf80:	2800      	cmp	r0, #0
 800cf82:	d143      	bne.n	800d00c <__kernel_rem_pio2+0x2ec>
 800cf84:	4681      	mov	r9, r0
 800cf86:	2200      	movs	r2, #0
 800cf88:	2300      	movs	r3, #0
 800cf8a:	4630      	mov	r0, r6
 800cf8c:	4639      	mov	r1, r7
 800cf8e:	f7f3 fd67 	bl	8000a60 <__aeabi_dcmpeq>
 800cf92:	2800      	cmp	r0, #0
 800cf94:	f000 80c1 	beq.w	800d11a <__kernel_rem_pio2+0x3fa>
 800cf98:	f108 33ff 	add.w	r3, r8, #4294967295	@ 0xffffffff
 800cf9c:	2200      	movs	r2, #0
 800cf9e:	9900      	ldr	r1, [sp, #0]
 800cfa0:	428b      	cmp	r3, r1
 800cfa2:	da70      	bge.n	800d086 <__kernel_rem_pio2+0x366>
 800cfa4:	2a00      	cmp	r2, #0
 800cfa6:	f000 808b 	beq.w	800d0c0 <__kernel_rem_pio2+0x3a0>
 800cfaa:	f108 38ff 	add.w	r8, r8, #4294967295	@ 0xffffffff
 800cfae:	ab0c      	add	r3, sp, #48	@ 0x30
 800cfb0:	f1ab 0b18 	sub.w	fp, fp, #24
 800cfb4:	f853 3028 	ldr.w	r3, [r3, r8, lsl #2]
 800cfb8:	2b00      	cmp	r3, #0
 800cfba:	d0f6      	beq.n	800cfaa <__kernel_rem_pio2+0x28a>
 800cfbc:	4658      	mov	r0, fp
 800cfbe:	ed9f 0b1e 	vldr	d0, [pc, #120]	@ 800d038 <__kernel_rem_pio2+0x318>
 800cfc2:	f000 f9fd 	bl	800d3c0 <scalbn>
 800cfc6:	f108 0301 	add.w	r3, r8, #1
 800cfca:	00da      	lsls	r2, r3, #3
 800cfcc:	9205      	str	r2, [sp, #20]
 800cfce:	ec55 4b10 	vmov	r4, r5, d0
 800cfd2:	aa70      	add	r2, sp, #448	@ 0x1c0
 800cfd4:	f8df b074 	ldr.w	fp, [pc, #116]	@ 800d04c <__kernel_rem_pio2+0x32c>
 800cfd8:	eb02 07c3 	add.w	r7, r2, r3, lsl #3
 800cfdc:	4646      	mov	r6, r8
 800cfde:	f04f 0a00 	mov.w	sl, #0
 800cfe2:	2e00      	cmp	r6, #0
 800cfe4:	f280 80d1 	bge.w	800d18a <__kernel_rem_pio2+0x46a>
 800cfe8:	4644      	mov	r4, r8
 800cfea:	2c00      	cmp	r4, #0
 800cfec:	f2c0 80ff 	blt.w	800d1ee <__kernel_rem_pio2+0x4ce>
 800cff0:	4b19      	ldr	r3, [pc, #100]	@ (800d058 <__kernel_rem_pio2+0x338>)
 800cff2:	461f      	mov	r7, r3
 800cff4:	ab70      	add	r3, sp, #448	@ 0x1c0
 800cff6:	eb03 03c4 	add.w	r3, r3, r4, lsl #3
 800cffa:	9306      	str	r3, [sp, #24]
 800cffc:	f04f 0a00 	mov.w	sl, #0
 800d000:	f04f 0b00 	mov.w	fp, #0
 800d004:	2600      	movs	r6, #0
 800d006:	eba8 0504 	sub.w	r5, r8, r4
 800d00a:	e0e4      	b.n	800d1d6 <__kernel_rem_pio2+0x4b6>
 800d00c:	f04f 0902 	mov.w	r9, #2
 800d010:	e754      	b.n	800cebc <__kernel_rem_pio2+0x19c>
 800d012:	f854 3b04 	ldr.w	r3, [r4], #4
 800d016:	bb0d      	cbnz	r5, 800d05c <__kernel_rem_pio2+0x33c>
 800d018:	b123      	cbz	r3, 800d024 <__kernel_rem_pio2+0x304>
 800d01a:	f1c3 7380 	rsb	r3, r3, #16777216	@ 0x1000000
 800d01e:	f844 3c04 	str.w	r3, [r4, #-4]
 800d022:	2301      	movs	r3, #1
 800d024:	3201      	adds	r2, #1
 800d026:	461d      	mov	r5, r3
 800d028:	e74f      	b.n	800ceca <__kernel_rem_pio2+0x1aa>
 800d02a:	bf00      	nop
 800d02c:	f3af 8000 	nop.w
	...
 800d03c:	3ff00000 	.word	0x3ff00000
 800d040:	0800d830 	.word	0x0800d830
 800d044:	40200000 	.word	0x40200000
 800d048:	3ff00000 	.word	0x3ff00000
 800d04c:	3e700000 	.word	0x3e700000
 800d050:	41700000 	.word	0x41700000
 800d054:	3fe00000 	.word	0x3fe00000
 800d058:	0800d7f0 	.word	0x0800d7f0
 800d05c:	1acb      	subs	r3, r1, r3
 800d05e:	e7de      	b.n	800d01e <__kernel_rem_pio2+0x2fe>
 800d060:	f108 32ff 	add.w	r2, r8, #4294967295	@ 0xffffffff
 800d064:	ab0c      	add	r3, sp, #48	@ 0x30
 800d066:	f853 3022 	ldr.w	r3, [r3, r2, lsl #2]
 800d06a:	f3c3 0316 	ubfx	r3, r3, #0, #23
 800d06e:	a90c      	add	r1, sp, #48	@ 0x30
 800d070:	f841 3022 	str.w	r3, [r1, r2, lsl #2]
 800d074:	e737      	b.n	800cee6 <__kernel_rem_pio2+0x1c6>
 800d076:	f108 32ff 	add.w	r2, r8, #4294967295	@ 0xffffffff
 800d07a:	ab0c      	add	r3, sp, #48	@ 0x30
 800d07c:	f853 3022 	ldr.w	r3, [r3, r2, lsl #2]
 800d080:	f3c3 0315 	ubfx	r3, r3, #0, #22
 800d084:	e7f3      	b.n	800d06e <__kernel_rem_pio2+0x34e>
 800d086:	a90c      	add	r1, sp, #48	@ 0x30
 800d088:	f851 1023 	ldr.w	r1, [r1, r3, lsl #2]
 800d08c:	3b01      	subs	r3, #1
 800d08e:	430a      	orrs	r2, r1
 800d090:	e785      	b.n	800cf9e <__kernel_rem_pio2+0x27e>
 800d092:	3401      	adds	r4, #1
 800d094:	f853 2d04 	ldr.w	r2, [r3, #-4]!
 800d098:	2a00      	cmp	r2, #0
 800d09a:	d0fa      	beq.n	800d092 <__kernel_rem_pio2+0x372>
 800d09c:	9b0b      	ldr	r3, [sp, #44]	@ 0x2c
 800d09e:	f503 7318 	add.w	r3, r3, #608	@ 0x260
 800d0a2:	eb0d 0503 	add.w	r5, sp, r3
 800d0a6:	9b06      	ldr	r3, [sp, #24]
 800d0a8:	aa20      	add	r2, sp, #128	@ 0x80
 800d0aa:	4443      	add	r3, r8
 800d0ac:	f108 0701 	add.w	r7, r8, #1
 800d0b0:	3d98      	subs	r5, #152	@ 0x98
 800d0b2:	eb02 06c3 	add.w	r6, r2, r3, lsl #3
 800d0b6:	4444      	add	r4, r8
 800d0b8:	42bc      	cmp	r4, r7
 800d0ba:	da04      	bge.n	800d0c6 <__kernel_rem_pio2+0x3a6>
 800d0bc:	46a0      	mov	r8, r4
 800d0be:	e6a2      	b.n	800ce06 <__kernel_rem_pio2+0xe6>
 800d0c0:	9b0a      	ldr	r3, [sp, #40]	@ 0x28
 800d0c2:	2401      	movs	r4, #1
 800d0c4:	e7e6      	b.n	800d094 <__kernel_rem_pio2+0x374>
 800d0c6:	9b09      	ldr	r3, [sp, #36]	@ 0x24
 800d0c8:	f853 0027 	ldr.w	r0, [r3, r7, lsl #2]
 800d0cc:	f7f3 f9f6 	bl	80004bc <__aeabi_i2d>
 800d0d0:	ed9f 7baf 	vldr	d7, [pc, #700]	@ 800d390 <__kernel_rem_pio2+0x670>
 800d0d4:	e8e6 0102 	strd	r0, r1, [r6], #8
 800d0d8:	ed8d 7b02 	vstr	d7, [sp, #8]
 800d0dc:	f8dd 9020 	ldr.w	r9, [sp, #32]
 800d0e0:	46b2      	mov	sl, r6
 800d0e2:	f04f 0800 	mov.w	r8, #0
 800d0e6:	9b05      	ldr	r3, [sp, #20]
 800d0e8:	4598      	cmp	r8, r3
 800d0ea:	dd05      	ble.n	800d0f8 <__kernel_rem_pio2+0x3d8>
 800d0ec:	ed9d 7b02 	vldr	d7, [sp, #8]
 800d0f0:	3701      	adds	r7, #1
 800d0f2:	eca5 7b02 	vstmia	r5!, {d7}
 800d0f6:	e7df      	b.n	800d0b8 <__kernel_rem_pio2+0x398>
 800d0f8:	e97a 2302 	ldrd	r2, r3, [sl, #-8]!
 800d0fc:	e8f9 0102 	ldrd	r0, r1, [r9], #8
 800d100:	f7f3 fa46 	bl	8000590 <__aeabi_dmul>
 800d104:	4602      	mov	r2, r0
 800d106:	460b      	mov	r3, r1
 800d108:	e9dd 0102 	ldrd	r0, r1, [sp, #8]
 800d10c:	f7f3 f88a 	bl	8000224 <__adddf3>
 800d110:	f108 0801 	add.w	r8, r8, #1
 800d114:	e9cd 0102 	strd	r0, r1, [sp, #8]
 800d118:	e7e5      	b.n	800d0e6 <__kernel_rem_pio2+0x3c6>
 800d11a:	f1cb 0000 	rsb	r0, fp, #0
 800d11e:	ec47 6b10 	vmov	d0, r6, r7
 800d122:	f000 f94d 	bl	800d3c0 <scalbn>
 800d126:	ec55 4b10 	vmov	r4, r5, d0
 800d12a:	4b9b      	ldr	r3, [pc, #620]	@ (800d398 <__kernel_rem_pio2+0x678>)
 800d12c:	2200      	movs	r2, #0
 800d12e:	4620      	mov	r0, r4
 800d130:	4629      	mov	r1, r5
 800d132:	f7f3 fcb3 	bl	8000a9c <__aeabi_dcmpge>
 800d136:	b300      	cbz	r0, 800d17a <__kernel_rem_pio2+0x45a>
 800d138:	4b98      	ldr	r3, [pc, #608]	@ (800d39c <__kernel_rem_pio2+0x67c>)
 800d13a:	2200      	movs	r2, #0
 800d13c:	4620      	mov	r0, r4
 800d13e:	4629      	mov	r1, r5
 800d140:	f7f3 fa26 	bl	8000590 <__aeabi_dmul>
 800d144:	f7f3 fcbe 	bl	8000ac4 <__aeabi_d2iz>
 800d148:	4606      	mov	r6, r0
 800d14a:	f7f3 f9b7 	bl	80004bc <__aeabi_i2d>
 800d14e:	4b92      	ldr	r3, [pc, #584]	@ (800d398 <__kernel_rem_pio2+0x678>)
 800d150:	2200      	movs	r2, #0
 800d152:	f7f3 fa1d 	bl	8000590 <__aeabi_dmul>
 800d156:	460b      	mov	r3, r1
 800d158:	4602      	mov	r2, r0
 800d15a:	4629      	mov	r1, r5
 800d15c:	4620      	mov	r0, r4
 800d15e:	f7f3 f85f 	bl	8000220 <__aeabi_dsub>
 800d162:	f7f3 fcaf 	bl	8000ac4 <__aeabi_d2iz>
 800d166:	ab0c      	add	r3, sp, #48	@ 0x30
 800d168:	f10b 0b18 	add.w	fp, fp, #24
 800d16c:	f843 0028 	str.w	r0, [r3, r8, lsl #2]
 800d170:	f108 0801 	add.w	r8, r8, #1
 800d174:	f843 6028 	str.w	r6, [r3, r8, lsl #2]
 800d178:	e720      	b.n	800cfbc <__kernel_rem_pio2+0x29c>
 800d17a:	4620      	mov	r0, r4
 800d17c:	4629      	mov	r1, r5
 800d17e:	f7f3 fca1 	bl	8000ac4 <__aeabi_d2iz>
 800d182:	ab0c      	add	r3, sp, #48	@ 0x30
 800d184:	f843 0028 	str.w	r0, [r3, r8, lsl #2]
 800d188:	e718      	b.n	800cfbc <__kernel_rem_pio2+0x29c>
 800d18a:	ab0c      	add	r3, sp, #48	@ 0x30
 800d18c:	f853 0026 	ldr.w	r0, [r3, r6, lsl #2]
 800d190:	f7f3 f994 	bl	80004bc <__aeabi_i2d>
 800d194:	4622      	mov	r2, r4
 800d196:	462b      	mov	r3, r5
 800d198:	f7f3 f9fa 	bl	8000590 <__aeabi_dmul>
 800d19c:	4652      	mov	r2, sl
 800d19e:	e967 0102 	strd	r0, r1, [r7, #-8]!
 800d1a2:	465b      	mov	r3, fp
 800d1a4:	4620      	mov	r0, r4
 800d1a6:	4629      	mov	r1, r5
 800d1a8:	f7f3 f9f2 	bl	8000590 <__aeabi_dmul>
 800d1ac:	3e01      	subs	r6, #1
 800d1ae:	4604      	mov	r4, r0
 800d1b0:	460d      	mov	r5, r1
 800d1b2:	e716      	b.n	800cfe2 <__kernel_rem_pio2+0x2c2>
 800d1b4:	9906      	ldr	r1, [sp, #24]
 800d1b6:	e8f1 2302 	ldrd	r2, r3, [r1], #8
 800d1ba:	9106      	str	r1, [sp, #24]
 800d1bc:	e8f7 0102 	ldrd	r0, r1, [r7], #8
 800d1c0:	f7f3 f9e6 	bl	8000590 <__aeabi_dmul>
 800d1c4:	4602      	mov	r2, r0
 800d1c6:	460b      	mov	r3, r1
 800d1c8:	4650      	mov	r0, sl
 800d1ca:	4659      	mov	r1, fp
 800d1cc:	f7f3 f82a 	bl	8000224 <__adddf3>
 800d1d0:	3601      	adds	r6, #1
 800d1d2:	4682      	mov	sl, r0
 800d1d4:	468b      	mov	fp, r1
 800d1d6:	9b00      	ldr	r3, [sp, #0]
 800d1d8:	429e      	cmp	r6, r3
 800d1da:	dc01      	bgt.n	800d1e0 <__kernel_rem_pio2+0x4c0>
 800d1dc:	42ae      	cmp	r6, r5
 800d1de:	dde9      	ble.n	800d1b4 <__kernel_rem_pio2+0x494>
 800d1e0:	ab48      	add	r3, sp, #288	@ 0x120
 800d1e2:	eb03 05c5 	add.w	r5, r3, r5, lsl #3
 800d1e6:	e9c5 ab00 	strd	sl, fp, [r5]
 800d1ea:	3c01      	subs	r4, #1
 800d1ec:	e6fd      	b.n	800cfea <__kernel_rem_pio2+0x2ca>
 800d1ee:	9ba4      	ldr	r3, [sp, #656]	@ 0x290
 800d1f0:	2b02      	cmp	r3, #2
 800d1f2:	dc0b      	bgt.n	800d20c <__kernel_rem_pio2+0x4ec>
 800d1f4:	2b00      	cmp	r3, #0
 800d1f6:	dc35      	bgt.n	800d264 <__kernel_rem_pio2+0x544>
 800d1f8:	d059      	beq.n	800d2ae <__kernel_rem_pio2+0x58e>
 800d1fa:	9b02      	ldr	r3, [sp, #8]
 800d1fc:	f003 0007 	and.w	r0, r3, #7
 800d200:	f50d 7d19 	add.w	sp, sp, #612	@ 0x264
 800d204:	ecbd 8b02 	vpop	{d8}
 800d208:	e8bd 8ff0 	ldmia.w	sp!, {r4, r5, r6, r7, r8, r9, sl, fp, pc}
 800d20c:	9ba4      	ldr	r3, [sp, #656]	@ 0x290
 800d20e:	2b03      	cmp	r3, #3
 800d210:	d1f3      	bne.n	800d1fa <__kernel_rem_pio2+0x4da>
 800d212:	9b05      	ldr	r3, [sp, #20]
 800d214:	f503 7318 	add.w	r3, r3, #608	@ 0x260
 800d218:	eb0d 0403 	add.w	r4, sp, r3
 800d21c:	f5a4 74a4 	sub.w	r4, r4, #328	@ 0x148
 800d220:	4625      	mov	r5, r4
 800d222:	46c2      	mov	sl, r8
 800d224:	f1ba 0f00 	cmp.w	sl, #0
 800d228:	dc69      	bgt.n	800d2fe <__kernel_rem_pio2+0x5de>
 800d22a:	4645      	mov	r5, r8
 800d22c:	2d01      	cmp	r5, #1
 800d22e:	f300 8087 	bgt.w	800d340 <__kernel_rem_pio2+0x620>
 800d232:	9c05      	ldr	r4, [sp, #20]
 800d234:	ab48      	add	r3, sp, #288	@ 0x120
 800d236:	441c      	add	r4, r3
 800d238:	2000      	movs	r0, #0
 800d23a:	2100      	movs	r1, #0
 800d23c:	f1b8 0f01 	cmp.w	r8, #1
 800d240:	f300 809c 	bgt.w	800d37c <__kernel_rem_pio2+0x65c>
 800d244:	e9dd 5648 	ldrd	r5, r6, [sp, #288]	@ 0x120
 800d248:	e9dd 784a 	ldrd	r7, r8, [sp, #296]	@ 0x128
 800d24c:	f1b9 0f00 	cmp.w	r9, #0
 800d250:	f040 80a6 	bne.w	800d3a0 <__kernel_rem_pio2+0x680>
 800d254:	9b04      	ldr	r3, [sp, #16]
 800d256:	e9c3 5600 	strd	r5, r6, [r3]
 800d25a:	e9c3 7802 	strd	r7, r8, [r3, #8]
 800d25e:	e9c3 0104 	strd	r0, r1, [r3, #16]
 800d262:	e7ca      	b.n	800d1fa <__kernel_rem_pio2+0x4da>
 800d264:	9d05      	ldr	r5, [sp, #20]
 800d266:	ab48      	add	r3, sp, #288	@ 0x120
 800d268:	441d      	add	r5, r3
 800d26a:	4644      	mov	r4, r8
 800d26c:	2000      	movs	r0, #0
 800d26e:	2100      	movs	r1, #0
 800d270:	2c00      	cmp	r4, #0
 800d272:	da35      	bge.n	800d2e0 <__kernel_rem_pio2+0x5c0>
 800d274:	f1b9 0f00 	cmp.w	r9, #0
 800d278:	d038      	beq.n	800d2ec <__kernel_rem_pio2+0x5cc>
 800d27a:	4602      	mov	r2, r0
 800d27c:	f101 4300 	add.w	r3, r1, #2147483648	@ 0x80000000
 800d280:	9c04      	ldr	r4, [sp, #16]
 800d282:	e9c4 2300 	strd	r2, r3, [r4]
 800d286:	4602      	mov	r2, r0
 800d288:	460b      	mov	r3, r1
 800d28a:	e9dd 0148 	ldrd	r0, r1, [sp, #288]	@ 0x120
 800d28e:	f7f2 ffc7 	bl	8000220 <__aeabi_dsub>
 800d292:	ad4a      	add	r5, sp, #296	@ 0x128
 800d294:	2401      	movs	r4, #1
 800d296:	45a0      	cmp	r8, r4
 800d298:	da2b      	bge.n	800d2f2 <__kernel_rem_pio2+0x5d2>
 800d29a:	f1b9 0f00 	cmp.w	r9, #0
 800d29e:	d002      	beq.n	800d2a6 <__kernel_rem_pio2+0x586>
 800d2a0:	f101 4300 	add.w	r3, r1, #2147483648	@ 0x80000000
 800d2a4:	4619      	mov	r1, r3
 800d2a6:	9b04      	ldr	r3, [sp, #16]
 800d2a8:	e9c3 0102 	strd	r0, r1, [r3, #8]
 800d2ac:	e7a5      	b.n	800d1fa <__kernel_rem_pio2+0x4da>
 800d2ae:	9c05      	ldr	r4, [sp, #20]
 800d2b0:	ab48      	add	r3, sp, #288	@ 0x120
 800d2b2:	441c      	add	r4, r3
 800d2b4:	2000      	movs	r0, #0
 800d2b6:	2100      	movs	r1, #0
 800d2b8:	f1b8 0f00 	cmp.w	r8, #0
 800d2bc:	da09      	bge.n	800d2d2 <__kernel_rem_pio2+0x5b2>
 800d2be:	f1b9 0f00 	cmp.w	r9, #0
 800d2c2:	d002      	beq.n	800d2ca <__kernel_rem_pio2+0x5aa>
 800d2c4:	f101 4300 	add.w	r3, r1, #2147483648	@ 0x80000000
 800d2c8:	4619      	mov	r1, r3
 800d2ca:	9b04      	ldr	r3, [sp, #16]
 800d2cc:	e9c3 0100 	strd	r0, r1, [r3]
 800d2d0:	e793      	b.n	800d1fa <__kernel_rem_pio2+0x4da>
 800d2d2:	e974 2302 	ldrd	r2, r3, [r4, #-8]!
 800d2d6:	f7f2 ffa5 	bl	8000224 <__adddf3>
 800d2da:	f108 38ff 	add.w	r8, r8, #4294967295	@ 0xffffffff
 800d2de:	e7eb      	b.n	800d2b8 <__kernel_rem_pio2+0x598>
 800d2e0:	e975 2302 	ldrd	r2, r3, [r5, #-8]!
 800d2e4:	f7f2 ff9e 	bl	8000224 <__adddf3>
 800d2e8:	3c01      	subs	r4, #1
 800d2ea:	e7c1      	b.n	800d270 <__kernel_rem_pio2+0x550>
 800d2ec:	4602      	mov	r2, r0
 800d2ee:	460b      	mov	r3, r1
 800d2f0:	e7c6      	b.n	800d280 <__kernel_rem_pio2+0x560>
 800d2f2:	e8f5 2302 	ldrd	r2, r3, [r5], #8
 800d2f6:	f7f2 ff95 	bl	8000224 <__adddf3>
 800d2fa:	3401      	adds	r4, #1
 800d2fc:	e7cb      	b.n	800d296 <__kernel_rem_pio2+0x576>
 800d2fe:	ed35 7b02 	vldmdb	r5!, {d7}
 800d302:	ed8d 7b00 	vstr	d7, [sp]
 800d306:	ed95 7b02 	vldr	d7, [r5, #8]
 800d30a:	e9dd 0100 	ldrd	r0, r1, [sp]
 800d30e:	ec53 2b17 	vmov	r2, r3, d7
 800d312:	ed8d 7b06 	vstr	d7, [sp, #24]
 800d316:	f7f2 ff85 	bl	8000224 <__adddf3>
 800d31a:	4602      	mov	r2, r0
 800d31c:	460b      	mov	r3, r1
 800d31e:	4606      	mov	r6, r0
 800d320:	460f      	mov	r7, r1
 800d322:	e9dd 0100 	ldrd	r0, r1, [sp]
 800d326:	f7f2 ff7b 	bl	8000220 <__aeabi_dsub>
 800d32a:	e9dd 2306 	ldrd	r2, r3, [sp, #24]
 800d32e:	f7f2 ff79 	bl	8000224 <__adddf3>
 800d332:	f10a 3aff 	add.w	sl, sl, #4294967295	@ 0xffffffff
 800d336:	e9c5 0102 	strd	r0, r1, [r5, #8]
 800d33a:	e9c5 6700 	strd	r6, r7, [r5]
 800d33e:	e771      	b.n	800d224 <__kernel_rem_pio2+0x504>
 800d340:	ed34 7b02 	vldmdb	r4!, {d7}
 800d344:	e9d4 ab02 	ldrd	sl, fp, [r4, #8]
 800d348:	ec51 0b17 	vmov	r0, r1, d7
 800d34c:	4652      	mov	r2, sl
 800d34e:	465b      	mov	r3, fp
 800d350:	ed8d 7b00 	vstr	d7, [sp]
 800d354:	f7f2 ff66 	bl	8000224 <__adddf3>
 800d358:	4602      	mov	r2, r0
 800d35a:	460b      	mov	r3, r1
 800d35c:	4606      	mov	r6, r0
 800d35e:	460f      	mov	r7, r1
 800d360:	e9dd 0100 	ldrd	r0, r1, [sp]
 800d364:	f7f2 ff5c 	bl	8000220 <__aeabi_dsub>
 800d368:	4652      	mov	r2, sl
 800d36a:	465b      	mov	r3, fp
 800d36c:	f7f2 ff5a 	bl	8000224 <__adddf3>
 800d370:	3d01      	subs	r5, #1
 800d372:	e9c4 0102 	strd	r0, r1, [r4, #8]
 800d376:	e9c4 6700 	strd	r6, r7, [r4]
 800d37a:	e757      	b.n	800d22c <__kernel_rem_pio2+0x50c>
 800d37c:	e974 2302 	ldrd	r2, r3, [r4, #-8]!
 800d380:	f7f2 ff50 	bl	8000224 <__adddf3>
 800d384:	f108 38ff 	add.w	r8, r8, #4294967295	@ 0xffffffff
 800d388:	e758      	b.n	800d23c <__kernel_rem_pio2+0x51c>
 800d38a:	bf00      	nop
 800d38c:	f3af 8000 	nop.w
	...
 800d398:	41700000 	.word	0x41700000
 800d39c:	3e700000 	.word	0x3e700000
 800d3a0:	9b04      	ldr	r3, [sp, #16]
 800d3a2:	9a04      	ldr	r2, [sp, #16]
 800d3a4:	601d      	str	r5, [r3, #0]
 800d3a6:	f106 4400 	add.w	r4, r6, #2147483648	@ 0x80000000
 800d3aa:	605c      	str	r4, [r3, #4]
 800d3ac:	609f      	str	r7, [r3, #8]
 800d3ae:	f108 4300 	add.w	r3, r8, #2147483648	@ 0x80000000
 800d3b2:	60d3      	str	r3, [r2, #12]
 800d3b4:	f101 4300 	add.w	r3, r1, #2147483648	@ 0x80000000
 800d3b8:	6110      	str	r0, [r2, #16]
 800d3ba:	6153      	str	r3, [r2, #20]
 800d3bc:	e71d      	b.n	800d1fa <__kernel_rem_pio2+0x4da>
 800d3be:	bf00      	nop

0800d3c0 <scalbn>:
 800d3c0:	b570      	push	{r4, r5, r6, lr}
 800d3c2:	ec55 4b10 	vmov	r4, r5, d0
 800d3c6:	f3c5 510a 	ubfx	r1, r5, #20, #11
 800d3ca:	4606      	mov	r6, r0
 800d3cc:	462b      	mov	r3, r5
 800d3ce:	b991      	cbnz	r1, 800d3f6 <scalbn+0x36>
 800d3d0:	f025 4300 	bic.w	r3, r5, #2147483648	@ 0x80000000
 800d3d4:	4323      	orrs	r3, r4
 800d3d6:	d03b      	beq.n	800d450 <scalbn+0x90>
 800d3d8:	4b33      	ldr	r3, [pc, #204]	@ (800d4a8 <scalbn+0xe8>)
 800d3da:	4620      	mov	r0, r4
 800d3dc:	4629      	mov	r1, r5
 800d3de:	2200      	movs	r2, #0
 800d3e0:	f7f3 f8d6 	bl	8000590 <__aeabi_dmul>
 800d3e4:	4b31      	ldr	r3, [pc, #196]	@ (800d4ac <scalbn+0xec>)
 800d3e6:	429e      	cmp	r6, r3
 800d3e8:	4604      	mov	r4, r0
 800d3ea:	460d      	mov	r5, r1
 800d3ec:	da0f      	bge.n	800d40e <scalbn+0x4e>
 800d3ee:	a326      	add	r3, pc, #152	@ (adr r3, 800d488 <scalbn+0xc8>)
 800d3f0:	e9d3 2300 	ldrd	r2, r3, [r3]
 800d3f4:	e01e      	b.n	800d434 <scalbn+0x74>
 800d3f6:	f240 72ff 	movw	r2, #2047	@ 0x7ff
 800d3fa:	4291      	cmp	r1, r2
 800d3fc:	d10b      	bne.n	800d416 <scalbn+0x56>
 800d3fe:	4622      	mov	r2, r4
 800d400:	4620      	mov	r0, r4
 800d402:	4629      	mov	r1, r5
 800d404:	f7f2 ff0e 	bl	8000224 <__adddf3>
 800d408:	4604      	mov	r4, r0
 800d40a:	460d      	mov	r5, r1
 800d40c:	e020      	b.n	800d450 <scalbn+0x90>
 800d40e:	460b      	mov	r3, r1
 800d410:	f3c1 510a 	ubfx	r1, r1, #20, #11
 800d414:	3936      	subs	r1, #54	@ 0x36
 800d416:	f24c 3250 	movw	r2, #50000	@ 0xc350
 800d41a:	4296      	cmp	r6, r2
 800d41c:	dd0d      	ble.n	800d43a <scalbn+0x7a>
 800d41e:	2d00      	cmp	r5, #0
 800d420:	a11b      	add	r1, pc, #108	@ (adr r1, 800d490 <scalbn+0xd0>)
 800d422:	e9d1 0100 	ldrd	r0, r1, [r1]
 800d426:	da02      	bge.n	800d42e <scalbn+0x6e>
 800d428:	a11b      	add	r1, pc, #108	@ (adr r1, 800d498 <scalbn+0xd8>)
 800d42a:	e9d1 0100 	ldrd	r0, r1, [r1]
 800d42e:	a318      	add	r3, pc, #96	@ (adr r3, 800d490 <scalbn+0xd0>)
 800d430:	e9d3 2300 	ldrd	r2, r3, [r3]
 800d434:	f7f3 f8ac 	bl	8000590 <__aeabi_dmul>
 800d438:	e7e6      	b.n	800d408 <scalbn+0x48>
 800d43a:	1872      	adds	r2, r6, r1
 800d43c:	f240 71fe 	movw	r1, #2046	@ 0x7fe
 800d440:	428a      	cmp	r2, r1
 800d442:	dcec      	bgt.n	800d41e <scalbn+0x5e>
 800d444:	2a00      	cmp	r2, #0
 800d446:	dd06      	ble.n	800d456 <scalbn+0x96>
 800d448:	f36f 531e 	bfc	r3, #20, #11
 800d44c:	ea43 5502 	orr.w	r5, r3, r2, lsl #20
 800d450:	ec45 4b10 	vmov	d0, r4, r5
 800d454:	bd70      	pop	{r4, r5, r6, pc}
 800d456:	f112 0f35 	cmn.w	r2, #53	@ 0x35
 800d45a:	da08      	bge.n	800d46e <scalbn+0xae>
 800d45c:	2d00      	cmp	r5, #0
 800d45e:	a10a      	add	r1, pc, #40	@ (adr r1, 800d488 <scalbn+0xc8>)
 800d460:	e9d1 0100 	ldrd	r0, r1, [r1]
 800d464:	dac3      	bge.n	800d3ee <scalbn+0x2e>
 800d466:	a10e      	add	r1, pc, #56	@ (adr r1, 800d4a0 <scalbn+0xe0>)
 800d468:	e9d1 0100 	ldrd	r0, r1, [r1]
 800d46c:	e7bf      	b.n	800d3ee <scalbn+0x2e>
 800d46e:	3236      	adds	r2, #54	@ 0x36
 800d470:	f36f 531e 	bfc	r3, #20, #11
 800d474:	ea43 5502 	orr.w	r5, r3, r2, lsl #20
 800d478:	4620      	mov	r0, r4
 800d47a:	4b0d      	ldr	r3, [pc, #52]	@ (800d4b0 <scalbn+0xf0>)
 800d47c:	4629      	mov	r1, r5
 800d47e:	2200      	movs	r2, #0
 800d480:	e7d8      	b.n	800d434 <scalbn+0x74>
 800d482:	bf00      	nop
 800d484:	f3af 8000 	nop.w
 800d488:	c2f8f359 	.word	0xc2f8f359
 800d48c:	01a56e1f 	.word	0x01a56e1f
 800d490:	8800759c 	.word	0x8800759c
 800d494:	7e37e43c 	.word	0x7e37e43c
 800d498:	8800759c 	.word	0x8800759c
 800d49c:	fe37e43c 	.word	0xfe37e43c
 800d4a0:	c2f8f359 	.word	0xc2f8f359
 800d4a4:	81a56e1f 	.word	0x81a56e1f
 800d4a8:	43500000 	.word	0x43500000
 800d4ac:	ffff3cb0 	.word	0xffff3cb0
 800d4b0:	3c900000 	.word	0x3c900000
 800d4b4:	00000000 	.word	0x00000000

0800d4b8 <floor>:
 800d4b8:	ec51 0b10 	vmov	r0, r1, d0
 800d4bc:	f3c1 530a 	ubfx	r3, r1, #20, #11
 800d4c0:	e92d 41f0 	stmdb	sp!, {r4, r5, r6, r7, r8, lr}
 800d4c4:	f2a3 36ff 	subw	r6, r3, #1023	@ 0x3ff
 800d4c8:	2e13      	cmp	r6, #19
 800d4ca:	460c      	mov	r4, r1
 800d4cc:	4605      	mov	r5, r0
 800d4ce:	4680      	mov	r8, r0
 800d4d0:	dc34      	bgt.n	800d53c <floor+0x84>
 800d4d2:	2e00      	cmp	r6, #0
 800d4d4:	da17      	bge.n	800d506 <floor+0x4e>
 800d4d6:	a332      	add	r3, pc, #200	@ (adr r3, 800d5a0 <floor+0xe8>)
 800d4d8:	e9d3 2300 	ldrd	r2, r3, [r3]
 800d4dc:	f7f2 fea2 	bl	8000224 <__adddf3>
 800d4e0:	2200      	movs	r2, #0
 800d4e2:	2300      	movs	r3, #0
 800d4e4:	f7f3 fae4 	bl	8000ab0 <__aeabi_dcmpgt>
 800d4e8:	b150      	cbz	r0, 800d500 <floor+0x48>
 800d4ea:	2c00      	cmp	r4, #0
 800d4ec:	da55      	bge.n	800d59a <floor+0xe2>
 800d4ee:	f024 4400 	bic.w	r4, r4, #2147483648	@ 0x80000000
 800d4f2:	432c      	orrs	r4, r5
 800d4f4:	2500      	movs	r5, #0
 800d4f6:	42ac      	cmp	r4, r5
 800d4f8:	4c2b      	ldr	r4, [pc, #172]	@ (800d5a8 <floor+0xf0>)
 800d4fa:	bf08      	it	eq
 800d4fc:	f04f 4400 	moveq.w	r4, #2147483648	@ 0x80000000
 800d500:	4621      	mov	r1, r4
 800d502:	4628      	mov	r0, r5
 800d504:	e023      	b.n	800d54e <floor+0x96>
 800d506:	4f29      	ldr	r7, [pc, #164]	@ (800d5ac <floor+0xf4>)
 800d508:	4137      	asrs	r7, r6
 800d50a:	ea01 0307 	and.w	r3, r1, r7
 800d50e:	4303      	orrs	r3, r0
 800d510:	d01d      	beq.n	800d54e <floor+0x96>
 800d512:	a323      	add	r3, pc, #140	@ (adr r3, 800d5a0 <floor+0xe8>)
 800d514:	e9d3 2300 	ldrd	r2, r3, [r3]
 800d518:	f7f2 fe84 	bl	8000224 <__adddf3>
 800d51c:	2200      	movs	r2, #0
 800d51e:	2300      	movs	r3, #0
 800d520:	f7f3 fac6 	bl	8000ab0 <__aeabi_dcmpgt>
 800d524:	2800      	cmp	r0, #0
 800d526:	d0eb      	beq.n	800d500 <floor+0x48>
 800d528:	2c00      	cmp	r4, #0
 800d52a:	bfbe      	ittt	lt
 800d52c:	f44f 1380 	movlt.w	r3, #1048576	@ 0x100000
 800d530:	4133      	asrlt	r3, r6
 800d532:	18e4      	addlt	r4, r4, r3
 800d534:	ea24 0407 	bic.w	r4, r4, r7
 800d538:	2500      	movs	r5, #0
 800d53a:	e7e1      	b.n	800d500 <floor+0x48>
 800d53c:	2e33      	cmp	r6, #51	@ 0x33
 800d53e:	dd0a      	ble.n	800d556 <floor+0x9e>
 800d540:	f5b6 6f80 	cmp.w	r6, #1024	@ 0x400
 800d544:	d103      	bne.n	800d54e <floor+0x96>
 800d546:	4602      	mov	r2, r0
 800d548:	460b      	mov	r3, r1
 800d54a:	f7f2 fe6b 	bl	8000224 <__adddf3>
 800d54e:	ec41 0b10 	vmov	d0, r0, r1
 800d552:	e8bd 81f0 	ldmia.w	sp!, {r4, r5, r6, r7, r8, pc}
 800d556:	f2a3 4313 	subw	r3, r3, #1043	@ 0x413
 800d55a:	f04f 37ff 	mov.w	r7, #4294967295	@ 0xffffffff
 800d55e:	40df      	lsrs	r7, r3
 800d560:	4207      	tst	r7, r0
 800d562:	d0f4      	beq.n	800d54e <floor+0x96>
 800d564:	a30e      	add	r3, pc, #56	@ (adr r3, 800d5a0 <floor+0xe8>)
 800d566:	e9d3 2300 	ldrd	r2, r3, [r3]
 800d56a:	f7f2 fe5b 	bl	8000224 <__adddf3>
 800d56e:	2200      	movs	r2, #0
 800d570:	2300      	movs	r3, #0
 800d572:	f7f3 fa9d 	bl	8000ab0 <__aeabi_dcmpgt>
 800d576:	2800      	cmp	r0, #0
 800d578:	d0c2      	beq.n	800d500 <floor+0x48>
 800d57a:	2c00      	cmp	r4, #0
 800d57c:	da0a      	bge.n	800d594 <floor+0xdc>
 800d57e:	2e14      	cmp	r6, #20
 800d580:	d101      	bne.n	800d586 <floor+0xce>
 800d582:	3401      	adds	r4, #1
 800d584:	e006      	b.n	800d594 <floor+0xdc>
 800d586:	f1c6 0634 	rsb	r6, r6, #52	@ 0x34
 800d58a:	2301      	movs	r3, #1
 800d58c:	40b3      	lsls	r3, r6
 800d58e:	441d      	add	r5, r3
 800d590:	4545      	cmp	r5, r8
 800d592:	d3f6      	bcc.n	800d582 <floor+0xca>
 800d594:	ea25 0507 	bic.w	r5, r5, r7
 800d598:	e7b2      	b.n	800d500 <floor+0x48>
 800d59a:	2500      	movs	r5, #0
 800d59c:	462c      	mov	r4, r5
 800d59e:	e7af      	b.n	800d500 <floor+0x48>
 800d5a0:	8800759c 	.word	0x8800759c
 800d5a4:	7e37e43c 	.word	0x7e37e43c
 800d5a8:	bff00000 	.word	0xbff00000
 800d5ac:	000fffff 	.word	0x000fffff

0800d5b0 <_init>:
 800d5b0:	b5f8      	push	{r3, r4, r5, r6, r7, lr}
 800d5b2:	bf00      	nop
 800d5b4:	bcf8      	pop	{r3, r4, r5, r6, r7}
 800d5b6:	bc08      	pop	{r3}
 800d5b8:	469e      	mov	lr, r3
 800d5ba:	4770      	bx	lr

0800d5bc <_fini>:
 800d5bc:	b5f8      	push	{r3, r4, r5, r6, r7, lr}
 800d5be:	bf00      	nop
 800d5c0:	bcf8      	pop	{r3, r4, r5, r6, r7}
 800d5c2:	bc08      	pop	{r3}
 800d5c4:	469e      	mov	lr, r3
 800d5c6:	4770      	bx	lr
